Xc:_glClearStencil
JIf:_Array_InternalArray__ICollection_Add_TisMark_t2724874473_m1613484179_gshared
oFc:__ZN5physx2Gu19gjkLocalPenetrationINS0_8CapsuleVENS0_17ShrunkConvexHullVEEEjRKT_RKT0_RKNS_6shdfnd3aos6FloatVERNSB_5Vec3VESG_SG_RSC_PhSI_Rhb
Zfk:__ZL80Graphic_t2426225576_CustomAttributesCacheGenerator_Graphic_OnFillVBO_m1723985607P21CustomAttributesCache
ctj:__ZN6il2cpp2vm5Array13GetByteLengthEP11Il2CppArray
SMh:_Raycast3DCallback_BeginInvoke_m3028685017
eok:__Z79RuntimeInvoker_RuntimeObject_Int64_t909078037_Int64_t909078037_Int64_t909078037PFvvEPK10MethodInfoPvPS4_
w5h:_EqualityComparer_1__cctor_m968537130_gshared
IBe:__ZN15DownloadHandler7OnAbortEv
$Ri:_TextGenerator_Invalidate_m1993568841
M$k:_Texture_Internal_GetHeight_m3235768354
fOg:_Comparison_1_Invoke_m353639462_gshared
bJa:__Z30GetIntermediateRendererManagerv
x1e:_GraphicRegistry_RegisterGraphicForCanvas_m2284226562
Fja:__Z21SourceMipLevelForBlitiiii
MNa:__ZN31CanvasBatchIntermediateRenderer15AddAsRenderNodeER15RenderNodeQueueRK20DeprecatedSourceData
S$j:__ZL87Component_t3819376471_CustomAttributesCacheGenerator_Component_GetComponent_m1409092944P21CustomAttributesCache
TCh:_GenericTypeParameterBuilder_GetEvent_m4210567427
Slf:_Enumerator_get_Key_m2908810861
txe:__ZN11UnityEngine7Connect14AppUpdateEventD0Ev
YAi:_GUI_DoSetSkin_m2532620610
Ryd:__ZNK5physx2Sc5Scene24getContactModifyCallbackEv
_W:__ZdlPv
nek:__ZL77StandaloneInputModule_t70867863_CustomAttributesCacheGenerator_m_VerticalAxisP21CustomAttributesCache
bt:__ZN11UnityEngine9Animation28GenericAnimationBindingCacheD2Ev
XBd:__ZN5physx2Sq10AABBPruner10addObjectsEPjPKNS_9PxBounds3EPKNS0_13PrunerPayloadEj
sQj:__ZL68RemotingSurrogateSelector_t2821375126_CustomAttributesCacheGeneratorP21CustomAttributesCache
Ywj:__GLOBAL__sub_I_Assembly_cpp_11174
Xlg:_List_1_System_Collections_IList_IndexOf_m39706221_gshared
E$h:_Dictionary_2_Remove_m1849931834_gshared
Iof:_Decimal_op_Implicit_m2971610317
jCi:_GUILayoutGroup_ResetCursor_m3614985691
$b:invoke_viiiifiiiiif
nYb:__Z18RestoreRenderStateR20CameraRenderOldStateR17ShaderPassContext
Ahf:_SynchronizedArrayListWrapper_get_Item_m3309425850
Vyb:__Z18Transfer_BlittableI18StreamedBinaryReadILb1EELb1E5RectTIfEEvRK29SerializationCommandArgumentsR31RuntimeSerializationCommandInfo
WRk:_UnityEventBase_RebuildPersistentCallsIfNeeded_m2776978024
xYk:_Rect_set_height_m1455613541_AdjustorThunk
Nub:__Z18Transfer_BlittableI24GenerateTypeTreeTransferLb0E11ColorRGBA32EvRK29SerializationCommandArgumentsR31RuntimeSerializationCommandInfo
E1:__Z25scripting_class_from_name17ScriptingImagePtrPKcS1_
cgj:__ZN14dense_hash_mapI10KeyWrapperINSt3__24pairIPK12PropertyInfoP11Il2CppClassEEEj17ReflectionMapHashIS8_ENS9_14EqualsComparerINS1_8equal_toIS8_EEEENS1_9allocatorINS2_IKS9_jEEEEE15set_deleted_keyERSH_
ZEb:__Z29scripting_class_enum_basetype17ScriptingClassPtr
gHk:__Z105RuntimeInvoker_Int32_t2071877448_RuntimeObject_UILineInfo_t3621277874_Int32_t2071877448_Int32_t2071877448PFvvEPK10MethodInfoPvPS4_
kRc:__ZN5physx6shdfnd8PoolBaseINS_2Sc10NPhaseCore16ClothListElementENS0_19ReflectionAllocatorIS4_EEE17releaseEmptySlabsEv
m2e:_GraphicRaycaster_get_ignoreReversedGraphics_m2757724367
Azk:__Z111RuntimeInvoker_Void_t1841601450_Vector4_t2243707581_Vector4_t2243707581_Vector4_t2243707581_Vector4_t2243707581PFvvEPK10MethodInfoPvPS4_
qGa:__ZNK12BaseRenderer18GetRenderNodeCountEv
p3k:_Collision_t2876846408_marshal_pinvoke_back
UUd:__ZN5physx2Sc14ConstraintCore10breakApartEv
EDh:_GenericTypeParameterBuilder_GetHashCode_m867619899
j_d:__ZN5physx2Gu15EdgeListBuilderC2Ev
U4h:_EqualityComparer_1__cctor_m3397254040_gshared
QF:__ZN18StreamedBinaryReadILb0EE21TransferSTLStyleArrayI22OffsetPtrArrayTransferIN4math8ColliderEEEEvRT_17TransferMetaFlags
vAa:__ZN15dense_hashtableINSt3__24pairIKN4core12basic_stringIcNS2_20StringStorageDefaultIcEEEEP20ArchiveStorageReaderEES6_20StringHash32FunctionIS6_EN14dense_hash_mapIS6_S9_SC_NS0_8equal_toIS6_EE13stl_allocatorISA_L18MemLabelIdentifier55ELi16EEE9SelectKeyESF_SI_E4swapERSL_
I$d:__ZN5physx7Cooking20loadTriangleMeshDescERKNS_18PxTriangleMeshDescERNS_19TriangleMeshBuilderE
lgg:_MonoType_CheckMethodSecurity_m4116906190
Jlk:__Z70RuntimeInvoker_Boolean_t3825574718_RuntimeObject_UInt64U26_t1611942494PFvvEPK10MethodInfoPvPS4_
nUc:__ZN5physx9NpFactory21releaseConnectorArrayEPNS_16NpConnectorArrayE
YEd:__ZNK5physx2Gu29EPASupportMapPairRelativeImplINS0_9TriangleVENS0_4BoxVEE6getDirEv
YNf:_Array_Sort_TisVector2_t2243707579_m1307634946_gshared
j2b:__Z13RegisterClassI12InputManagerEvv
iha:__ZN7ApiGLES17CopyBufferSubDataEjjlll
Rvh:_UInt64_System_IConvertible_ToDecimal_m4205696037
u1j:__ZL80Input_t1785128008_CustomAttributesCacheGenerator_Input_GetKeyDownInt_m1492831765P21CustomAttributesCache
Kqc:__ZN5Unity9rapidjson15GenericDocumentINS0_4UTF8IcEE13JSONAllocatorS4_E11ParseStreamILj1ES3_NS0_25GenericInsituStringStreamIS3_EEEERS5_RT1_
RYi:__ZNSt3__26vectorIPK10Il2CppTypeNS_9allocatorIS3_EEE7reserveEj
OSi:_U3CCreateWhereIteratorU3Ec__Iterator1D_1_Reset_m1773515612_gshared
nQb:__ZN25CameraStackRenderingState20GetOrCreateBuiltinRTE24BuiltinRenderTextureTypeii17DepthBufferFormat19RenderTextureFormatj22RenderTextureReadWrite14VRTextureUsagei
Q5e:_InputField_get_caretPosition_m1005871812
lOa:__Z32TransferEnumWithNameForceIntSizeI14SafeBinaryRead16LightmappingMaskEvRT_RT0_PKc17TransferMetaFlags
j_h:_Dictionary_2__ctor_m3111963761_gshared
RO:__ZN11AudioModule26SetDefaultMicrophoneDriverEPv
Dhd:__ZNK5physx15NpActorTemplateINS_15PxParticleFluidEE22getClientBehaviorFlagsEv
FIi:_AesManaged_CreateEncryptor_m1729287824
Q1a:__ZNK14Texture2DArray26CanReuploadDataToGfxDeviceEv
IUb:__ZN17PrePassRenderLoop14RenderBasePassEP13RenderTextureRK14LightingLayersR13dynamic_arrayI16RenderObjectDataLj4EERbR10MinMaxAABB
lEa:__ZN17GlobalGameManager23VirtualRedirectTransferER17RemapPPtrTransfer
Eie:_sfnt_stream_close
Fef:_Char_System_IConvertible_ToInt16_m2741348777_AdjustorThunk
yoc:__ZN5IMGUI18RepaintModalWindowER8GUIState
mPi:__ZL25UnresolvedVirtualCall_129P12Il2CppObject17Color_t2020392075PK10MethodInfo
U0e:_FontData_get_verticalOverflow_m83665814
BHg:_ReadOnlyCollection_1_System_Collections_Generic_IListU3CTU3E_set_Item_m1547026160_gshared
THa:__ZNK15dense_hashtableINSt3__24pairIKN9ShaderLab7Program23ShaderKeywordSetAndHashEPKNS2_10SubProgramEEES4_NS3_24ShaderKeywordHashFunctorEN14dense_hash_mapIS4_S8_SA_NS0_8equal_toIS4_EE13stl_allocatorIS9_L18MemLabelIdentifier67ELi16EEE9SelectKeyESD_SG_E23find_position_with_hashERS5_j
sJj:__ZL61MarshalAsAttribute_t2900773360_CustomAttributesCacheGeneratorP21CustomAttributesCache
x0a:__Z23SetSpriteMeshIndexCountP14SharedMeshDataj
eRa:__ZN7Texture13SetFilterModeEi
I$j:__ZL87Camera_t189460977_CustomAttributesCacheGenerator_Camera_get_allCamerasCount_m1873043770P21CustomAttributesCache
hgc:__Z46Register_UnityEngine_Application_get_isPlayingv
bvj:__ZN6il2cpp8metadata13GenericMethod9GetMethodEPK19Il2CppGenericMethod
jr:__ZNSt3__26vectorIN4core12basic_stringIcNS1_20StringStorageDefaultIcEEEENS_9allocatorIS5_EEE7reserveEj
arf:_Convert_ToUInt16_m2130758075
kcj:__ZN15dense_hashtableINSt3__24pairIK10KeyWrapperINS1_IPK11Il2CppImageP11Il2CppClassEEEjEES9_17ReflectionMapHashIS8_EN14dense_hash_mapIS9_jSD_NS9_14EqualsComparerINS0_8equal_toIS8_EEEENS0_9allocatorISB_EEE9SelectKeyESI_SK_E3endEv
c5g:_X509BasicConstraintsExtension_Encode_m3505127076
rba:__ZN13GfxDeviceGLES11SetViewportERK5RectTIiE
T3e:_Image_get_pixelsPerUnit_m4104195799
oTh:_Toggle_InternalToggle_m2323729210
mvf:_Decimal_System_IConvertible_ToInt64_m2504363272
Rb:invoke_vifiiii
N9e:_Array_GetValue_m3182152438
oe:_emscripten_glDepthRange
tkh:_DESTransform_CipherFunct_m3559419566
mAc:__ZN5physx2Gu24contactConvexHeightfieldERKNS0_13GeometryUnionES3_RKNS_11PxTransformES6_RKfRNS0_5CacheERNS0_13ContactBufferE
QVc:__ZN5physx6shdfnd5ArrayIPvNS0_19ReflectionAllocatorINS_2Cm5BlockIS2_Lj8EEEEEE15growAndPushBackERKS2_
ZVe:_StandaloneInputModule_get_repeatDelay_m3025279
cih:_RuntimeFieldHandle_get_Value_m3963757144
w_b:__ZNSt3__26vectorINS_4pairIN4core12basic_stringIcNS2_20StringStorageDefaultIcEEEES6_EE13stl_allocatorIS7_L18MemLabelIdentifier38ELi16EEE12__move_rangeEPS7_SC_SC_
nfb:__Z14resize_trimmedINSt3__26vectorIN9ShaderLab20SerializedSubProgram12UAVParameterENS0_9allocatorIS4_EEEEEvRT_j
crc:__ZN5Unity9rapidjson13GenericReaderINS0_4UTF8IcEES3_13JSONAllocatorE11ParseObjectILj1ENS0_25GenericInsituStringStreamIS3_EENS0_15GenericDocumentIS3_S4_S4_EEEEvRT0_RT1_
Jfh:_SerializationInfo_AddValue_m1781549036
ZKk:__Z35RuntimeInvoker_UIVertex_t1204258818PFvvEPK10MethodInfoPvPS4_
wIk:__Z59RuntimeInvoker_Void_t1841601450_PlayableBinding_t2498078091PFvvEPK10MethodInfoPvPS4_
dVg:_TlsServerKeyExchange_verifySignature_m3641534563
Ucc:__ZN13BuildSettings34ConvertScenePathToDisplayScenePathERKN4core12basic_stringIcNS0_20StringStorageDefaultIcEEEE
DDg:_Collection_1_Clear_m445145071_gshared
K3:__ZNSt3__218__insertion_sort_3IRNS_6__lessI14ObjectLoadDataS2_EEPS2_EEvT0_S6_T_
_Di:_InvokableCall_1_Find_m2337296995_gshared
CRh:_Slider_FindSelectableOnLeft_m3136767885
dja:__ZN4crndL20crnd_default_reallocEPvjPjbS0_
E1e:__ZN21InterfaceFuncInvoker1IP19Material_t193706927S1_E6InvokeEjP11Il2CppClassP12Il2CppObjectS1_
EFf:_Array_BinarySearch_TisInt32_t2071877448_m51233948_gshared
f8k:__ZNSt3__212basic_stringIcNS_11char_traitsIcEENS_9allocatorIcEEEC2ERKS5_
_Jd:__ZN5physx24PxsComputeAABBLocalSpaceERKNS_18PxcAABBDataDynamicERNS_9PxBounds3E
eeh:_ProviderData_CopyFrom_m431414335
SAk:__Z74RuntimeInvoker_Boolean_t3825574718_Vector2_t2243707579_Vector2_t2243707579PFvvEPK10MethodInfoPvPS4_
n1a:__ZN18SpriteAtlasManager19AddRequestingSpriteE4PPtrI6SpriteE
Pnh:_UTF32Encoding_GetPreamble_m767706727
Clc:__Z33Texture_CUSTOM_Internal_GetHeightP12Il2CppObject
i8e:_LayoutGroup_get_preferredHeight_m3901163825
S7j:__ZL106AudioSettings_t3144015719_CustomAttributesCacheGenerator_AudioSettings_GetSpatializerPluginName_m698617843P21CustomAttributesCache
rXb:__ZN23ScriptableRenderContextC2Ev
n8j:__ZL118AudioSource_t1135106623_CustomAttributesCacheGenerator_AudioSource_INTERNAL_CALL_ReadExtensionPropertyName_m3694806886P21CustomAttributesCache
rJa:__ZN4PPtrI13RenderTextureE8TransferI18StreamedBinaryReadILb0EEEEvRT_
lof:_DateTime_AbsoluteDays_m3061694073
AOk:_Camera_get_targetDisplay_m4125012331
ppe:_UNITY_FT_Stream_GetChar
uzb:__Z18Transfer_BlittableI18StreamedBinaryReadILb1EELb1EdEvRK29SerializationCommandArgumentsR31RuntimeSerializationCommandInfo
GVh:_Enumerator_System_Collections_IEnumerator_get_Current_m229223308_gshared
O_j:__ZL202U3CCreateWhereIteratorU3Ec__Iterator1D_1_t2523986802_CustomAttributesCacheGenerator_U3CCreateWhereIteratorU3Ec__Iterator1D_1_System_Collections_Generic_IEnumerableU3CTSourceU3E_GetEnumerator_m2392330777P21CustomAttributesCache
zCd:__ZN5physx6shdfnd8internal8HashBaseINS0_4PairIKNS_2Sq13PrunerPayloadEjEES5_NS0_4HashIS5_EENS1_11HashMapBaseIS5_jS9_NS0_9AllocatorEE6GetKeyESB_Lb1EE5eraseERS6_
gFb:__Z26BuildSerializationCacheFor17ScriptingClassPtrRb
jpa:__ZN7ApiGLES15BlitFramebufferEN2gl6HandleILNS0_10ObjectTypeE9EEENS0_15FramebufferReadES3_S3_iiiiiiiiNS0_15FramebufferTypeE
rWd:__ZN5physx13GuMeshFactory16createConvexMeshERNS_13PxInputStreamE
a6d:__ZN5physx6shdfnd8internal8HashBaseINS0_4PairIKPKcjEES5_NS0_4HashIS5_EENS1_11HashMapBaseIS5_jS9_NS_7profile26WrapperReflectionAllocatorIjEEE6GetKeyESD_Lb1EE6createERS6_Rb
IFi:_UnityEvent_1_GetDelegate_m2559549291_gshared
IOj:__ZL55GCHandleType_t1970708122_CustomAttributesCacheGeneratorP21CustomAttributesCache
h8b:__ZN13ProduceHelperI10GUIElementLb1EE7ProduceE18MemLabelIdentifier18ObjectCreationMode
NPi:__ZL25UnresolvedVirtualCall_156P12Il2CppObject18Color32_t874517518PK10MethodInfo
knk:__Z51RuntimeInvoker_Int32_t2071877448_Decimal_t724701077PFvvEPK10MethodInfoPvPS4_
t1k:_UnitySynchronizationContext__ctor_m1804960286
xUi:_WillRenderCanvases_BeginInvoke_m4217413147
jhf:_FixedSizeArrayListWrapper_AddRange_m2071800418
vG:__ZN13ProduceHelperI8AnimatorLb0EE7ProduceE18MemLabelIdentifier18ObjectCreationMode
zGb:__Z9InitInputv
Mtk:__Z85RuntimeInvoker_Boolean_t3825574718_Int64_t909078037_Int64_t909078037_SByte_t454417549PFvvEPK10MethodInfoPvPS4_
Iaj:__ZN15dense_hashtableINSt3__24pairIK10KeyWrapperINS1_IPK9FieldInfoP11Il2CppClassEEEjEES9_17ReflectionMapHashIS8_EN14dense_hash_mapIS9_jSD_NS9_14EqualsComparerINS0_8equal_toIS8_EEEENS0_9allocatorISB_EEE9SelectKeyESI_SK_ED2Ev
Kkg:_Enumerator_VerifyState_m2358705882_AdjustorThunk
Lvb:__Z29Transfer_Blittable_ArrayFieldI24GenerateTypeTreeTransfer11ColorRGBA32EvRT_R9ArrayInfoRK23StaticTransferFieldInfo
pWd:__ZNK5physx13GuMeshFactory15getConvexMeshesEPPNS_12PxConvexMeshEjj
SNh:_Selectable_Navigate_m915280351
F$f:_AppDomain_getCurDomain_m591611373
tnb:__ZN16MemoryFileSystem6DeleteER13FileEntryDatab
Xja:__ZL21BlitScaleStbImageImplRK14ImageReferenceRS_NS_10ColorSpaceE
S8c:__ZN5physx10NpMaterial17setStaticFrictionEf
LZk:_RectTransform_INTERNAL_set_pivot_m4248720081
K$g:_TlsStream_set_Position_m378064217
ohb:__ZN18StreamedBinaryReadILb0EE21TransferSTLStyleArrayI13dynamic_arrayIjLj4EEEEvRT_17TransferMetaFlags
ptd:__ZNK5physx7NpScene19getFilterShaderDataEv
Fqb:__Z29Transfer_Blittable_ArrayFieldI14SafeBinaryReadyEvRT_R9ArrayInfoRK23StaticTransferFieldInfo
Fsf:_DateTime_System_IConvertible_ToUInt32_m1363211018
Waj:__ZNK15dense_hashtableINSt3__24pairIK10KeyWrapperINS1_IPK9FieldInfoP11Il2CppClassEEEjEES9_17ReflectionMapHashIS8_EN14dense_hash_mapIS9_jSD_NS9_14EqualsComparerINS0_8equal_toIS8_EEEENS0_9allocatorISB_EEE9SelectKeyESI_SK_E12test_deletedERK24dense_hashtable_iteratorISB_S9_SD_SM_SI_SK_E
V3c:__ZN5physx2Sc19ShapeInstancePairLL26onPoseChangedWhileSleepingEv
ALe:_Evidence_Equals_m2325859915
gEd:__ZN5physx22PxcSweepCapsuleCapsuleERKNS_11PxsCCDShapeES2_PKNS_12PxsRigidBodyES5_RKNS_11PxTransformES8_S8_S8_fRNS_6PxVec3ESA_RNS_10PxcNpCacheERNS_18PxcNpThreadContextEf
gTj:__ZL93WindowsIdentity_t373339331_CustomAttributesCacheGenerator_WindowsIdentity_Dispose_m2649088337P21CustomAttributesCache
Pyh:_Default__ctor_m172834064
Kc:invoke_vifffii
fCb:__Z35Transfer_Blittable_FixedBufferFieldI18StreamedBinaryReadILb0EEaEvRK29SerializationCommandArgumentsR31RuntimeSerializationCommandInfo
Hkj:__ZN6il2cpp2vm9Exception27RaiseNullReferenceExceptionEv
Fti:_Regex_IsMatch_m2159202025
pKc:__ZNK5physx3Cct17CapsuleController21getHalfHeightInternalEv
$Ba:__ZNK25MultiBlocksMemoryFileData5CloneEv
kIg:_ReadOnlyCollection_1_System_Collections_IList_IndexOf_m3466286536_gshared
FAj:_GC_add_ext_descriptor
AJc:__ZN5physx21PxQueryFilterCallbackD2Ev
HBj:__ZN6il2cpp2os14WindowsRuntime22GetRestrictedErrorInfoEv
j4e:_Image_CalculateLayoutInputHorizontal_m3275149860
pbh:_RemotingServices_GetMethodBaseFromName_m3271095947
dBa:__ZN17ArchiveFileSystem11CreateAsDirER13FileEntryData
vTc:__ZL30GeomOverlapCallback_CapsuleBoxRKN5physx10PxGeometryERKNS_11PxTransformES2_S5_PNS_2Gu12TriggerCacheE
lal:dynCall_iiiiiiiiiiii
CQe:_ASCIIEncoding_GetBytes_m3617160053
Ube:__Z38Rigidbody_CUSTOM_INTERNAL_get_velocityP12Il2CppObjectP8Vector3f
pgi:_InternalEnumerator_1_MoveNext_m2289229080_AdjustorThunk
hUg:_CipherSuiteCollection_System_Collections_IList_RemoveAt_m143866082
cpi:_Context_get_HasGlobalDynamicSinks_m3205328884
lva:__ZN22VertexDeclarationCacheD0Ev
Xjb:__ZL26KeywordSetToStringDontSortRKNSt3__26vectorIN4core12basic_stringIcNS1_20StringStorageDefaultIcEEEENS_9allocatorIS5_EEEERS5_
Pla:__ZN6prcoreL17RemapGenericFloatI16TexFormatRGFloat17TexFormatRGBAHalfEEvPKNS_9InnerInfoE
OI:__ZN12AudioManager22CreateFMODSoundFromWWWEP10IWWWStream15FMOD_SOUND_TYPE17FMOD_SOUND_FORMATjjbbP10SampleClip
t6b:__ZNK32RendererMaterialAnimationBinding15GenerateBindingERKN4core12basic_stringIcNS0_20StringStorageDefaultIcEEEEbRN11UnityEngine9Animation14GenericBindingE
Kcj:__ZN24dense_hashtable_iteratorINSt3__24pairIK10KeyWrapperINS1_IPK11Il2CppImageP11Il2CppClassEEEjEES9_17ReflectionMapHashIS8_EN14dense_hash_mapIS9_jSD_NS9_14EqualsComparerINS0_8equal_toIS8_EEEENS0_9allocatorISB_EEE9SelectKeyESI_SK_E30advance_past_empty_and_deletedEv
Vwk:__Z40RuntimeInvoker_HandshakeType_t2540099417PFvvEPK10MethodInfoPvPS4_
T0:__ZN8Remapper23GetOrGenerateInstanceIDERK26SerializedObjectIdentifier
Ycg:_StreamWriter_Flush_m3426120024
kBa:__ZN17FileSystemHandler10AtomicMoveER13FileEntryDataS1_
gb:invoke_iiiiiifffiiifii
Cag:_MemoryStream__ctor_m1489366847
ULe:_SecurityElement_IsValidTag_m64902195
JVh:_Enumerator_System_Collections_IEnumerator_get_Current_m229223308_AdjustorThunk
UJh:_PropertyInfo_SetValue_m2961483868
Fqg:_List_1_System_Collections_IList_Contains_m4193366963_gshared
A3i:__ZNSt3__214__split_bufferI6pollfdRNS_9allocatorIS1_EEED2Ev
ich:_DictionaryEnumerator_get_Value_m1915638953
lzh:_ConstructorInfo_Invoke_m2144827141
K0a:__ZN6Sprite8TransferI24GenerateTypeTreeTransferEEvRT_
lak:__ZL77Physics_t634932869_CustomAttributesCacheGenerator_Physics_Raycast_m2519603653P21CustomAttributesCache
Gmc:__Z48Register_UnityEngine_Transform_SetAsFirstSiblingv
N0a:__ZN7SubMesh8TransferI24GenerateTypeTreeTransferEEvRT_
YIh:_MonoProperty_get_CanWrite_m2124922514
mzc:__ZN5physx3Cct10Controller6setPosERKNS_14PxExtendedVec3E
e4i:__ZN6il2cpp6icalls8mscorlib6SystemL16CheckMemberMatchI9FieldInfoNS_5utils10functional6FilterINSt3__212basic_stringIcNS8_11char_traitsIcEENS8_9allocatorIcEEEENS5_13VmStringUtils23CaseInsensitiveComparerEEEEEbPKT_PK11Il2CppClassSN_iRKT0_
tBc:__ZN5physx2GuL14testFaceNormalERKNS0_13PolygonalDataES3_PNS0_12SupportLocalES5_RKNS_6shdfnd3aos15PsMatTransformVESA_RKNS7_6FloatVERSB_RjRNS7_5Vec3VENS0_13FeatureStatusERSI_
qck:__ZL96RemoteSettings_t392466225_CustomAttributesCacheGenerator_RemoteSettings_CallOnUpdate_m1092852243P21CustomAttributesCache
h7k:_poll
oag:_Stream_BeginRead_m1985960185
V_e:_Graphic_UnregisterDirtyVerticesCallback_m1526739224
l4b:__ZN13ProduceHelperI14Texture2DArrayLb0EE7ProduceE18MemLabelIdentifier18ObjectCreationMode
cFi:_UnityAction_1_EndInvoke_m350315359_gshared
Hek:__ZL88TweenRunner_1_t2584777480_CustomAttributesCacheGenerator_TweenRunner_1_Start_m2640577060P21CustomAttributesCache
xRg:_MD4Managed_GG_m1462438360
_Mf:_Array_Resize_TisColor32_t874517518_m2219502085_gshared
Qdc:__ZN9Transform23SetSiblingIndexInternalEib
LPh:_ScrollRect_get_minWidth_m3151814267
BTc:__ZL32GeomOverlapCallback_ConvexConvexRKN5physx10PxGeometryERKNS_11PxTransformES2_S5_PNS_2Gu12TriggerCacheE
z1e:_Graphic_get_canvasRenderer_m2902370808
$u:__ZN7mecanim5human12HumanPoseSubERNS0_9HumanPoseERKS1_S4_
p2k:_Vector3_Max_m2076081170
jRg:_MD4_Create_m2582504069
eLi:_HashSet_1_System_Collections_IEnumerable_GetEnumerator_m2498631708_gshared
dpj:__ZN6il2cpp8metadata15GenericMetadata15GetGenericClassEiPK17Il2CppGenericInst
qcf:_Boolean_System_IConvertible_ToInt16_m977801621
epb:__Z18Transfer_BlittableI14SafeBinaryReadLb0E10Matrix4x4fEvRK29SerializationCommandArgumentsR31RuntimeSerializationCommandInfo
yEb:__Z24GetFixedBehaviourManagerv
dGk:__Z69RuntimeInvoker_Void_t1841601450_Int32_t2071877448_Vector4_t2243707581PFvvEPK10MethodInfoPvPS4_
ANb:__ZN12FlareManager9UpdateJobEP25FlareManagerUpdateJobData
J3i:__ZN6il2cpp2vm10ThreadPool4WaitEP17Il2CppAsyncResultPPv
dWk:_Plane__ctor_m730644932_AdjustorThunk
s5k:_vfprintf
Xoc:__ZN10GUIManager12AddGUIScriptER8ListNodeI13MonoBehaviourE
Efh:_SerializationException__ctor_m1019897788
dNa:__ZN19ShaderPropertySheet20ReservePropertyCountEj
iOb:__ZN20DynamicPropertySheetD0Ev
B_b:__ZN14SafeBinaryRead17RegisterConverterEPKcS1_PFbPvRS_E
zY:__ZN35RegisterRuntimeInitializeAndCleanup8RegisterEPFvPvES2_iS0_
Umd:__ZNK5physx19NpRigidBodyTemplateINS_14PxRigidDynamicEE17getRigidBodyFlagsEv
xok:__Z92RuntimeInvoker_RuntimeObject_Int32_t2071877448_Int32_t2071877448_RuntimeObject_RuntimeObjectPFvvEPK10MethodInfoPvPS4_
ps:__ZN7mecanim6memory16ChainedAllocator7ReserveEj
hbf:_AsyncCallback__ctor_m3071689932
GMg:_ReadOnlyCollection_1_System_Collections_IList_Clear_m2600246370_gshared
XFi:_UnityEvent_1_GetDelegate_m915269642_gshared
MQa:__ZN20SphericalHarmonicsL215AddAmbientLightERK10ColorRGBAf
kEd:__ZN5physx25PxcSweepConvexHeightfieldERKNS_11PxsCCDShapeES2_PKNS_12PxsRigidBodyES5_RKNS_11PxTransformES8_S8_S8_fRNS_6PxVec3ESA_RNS_10PxcNpCacheERNS_18PxcNpThreadContextEf
DHk:__Z62RuntimeInvoker_Int32_t2071877448_ParameterModifier_t1820634920PFvvEPK10MethodInfoPvPS4_
xWf:_DSAManaged_NormalizeArray_m2287089393
Kmc:__Z21Object_CUSTOM_DestroyP12Il2CppObjectf
ihi:_InternalEnumerator_1_System_Collections_IEnumerator_get_Current_m2389982234_AdjustorThunk
Bjb:__ZN8Material26ResetAllCachedMaterialDataEP6Shader
hQh:_Selectable_get_interactable_m1725029500
qIj:__ZL66RuntimeArray_CustomAttributesCacheGenerator_Array_Sort_m3002148658P21CustomAttributesCache
zpe:_UNITY_TT_Get_MM_Var
QVi:__ZN6il2cpp6icalls8mscorlib6System7Decimal13decimal2Int64EP19il2cpp_decimal_reprPx
aa:invoke_diddi
ZTe:_ExecuteEvents__cctor_m288775360
Ere:__ZNK2UI6Canvas13GetRenderModeEv
wpf:_Double_TryParseStringConstant_m2585405703
RHh:_MonoField_get_Attributes_m4138688533
qob:__Z18Transfer_BlittableI14SafeBinaryReadLb0EiEvRK29SerializationCommandArgumentsR31RuntimeSerializationCommandInfo
v2i:__ZN6il2cpp2vm13MetadataCache30GetPropertyDefinitionFromIndexEi
Ski:_ResourceEnumerator__ctor_m1679839941
FGe:_RijndaelTransform_Clear_m1652144089
Yld:__ZN5physx14NpRigidDynamic7releaseEv
R8f:_MonoIO_GetException_m2577367044
Pze:__ZN22BaseUnityConnectClient17InitializeSessionERKN4core12basic_stringIcNS0_20StringStorageDefaultIcEEEES6_N19CloudServiceHandler13InitModeFlagsE
iYh:_Enumerator_MoveNext_m1404007384_gshared
Fhg:_NumberFormatter_get_IsZero_m1325357749
AAd:__ZN5physx6shdfnd8PoolBaseINS_21PxsBodyTransformVault13PxsBody2WorldENS0_19ReflectionAllocatorIS3_EEE15disposeElementsEv
NUk:_Mesh_PrintErrorCantAccessIndices_m2990602703
Ggl:_emscripten_glDeleteBuffers__wrapper
NBk:__Z121RuntimeInvoker_Void_t1841601450_Single_t2076509932_Single_t2076509932_Single_t2076509932_Single_t2076509932_RuntimeObjectPFvvEPK10MethodInfoPvPS4_
Myf:_Enum_ToObject_m322320225
bUh:_Enumerator_get_Current_m2754383612_gshared
Gfc:__ZN13MonoBehaviour34StopCoroutineFromEnumeratorManagedE18ScriptingObjectPtr
yPk:_GameObject_GetComponentInParent_m1178052983
gKe:_X509Certificate__ctor_m3860837120
ghe:_gray_raster_reset
LEk:__Z109RuntimeInvoker_RuntimeObject_Ray_t2469606224_Single_t2076509932_Int32_t2071877448_RuntimeObject_RuntimeObjectPFvvEPK10MethodInfoPvPS4_
BMg:_ReadOnlyCollection_1_System_Collections_Generic_IListU3CTU3E_set_Item_m3663361643_gshared
vHc:__ZN5physx2Gu30computeCapsule_TriangleMeshMTDERKNS_22PxTriangleMeshGeometryERKNS_11PxTransformERNS0_8CapsuleVEffbRNS_10PxSweepHitE
gTe:_EventTrigger_OnScroll_m626934407
Lab:__ZN30RuntimeInitializeOnLoadManager8TransferI18StreamedBinaryReadILb0EEEEvRT_
s1h:_Dictionary_2__ctor_m1206668798_gshared
OBh:_TypeBuilder_not_supported_m3178173643
Rhe:_UNITY_tt_face_load_pclt
_ec:__ZL34GetComponentsImplementationRecurseILb1ELi0ELi2EEbR10GameObjectbRK17CompareParametersRK39GetComponentsImplementation_ReturnValue
Nrd:__ZThn8_N5physx2Sc19ShapeInstancePairLL10onActivateEj
iDj:__ZN6il2cpp6icalls8mscorlib6System9Threading5Mutex20CreateMutex_internalEbP12Il2CppStringPb
Sgf:_ArrayListWrapper_Remove_m1105489978
ENb:__ZNK6Camera18WorldToScreenPointERK8Vector3fPb
BCi:_GUISkin__ctor_m2824039590
qKd:__ZN5physx2Cm12DelegateTaskINS_10PxsContextEXadL_ZNS2_28mergeCMDiscreteUpdateResultsEPNS_10PxBaseTaskEEEE11runInternalEv
GUg:_TlsClientSettings_set_TargetHost_m3421266913
d$d:__ZN5physx19TriangleMeshBuilder10importMeshERKNS_18PxTriangleMeshDescERKNS_15PxCookingParamsEb
Kdk:__ZL109PointerEventData_t1599784723_CustomAttributesCacheGenerator_PointerEventData_get_eligibleForClick_m2497780621P21CustomAttributesCache
Ikf:_HashKeys_CopyTo_m3566668422
Foa:__Z18IsCompressedFormat14GraphicsFormat
sv:__ZN7mecanim9animation19AdjustPoseForMotionERKNS0_14AvatarConstantERKNS0_14SkeletonTQSMapERKN4math4trsXERNS_10ValueArrayERNS_8skeleton13SkeletonPoseTIS8_EESG_
tci:_InternalEnumerator_1_Dispose_m549215360_AdjustorThunk
B1j:__ZL92Input_t1785128008_CustomAttributesCacheGenerator_Input_INTERNAL_get_mousePosition_m655888428P21CustomAttributesCache
Nef:_Convert_ToSByte_m2665932200
d0:__ZNSt3__227__insertion_sort_incompleteIRPFbRKN18AwakeFromLoadQueue4ItemES4_EPS2_EEbT0_S9_T_
JAh:_ILGenerator_label_fixup_m1325994348
QZh:_ValueCollection_System_Collections_ICollection_get_IsSynchronized_m45572582_gshared
z0i:__ZN14dense_hash_mapI10KeyWrapperIN6il2cpp5utils13dynamic_arrayIPK10Il2CppTypeLj4EEEEPFvvENS1_8metadata19Il2CppSignatureHashENS8_14EqualsComparerINSB_22Il2CppSignatureCompareEEENSt3__29allocatorINSG_4pairIKS8_SA_EEEEE15set_deleted_keyERSJ_
OLh:_Navigation_Equals_m4214630671_AdjustorThunk
NJg:_ReadOnlyCollection_1_System_Collections_Generic_IListU3CTU3E_set_Item_m257196015_gshared
omb:__ZNK20LocalFileSystemPosix6ParentERK13FileEntryDataRN4core12basic_stringIcNS3_20StringStorageDefaultIcEEEE
Zed:__ZN5physx6shdfnd5ArrayINS_18PxClothFabricPhaseENS0_19ReflectionAllocatorIS2_EEE8recreateEj
SYa:__ZN26EnlightenSystemInformation8TransferI14SafeBinaryReadEEvRT_
aQf:_Array_InternalArray__get_Item_TisLink_t2723257478_m2281261655_gshared
eBe:__ZN11UnityEngine15PlatformWrapper20SetPlayerPrefsUInt64ERKN4core12basic_stringIcNS1_20StringStorageDefaultIcEEEEy
H4a:__ZN12MeshRendererD0Ev
SP:__ZN12AudioManager35GetCurrentSpatializerDefinitionNameEv
zFc:__ZN5physx2Gu16sweepBoxTriangleERKNS_10PxTriangleERKNS_9PxBounds3ERKNS_6PxVec3ES9_RS7_SA_Rf
dvi:_ExpressionAssertion_IsComplex_m783019628
Kjf:_Hashtable__ctor_m2702360557
Zh:_utime
P$d:__ZN5physx10writeChunkEaaaaRNS_14PxOutputStreamE
wtf:_DateTimeFormatInfo_get_RawAbbreviatedDayNames_m3998113647
O2k:_Vector4_get_sqrMagnitude_m641641704_AdjustorThunk
BC:__Z28SetExposedSkeletonTransformsRKN7mecanim9animation14AvatarConstantERKN11UnityEngine9Animation30AnimatorGenericBindingConstantERKNS_8skeleton13SkeletonPoseTIN4math4trsXEEERKNSA_INSB_7affineXEEERNS5_21AvatarBindingConstantEy
R3h:_DefaultComparer_GetHashCode_m2596628120_gshared
VTj:__ZL94UTF32Encoding_t549530865_CustomAttributesCacheGenerator_UTF32Encoding_GetByteCount_m3183615393P21CustomAttributesCache
WDf:_PlayableHandle_IsPlayableOfType_TisAnimationLayerMixerPlayable_t3057952312_m2522157783_AdjustorThunk
XPg:_PrimalityTest_Invoke_m4058801829
vn:FUNCTION_TABLE_viiiiif
Oeh:_RemotingConfiguration_SetCustomErrorsMode_m1844153208
eo:FUNCTION_TABLE_viiiiii
M5c:__ZN5physx2Sc9RigidCore13onShapeChangeERNS0_9ShapeCoreENS_7PxFlagsINS0_21ShapeChangeNotifyFlag4EnumEjEENS4_INS_11PxShapeFlag4EnumEhEE
UPf:_Array_InternalArray__get_Item_TisChar_t3454481338_m3646615547_gshared
_D:__ZN7mecanim9animation22DestroyAvatarWorkspaceEPNS0_15AvatarWorkspaceERNS_6memory9AllocatorE
s2e:__ZN21InterfaceFuncInvoker0IiE6InvokeEjP11Il2CppClassP12Il2CppObject
wjd:__ZN5physx6shdfnd5ArrayIPvNS0_15InlineAllocatorILj256ENS0_19ReflectionAllocatorINS_2Sc19ParticlePacketShapeEEEEEE15growAndPushBackERKS2_
PGd:__ZN5physx17solveContactBlockEPKNS_23PxcSolverConstraintDescEjRNS_16PxcSolverContextE
Y$d:__ZN5physx6shdfnd10FoundationD2Ev
OUb:__ZN15LightmapSTCacheC2ER13BatchRendererR15RenderLoopStats
toc:__ZNSt3__210__list_impIN10GUIManager12SortedScriptE11memory_poolIS2_EE5clearEv
WVj:__ZL76Convert_t2607082565_CustomAttributesCacheGenerator_Convert_ToInt64_m44696721P21CustomAttributesCache
yVa:__ZN14PlayableOutput17SetSourcePlayableEP8Playable
Dab:__ZNSt3__26vectorIN4core12basic_stringIcNS1_20StringStorageDefaultIcEEEE13stl_allocatorIS5_L18MemLabelIdentifier13ELi16EEE8__appendEj
dfh:_TrackingServices__cctor_m3639412334
qD:__ZN7mecanim9animation29MotionOutputGetDeltaTransformEPKNS0_12MotionOutputE
lLe:_StrongNamePublicKeyBlob_Equals_m2407250401
a_h:_ValueCollection_System_Collections_IEnumerable_GetEnumerator_m1773104428_gshared
jEa:__ZN17GlobalGameManager23VirtualRedirectTransferER19StreamedBinaryWriteILb0EE
dH:__ZN8Animator14OnAddComponentEPN5Unity9ComponentE
Kwg:_List_1_CheckMatch_m1184924052_gshared
cmc:__Z43Transform_CUSTOM_INTERNAL_get_localRotationP12Il2CppObjectP11Quaternionf
XAd:__ZN5physx2Sc10NPhaseCoreD2Ev
yVc:__ZN5physx2Sc7BodySim18onConstraintDetachEv
o7b:__ZZL23RegisterLightPropertiesR22GenericPropertyBindingEN20Wrapper_LightColorr013SetFloatValueEPvf
Ci:_emscripten_glGetTexParameteriv
vtd:__ZN5physx7NpScene8simulateEfPNS_10PxBaseTaskEPvjb
rqg:_List_1_ToArray_m3752387798_gshared
asd:__ZThn8_N5physx2Sc24ElementInteractionMarker10onActivateEj
Pbi:_InternalEnumerator_1_get_Current_m3206960238_gshared
sSg:_RSAManaged_ImportParameters_m3060955884
l_f:_DeriveBytes__ctor_m3089550878
nhg:_NotImplementedException__ctor_m1305569814
sni:_ChannelData_CopyFrom_m4049054607
p2b:__Z13RegisterClassI4MeshEvv
ddk:__ZL94AxisEventData_t1524870173_CustomAttributesCacheGenerator_AxisEventData_get_moveDir_m3968662359P21CustomAttributesCache
XUa:__ZN8PlayableD0Ev
pK:__ZN12AudioManager8TransferI19StreamedBinaryWriteILb0EEEEvRT_
Vag:_WriteDelegate_Invoke_m2103848735
qrg:_List_1_get_Capacity_m4262042666_gshared
Tzi:_X509Crl_get_IssuerName_m756409840
MXh:_Transform_1_EndInvoke_m687617772_gshared
UHi:_Locale_GetText_m512920887
s6b:__ZNK32RendererMaterialAnimationBinding12GetPPtrValueERKN11UnityEngine9Animation10BoundCurveE
qBb:__Z18Transfer_BlittableI18StreamedBinaryReadILb0EELb0E8Vector2fEvRK29SerializationCommandArgumentsR31RuntimeSerializationCommandInfo
A2c:__ZN5physx18NpArticulationLink10clearForceENS_11PxForceMode4EnumE
weh:_RemotingConfiguration_get_ProcessId_m3870172209
jCc:__ZN5physx2Gu30distanceSegmentTriangleSquaredERKNS_6PxVec3ES3_S3_S3_S3_PfS4_S4_
m8k:__ZNSt3__212basic_stringIcNS_11char_traitsIcEENS_9allocatorIcEEE21__grow_by_and_replaceEjjjjjjPKc
Q1f:_SortKey_ToString_m2406913228
Ylb:__ZN22LocalFileSystemHandler9MakeLocalER13FileEntryDatab
Kwj:__ZN6il2cpp2vm8Profiler10AllocationEP12Il2CppObjectP11Il2CppClass
Dof:_Convert_ToDateTime_m1020507389
D2j:__ZL78Sprite_t309593783_CustomAttributesCacheGenerator_Sprite_get_packed_m2366369914P21CustomAttributesCache
_6:__ZNK9HPlayable7IsValidEv
rfe:__ZNSt3__23mapIN20TextRenderingPrivate7FontRefENS1_6OSFontENS_4lessIS2_EENS_9allocatorINS_4pairIKS2_S3_EEEEEixERS8_
PTk:_Material_SetInt_m2847439171
r9:__Z13FormatOrderedPKcz
g4k:_RaycastHit_get_distance_m758224512
P8f:_Path_IsPathRooted_m1347207448
rgh:_ObjectManager_RegisterObjectInternal_m879109503
CBf:_Array_get_swapper_TisVector4_t2243707581_m97441823_gshared
$cd:__ZNK5physx15NpActorTemplateINS_7PxClothEE12getAggregateEv
Gce:__ZN14SafeBinaryRead21TransferSTLStyleArrayI10vector_mapINSt3__24pairIttEEfN20TextRenderingPrivate8FontImpl14KerningCompareENS2_9allocatorINS3_IS4_fEEEEEEEvRT_17TransferMetaFlags
M2b:__Z13RegisterClassI15QualitySettingsEvv
svj:__ZN6il2cpp2vm6String21InitializeEmptyStringEP11Il2CppClass
xUb:__ZN25DeferredRenderLoopScratchD0Ev
wx:__ZN27AnimationLayerMixerPlayable14SetInputWeightEif
Xu:__ZN7mecanim9animation17EvaluateHumanPoseERKNS0_18ClipMuscleConstantERKNS0_15ClipMuscleInputEPKfRKNS0_12MotionOutputERNS_5human9HumanPoseE
_Tj:__ZL90UTF7Encoding_t741406939_CustomAttributesCacheGenerator_UTF7Encoding_GetHashCode_m359766848P21CustomAttributesCache
qSk:_GameObject_AddComponent_m540062519
l7e:_InputField_get_preferredHeight_m4231621064
pDd:__ZNK5physx2Cm12DelegateTaskINS_13PxsCCDContextEXadL_ZNS2_14postCCDAdvanceEPNS_10PxBaseTaskEEEE7getNameEv
Web:__ZN15dense_hashtableINSt3__24pairIKiN4core17string_with_labelILi1EEEEEi18SInt32HashFunctionN14dense_hash_mapIiS5_S7_NS0_8equal_toIiEE13stl_allocatorIS6_L18MemLabelIdentifier1ELi16EEE9SelectKeyESA_SD_E9copy_fromERKSG_j
gJa:__ZN6Camera11ResetAspectEv
Cth:_Type_get_IsGenericType_m3396841573
l9a:__ZN15ResourceManagerD0Ev
e5g:_X509BasicConstraintsExtension_get_HasPathLengthConstraint_m3788532759
cNa:__ZNK17InstancedPropInfo22FillInstancePropertiesER19ShaderPropertySheetjPK17BatchInstanceDatajRK15RenderNodeQueue
dIa:__ZN22CreateGpuProgramOutputD2Ev
pLc:__ZNK5physx3Cct15ObstacleContext14getNbObstaclesEv
Iwb:__Z18Transfer_BlittableI19StreamedBinaryWriteILb0EELb1EsEvRK29SerializationCommandArgumentsR31RuntimeSerializationCommandInfo
OHe:_RSACryptoServiceProvider_EncryptValue_m802714447
PYd:__ZN5physx6shdfnd8PoolBaseINS_11NpAggregateENS0_19ReflectionAllocatorIS2_EEE12allocateSlabEv
tVj:__ZL76Convert_t2607082565_CustomAttributesCacheGenerator_Convert_ToByte_m932798552P21CustomAttributesCache
zP:__ZN13ProduceHelperI13AudioListenerLb0EE7ProduceE18MemLabelIdentifier18ObjectCreationMode
oEi:_InvokableCall_1__ctor_m2021220028_gshared
tUi:_WillRenderCanvases_Invoke_m4267547094
qkd:__ZN5physx7NpScene26removeFromParticleBaseListERNS_14PxParticleBaseE
Cnf:_DateTimeFormatInfo_GetInstance_m3133223810
pPg:_ModulusRing_BarrettReduction_m2802101099
ekd:__ZN5physx23NpParticleFluidReadData18getDataAccessFlagsEv
hlb:__ZN12HandlerChain4OpenER13FileEntryData14FilePermission16FileAutoBehavior
l6h:_EqualityComparer_1_get_Default_m2134906921_gshared
hHh:_MonoMethodInfo_GetParametersInfo_m3456861922
Hbj:__ZN15dense_hashtableINSt3__24pairIK10KeyWrapperINS1_IPK10MethodInfoP11Il2CppClassEEEjEES9_17ReflectionMapHashIS8_EN14dense_hash_mapIS9_jSD_NS9_14EqualsComparerINS0_8equal_toIS8_EEEENS0_9allocatorISB_EEE9SelectKeyESI_SK_E6insertERKSB_
jZh:_ValueCollection_System_Collections_Generic_ICollectionU3CTValueU3E_Remove_m4188992987_gshared
d3:__ZN14FileCacherReadD2Ev
vcb:__ZN13RendererScene23UpdatePreviousFrameDataEii
bIe:_RSAPKCS1SignatureDeformatter_VerifySignature_m1825067195
NZk:_RectTransform_remove_reapplyDrivenProperties_m52143263
gPi:__ZL25UnresolvedVirtualCall_123P12Il2CppObjectffPK10MethodInfo
vhc:__Z50Register_UnityEngine_CullingGroup_FinalizerFailurev
mjg:_KeyValuePair_2_ToString_m2613351884_gshared
ddb:__ZN27UnloadUnusedAssetsOperationD0Ev
oy:__ZN26AnimatorControllerPlayable6MemoryD2Ev
dfk:__ZL69ColorBlock_t2652774230_CustomAttributesCacheGenerator_m_DisabledColorP21CustomAttributesCache
qTg:_CipherSuite_get_Code_m3902213587
YMh:_Scrollbar__ctor_m2244981801
uhh:_ObjectRecord_get_HasPendingFixups_m670959802
PDd:__ZN5physx10PxsCCDPair12updateShapesEv
bWi:_AnimationLayerMixerPlayable__ctor_m678972180
FIe:_SHA256Managed_HashCore_m4111458495
WAf:_CultureInfo_get_CompareInfo_m3085280862
X_j:__ZL89Application_t354826772_CustomAttributesCacheGenerator_Application_get_isEditor_m506138946P21CustomAttributesCache
shh:_ObjectManager_RecordDelayedFixup_m1895730844
anj:__ZNK15dense_hashtableINSt3__24pairIK10KeyWrapperIP14Il2CppIUnknownEjEES5_N6il2cpp5utils11PointerHashIS3_EEN14dense_hash_mapIS5_jSB_NS5_14EqualsComparerINS0_8equal_toIS4_EEEENS0_9allocatorIS7_EEE9SelectKeyESG_SI_E12test_deletedERK24dense_hashtable_iteratorIS7_S5_SB_SK_SG_SI_E
Gsg:_List_1_System_Collections_IList_get_IsFixedSize_m3522184224_gshared
eI:__ZN9AudioClip23VirtualRedirectTransferER18StreamedBinaryReadILb0EE
JVg:_ClientSessionInfo_CheckDisposed_m1394638186
ijh:_SByte_Parse_m2544167007
pib:__ZNSt3__26vectorIPN9ShaderLab9SubShaderENS_9allocatorIS3_EEE21__push_back_slow_pathIKS3_EEvRT_
Owf:_StackFrame_GetILOffset_m115192054
fgd:__ZN5physx2Sc9ClothCore22removeCollisionCapsuleEj
xih:_RuntimeTypeHandle_GetHashCode_m3697629454_AdjustorThunk
MTf:_BigInteger__ctor_m2945783161
tXg:_TlsClientHello_Update_m1723542631
jZk:_RectOffset_set_top_m1587840032
BQj:__ZL96ProxyAttribute_t4031752430_CustomAttributesCacheGenerator_ProxyAttribute_IsContextOK_m2391079277P21CustomAttributesCache
V2f:_IndexOutOfRangeException__ctor_m3497760912
GWc:__ZN5physx16PxsIslandManager25setArticulationLinkHandleEjPvRKNS_20PxsIslandManagerHookIjLj4294967295EEE
jLg:_ReadOnlyCollection_1_CopyTo_m1652036789_gshared
ak:_glCopyTexSubImage2D
oeh:_RealProxy_InternalGetTransparentProxy_m3415358600
B6b:__ZNK24RendererAnimationBinding13GetFloatValueERKN11UnityEngine9Animation10BoundCurveE
UT:__ZNK15DownloadHandler14HasPendingDataEv
Ojl:_glActiveTexture__wrapper
eAg:_Collection_1_Insert_m3594407958_gshared
NTi:_Predicate_1_Invoke_m3001657933_gshared
TZb:__ZN18ScreenManagerWebGL13SetShowCursorEb
Iwj:__ZN6il2cpp6icalls8mscorlib6System7Convert24InternalFromBase64StringEP12Il2CppStringb
IJe:_SymmetricAlgorithm_CreateDecryptor_m4240570785
MSh:_Text_get_preferredWidth_m3352156860
yfk:__ZL87U3CDelayedDestroyDropdownListU3Ec__Iterator0_t3461999471_CustomAttributesCacheGeneratorP21CustomAttributesCache
nyh:_AssemblyCompanyAttribute__ctor_m1217508649
gue:__ZN2UI13CanvasManager14GetRenderOrderEPKNS_6CanvasE
v4c:__ZN5physx6shdfnd5ArrayIPNS_3Scb5ShapeENS0_15InlineAllocatorILj16ENS0_19ReflectionAllocatorIS4_EEEEE15growAndPushBackERKS4_
apb:__Z18Transfer_BlittableI14SafeBinaryReadLb0E5RectTIfEEvRK29SerializationCommandArgumentsR31RuntimeSerializationCommandInfo
gea:__ZN9GfxDevice18InsertCustomMarkerEi
BCe:__ZNK20UnityWebRequestProtoI24UnityWebRequestTransport16AtomicRefCounter14RedirectHelper14ResponseHelper15DownloadHandler13UploadHandler12HeaderHelper14AsyncOperationE14GetUploadBytesEv
RKg:_ReadOnlyCollection_1_System_Collections_Generic_IListU3CTU3E_RemoveAt_m878653284_gshared
qBf:_DateTimeFormatInfo_GetFormat_m3676195179
Nha:__ZN14GfxContextGLES14GetFramebufferEv
Xgl:_emscripten_glGenVertexArrays__wrapper
Aka:__ZN6prcoreL21CreateRemapAnyBlitterE13TextureFormatS0_
WEj:__ZN6il2cpp2os5Event4WaitEjb
Fcc:__ZN17AnimationCurveTplIfE16StripInvalidKeysEv
iIf:_Array_InternalArray__ICollection_Add_TisKeyValuePair_2_t3716250094_m2381539361_gshared
kRk:_InvokableCall_add_Delegate_m1994890856
W_f:_X509Extension_WriteLine_m2850991173
cte:__ZNK2UI6Canvas17GetSortingLayerIDEv
kHj:__ZL40UIntPtr_t_CustomAttributesCacheGeneratorP21CustomAttributesCache
c7i:_il2cpp_method_has_attribute
f2b:__Z13RegisterClassI17GlobalGameManagerEvv
x_a:__ZN8Renderer24SetupNewRendererForSceneEv
djk:__ZL70GridLayoutGroup_t1515633077_CustomAttributesCacheGenerator_m_StartAxisP21CustomAttributesCache
v7i:_il2cpp_type_get_class_or_element_class
bDf:_Array_InternalArray__ICollection_Remove_TisInt64_t909078037_m2653583130_gshared
NRi:_TextGenerator_Populate_Internal_m65392018
Zoh:_Thread_get_ExecutionContext_m922067206
mPf:_BaseInvokableCall_ThrowOnInvalidArg_TisInt32_t2071877448_m2823200566_gshared
Evc:__Z35Transfer_Blittable_FixedBufferFieldI8JSONReadtEvRK29SerializationCommandArgumentsR31RuntimeSerializationCommandInfo
tVg:_RecordProtocol_get_Context_m2688493529
EKa:__ZN4PPtrI7TextureE8TransferI14SafeBinaryReadEEvRT_
kPd:__ZN5physx2Sc8ClothSim16addCollisionMeshEPKNS0_8ShapeSimE
N9b:__ZN14PlayableOutput6HandleEv
f0a:__ZNK6Sprite22GetTypeVirtualInternalEv
COh:_ScrollRect_get_viewport_m3177057249
Zn:FUNCTION_TABLE_iiiiiiiiiiiiii
rxk:__Z100RuntimeInvoker_Void_t1841601450_SByte_t454417549_SByte_t454417549_Int32_t2071877448_SByte_t454417549PFvvEPK10MethodInfoPvPS4_
nUd:__ZN5physx6shdfnd5ArrayIPKNS_10PxsCCDBodyENS0_19ReflectionAllocatorIS4_EEE8recreateEj
p4c:__ZN5physx6shdfnd4sortINS_2Cm19PreallocatingRegionENS0_4LessIS3_EENS0_19ReflectionAllocatorIS3_EEEEvPT_jRKT0_RKT1_j
BBe:__ZN19UnityConnectService18OnPlayerQuitStaticEPS_
lPa:__ZN11Tetrahedron8TransferI24GenerateTypeTreeTransferEEvRT_
f3d:__ZN5Unity10HingeJoint23VirtualRedirectTransferER24GenerateTypeTreeTransfer
Iie:_UNITY_tt_get_cmap_info
WQe:_DecoderExceptionFallback_GetHashCode_m2972426052
Nvb:__Z29Transfer_Blittable_ArrayFieldI24GenerateTypeTreeTransfer5RectTIiEEvRT_R9ArrayInfoRK23StaticTransferFieldInfo
VPa:__ZN16ReflectionProbes8ScheduleEN18ReflectionProbeJob7JobTypeEP15ReflectionProbei
lOf:_Array_swap_TisCustomAttributeTypedArgument_t1498197914_m885124357_gshared
IEg:_Collection_1_IsFixedSize_m3675221982_gshared
dWj:__ZL77Convert_t2607082565_CustomAttributesCacheGenerator_Convert_ToSByte_m883113940P21CustomAttributesCache
Nlg:_Enumerator_MoveNext_m3293920409_AdjustorThunk
Kza:__Z18IsDirectoryCreatedRKN4core12basic_stringIcNS_20StringStorageDefaultIcEEEE
Qmd:__ZN5physx19NpRigidBodyTemplateINS_14PxRigidDynamicEE20setRigidDynamicFlagsENS_7PxFlagsINS_15PxRigidBodyFlag4EnumEhEE
sDh:_GenericTypeParameterBuilder_get_DeclaringType_m1652924692
Zre:__ZN2UI13CanvasManagerD2Ev
Gji:_Comparer_1__cctor_m3112251759_gshared
Rhk:__ZL73ScrollRect_t1199013257_CustomAttributesCacheGenerator_m_VerticalScrollbarP21CustomAttributesCache
o4g:_X509KeyUsageExtension_ToString_m1992050580
Yee:_UNITY_FT_GlyphLoader_Done
Zwh:_ValueType_DefaultEquals_m2245650968
GHk:__Z49RuntimeInvoker_Int32_t2071877448_Byte_t3683104436PFvvEPK10MethodInfoPvPS4_
bni:_ConstructionCall__ctor_m1143766850
u4j:__ZL108DefaultExecutionOrder_t2717914595_CustomAttributesCacheGenerator_DefaultExecutionOrder_get_order_m3383619944P21CustomAttributesCache
Hji:_Comparer_1_System_Collections_IComparer_Compare_m3203078743_gshared
zld:__ZN5physx22NpParticleBaseTemplateINS_16PxParticleSystemENS_16NpParticleSystemEE20setMaxMotionDistanceEf
zWg:_Context_get_RandomSC_m1687420621
M9j:__ZL67GUISkin_t1436893342_CustomAttributesCacheGenerator_m_verticalSliderP21CustomAttributesCache
wHd:__ZN5physx18ComputeSortedListsEPNS_2Cm10BitMapBaseINS_6shdfnd9AllocatorEEEjjPKjPPNS_8SapBox1DES7_PjSB_jRKNS_2Gu4AxesESB_RjSB_SG_RbSH_
jWb:__ZNK21IntermediateRenderers16GetBoundingBoxesEv
wje:_tt_cmap14_char_var_index
oCb:__Z35Transfer_Blittable_FixedBufferFieldI18StreamedBinaryReadILb0EEdEvRK29SerializationCommandArgumentsR31RuntimeSerializationCommandInfo
Rke:_psh_globals_new
Jag:_FileStream_Seek_m950719389
UVe:_StandaloneInputModule_set_allowActivationOnMobileDevice_m2631121618
LMc:__ZN5physx3Ext5JointINS_9PxD6JointENS_24PxD6JointGeneratedValuesEE13setBreakForceEff
Oof:_Decimal_stripStyles_m294582157
Daa:__ZN9GfxDevice20SetMaxBufferedFramesEi
jrg:_List_1_RemoveAll_m4125997475_gshared
IFk:__Z72RuntimeInvoker_Boolean_t3825574718_TypeU26_t1535498077_Int32_t2071877448PFvvEPK10MethodInfoPvPS4_
ypk:__Z98RuntimeInvoker_Void_t1841601450_Int32_t2071877448_Int32_t2071877448_RuntimeObject_SByte_t454417549PFvvEPK10MethodInfoPvPS4_
_M:__ZN24AudioScriptBufferManagerD2Ev
Dal:dynCall_vdd
Nte:__ZN2UIL17UnloadAllCanvasesEv
W$b:__Z23ConvertIntegerToTypePtrIsEbPvR14SafeBinaryRead
mPj:__ZL54_MethodBase_t1935530873_CustomAttributesCacheGeneratorP21CustomAttributesCache
h6h:_EqualityComparer_1__ctor_m99476293_gshared
E$c:__ZNK5physx14NpArticulation17releaseDriveCacheERNS_24PxArticulationDriveCacheE
BPg:_BigInteger_Incr2_m505983313
Tff:_ArrayList_get_Count_m523955479
dsk:__Z96RuntimeInvoker_Void_t1841601450_SByte_t454417549_RuntimeObject_SByte_t454417549_SByte_t454417549PFvvEPK10MethodInfoPvPS4_
nhf:_FixedSizeArrayListWrapper_Remove_m1359458911
JOk:_CameraCallback_Invoke_m2640212610
c0k:_Touch_get_position_m261108426_AdjustorThunk
Ika:__ZN6prcoreL29inner_stretch_rgb565_bilinearEPKNS_9InnerInfoE
Ifd:__ZNK5physx2Sc9ClothCore25getSelfCollisionStiffnessEv
U9i:__ZNK15dense_hashtableINSt3__24pairIK10KeyWrapperINS1_IPK14Il2CppAssemblyP11Il2CppClassEEEjEES9_17ReflectionMapHashIS8_EN14dense_hash_mapIS9_jSD_NS9_14EqualsComparerINS0_8equal_toIS8_EEEENS0_9allocatorISB_EEE9SelectKeyESI_SK_E12test_deletedEj
Qve:__Z33Canvas_Get_Custom_PropWorldCameraP12Il2CppObject
_Rh:_Text_get_mainTexture_m813502234
KEj:__ZN6il2cpp8metadata19Il2CppSignatureHash4HashERKNS_5utils13dynamic_arrayIPK10Il2CppTypeLj4EEE
ITb:__ZNK14RenderSettings19GetFlatAmbientColorEv
aka:__ZN6prcoreL10inner_flipILj4EEEvPhS1_j
Y7a:__ZN18StreamedBinaryReadILb0EE21TransferSTLStyleArrayI10vector_mapIPKN5Unity4TypeE7Hash128NSt3__24lessIS6_EENS8_9allocatorINS8_4pairIS6_S7_EEEEEEEvRT_17TransferMetaFlags
sz:__ZNK27StateMachineBehaviourPlayer15IsSenderEnabledEv
Szg:_Collection_1_System_Collections_ICollection_get_IsSynchronized_m1924133708_gshared
D4e:_InputField_get_shouldHideMobileInput_m3694613599
Chk:__ZL177U3CClickRepeatU3Ec__Iterator0_t4156771994_CustomAttributesCacheGenerator_U3CClickRepeatU3Ec__Iterator0_System_Collections_Generic_IEnumeratorU3CobjectU3E_get_Current_m3444627780P21CustomAttributesCache
Bmc:__Z40Register_UnityEngine_Transform_SetParentv
j_g:_SslClientStream_get_HaveRemoteValidation2Callback_m3555576758
kwk:__Z56RuntimeInvoker_TimeSpan_t3430258949_TimeSpan_t3430258949PFvvEPK10MethodInfoPvPS4_
Y1a:__ZN14Texture2DArray17UploadToGfxDeviceEv
lKg:_ReadOnlyCollection_1_System_Collections_Generic_IListU3CTU3E_Insert_m4216310986_gshared
ZGg:_ReadOnlyCollection_1_System_Collections_Generic_IListU3CTU3E_set_Item_m1532495847_gshared
XL:__Z14FMODMemoryFreePvjPKc
F$j:__ZL103Camera_t189460977_CustomAttributesCacheGenerator_Camera_INTERNAL_CALL_ScreenToViewportPoint_m2554844623P21CustomAttributesCache
b8h:_InternalEnumerator_1_System_Collections_IEnumerator_Reset_m3731327620_AdjustorThunk
Nie:_tt_cmap0_validate
Wdk:__ZL104PointerEventData_t1599784723_CustomAttributesCacheGenerator_PointerEventData_get_worldNormal_m1704987468P21CustomAttributesCache
f3k:_YieldInstruction_t3462875981_marshal_pinvoke_cleanup
e4e:_Image_AddQuad_m1600600902
gme:_cf2_glyphpath_moveTo
rxd:__ZN5physx3Scb4Body9syncStateEv
v8j:__ZL77AudioSourceExtension_t1813599864_CustomAttributesCacheGenerator_m_audioSourceP21CustomAttributesCache
fXe:_AnimationTriggers_set_disabledTrigger_m609579531
OLj:__ZL47File_t1930543328_CustomAttributesCacheGeneratorP21CustomAttributesCache
Qtf:_DateTimeOffset__ctor_m1796624924
eqi:_Identity_get_ChannelSink_m3989446673
dKd:__ZN5physx20SingleAABBUpdateTaskD0Ev
O3c:__ZN5physx12PxsRigidBody23updatePoseDependenciesVERNS_10PxsContextE
sSe:_BaseRaycaster_OnDisable_m1716508791
Wv:__ZN7mecanim23TransformValueArrayLoopEiiiRKN4math4trsXES3_RNS_10ValueArrayEf
Gei:_InternalEnumerator_1_MoveNext_m1741571735_gshared
TXd:__ZN5physx2Gu12TriangleMesh4loadERNS_13PxInputStreamE
qHj:__ZL82Enum_t2459695545_CustomAttributesCacheGenerator_Enum_GetUnderlyingType_m3513899012P21CustomAttributesCache
NAj:_GC_is_heap_ptr
xCg:_Collection_1_IsValidItem_m429993695_gshared
UXg:_TlsServerSettings_set_CertificateRequest_m3419519893
i0k:_TouchScreenKeyboard_Open_m2033426733
SHb:__Z21PlayerStartFirstSceneb
DC:__ZN7mecanim5human10RetargetToEPKNS0_5HumanEPKNS0_9HumanPoseES6_RKN4math4trsXEPS4_PNS_8skeleton13SkeletonPoseTIS8_EESF_
Ov:__ZN7mecanim9animation8SeekClipERKNS0_12StreamedClipERNS0_18StreamedClipMemoryEf
Gth:_Type_get_IsGenericParameter_m161434704
XDh:_MethodBuilder_get_Attributes_m3678061338
Im:_emscripten_glIsTexture
Vgf:_ArrayListWrapper_CopyTo_m793444109
rWj:__ZL79Convert_t2607082565_CustomAttributesCacheGenerator_Convert_ToUInt16_m3265369225P21CustomAttributesCache
nl:_emscripten_glHint
QKk:__Z33RuntimeInvoker_Color32_t874517518PFvvEPK10MethodInfoPvPS4_
npe:_ft_var_readpackeddeltas
_sf:_DateTime_AddMilliseconds_m1813199744_AdjustorThunk
Qih:_SByte_System_IConvertible_ToSByte_m108774324_AdjustorThunk
$Dh:_MethodBuilder_GetParameterCount_m467267889
Ryb:__Z35Transfer_Blittable_FixedBufferFieldI18StreamedBinaryReadILb1EEtEvRK29SerializationCommandArgumentsR31RuntimeSerializationCommandInfo
Zjf:_Hashtable_get_IsSynchronized_m836780937
E7g:_X509ChainStatus_t4278378721_marshal_pinvoke
PAi:_Event_get_isMouse_m540486010
iSg:_RSAManaged__ctor_m1680944437
Lm:_SDL_UpperBlit
WTd:__ZN5physx2Cm12DelegateTaskINS_2Sc5SceneEXadL_ZNS3_13ccdBroadPhaseEPNS_10PxBaseTaskEEEED0Ev
RPa:__Z35GetTextureDecodeValuesWithIntensity16TextureUsageMode17TextureColorSpace10ColorSpacef
Zdf:_Byte_GetHashCode_m2885528842_AdjustorThunk
wbd:__ZNK5physx7NpShape16getContactOffsetEv
rJd:__ZN5physx14PxsAABBManager21processAggregatePairsEPKNS_19AggregateSortedDataE
Aak:__ZL93Physics_t634932869_CustomAttributesCacheGenerator_Physics_Raycast_m3956786387____maxDistance2P21CustomAttributesCache
P_h:_Dictionary_2_OnDeserialization_m2092139626_gshared
g9d:_PxCreateCooking
GEb:__ZN14SafeBinaryRead20OverrideRootTypeNameEPKc
TWi:__ZNK10KeyWrapperIPK22Il2CppGenericParameterE14EqualsComparerINSt3__28equal_toIS2_EEEclERKS3_SA_
h3:__ZN14FileCacherRead16UnlockCacheBlockEj
$Zf:_X509Certificate_GetUnsignedBigInteger_m3491353542
K6c:__ZNK5physx12NpBatchQuery23getFilterShaderDataSizeEv
vsb:__Z18Transfer_BlittableI17RemapPPtrTransferLb1E8Vector3fEvRK29SerializationCommandArgumentsR31RuntimeSerializationCommandInfo
NMj:__ZL57StackBehaviour_t1390406961_CustomAttributesCacheGeneratorP21CustomAttributesCache
hd:_emscripten_glUniform1f
E1i:__ZNK15dense_hashtableINSt3__24pairIK10KeyWrapperIPKcEP11Il2CppClassEES5_N6il2cpp5utils11StringUtils12StringHasherIS4_EEN14dense_hash_mapIS5_S8_SE_NS5_14EqualsComparerINSB_13VmStringUtils21CaseSensitiveComparerEEENS0_9allocatorIS9_EEE9SelectKeyESJ_SL_E12test_deletedERK24dense_hashtable_iteratorIS9_S5_SE_SN_SJ_SL_E
k7d:__ZN5physx7profile11EventBufferINS_24PxDefaultContextProviderENS_6shdfnd6MutexTINS0_26WrapperReflectionAllocatorIhEEEENS0_14ScopedLockImplIS7_EENS_24PxProfileNullEventFilterEE10doAddEventINS0_17RelativeStopEventEEEvhtRKT_
xfe:__Z20ParseImageParametersR11UTF16StringRiRN20TextRenderingPrivate16TextFormatChangeE
uVk:_NativeClassAttribute__ctor_m3728148471
md:_emscripten_glUniform1i
Jci:_InternalEnumerator_1_System_Collections_IEnumerator_Reset_m651165750_AdjustorThunk
jub:__Z18Transfer_BlittableI24GenerateTypeTreeTransferLb1EN4math12int3_storageEEvRK29SerializationCommandArgumentsR31RuntimeSerializationCommandInfo
jZ:__Z33UnregisterDeviceEventCallbackImplPFv23UnityGfxDeviceEventTypeE
XSd:__ZN5physx2Sc19ShapeInstancePairLL23postIslandGenSecondPassEv
q4d:__ZN14PhysicsManager23VirtualRedirectTransferER19StreamedBinaryWriteILb0EE
zgb:__ZN9ShaderLab16SerializedTagMapaSERKS0_
iEf:_SetPropertyUtility_SetStruct_TisFillMethod_t1640962579_m1867757822_gshared
oS:__ZN11UnityEngine15CloudWebService16SessionContainer20RestoreSessionHeaderERKN4core12basic_stringIcNS2_20StringStorageDefaultIcEEEES8_RNS0_13SessionHeaderE
q8d:__ZN5physx26PxPhysicsInsertionCallbackD2Ev
VCe:__ZN22UnityWebRequestManager13BackendRetainEv
Idc:__ZN8Material28ApplyMaterialPropertyDrawersEv
GCd:__ZN5physx2Sq16BucketPrunerCore12updateObjectERKNS_9PxBounds3ERKNS0_13PrunerPayloadE
iSd:__ZN5physx18PxsDynamicsContext23atomIntegrationParallelEfPKPNS_11PxsBodyCoreEPKPNS_12PxsRigidBodyEjPKNS_2Cm13SpatialVectorEPNS_13PxcSolverBodyEPNS_17PxcSolverBodyDataEPSA_RjSI_RNS_10PxBaseTaskE
xXi:__ZN24dense_hashtable_iteratorINSt3__24pairIK10KeyWrapperIPK22Il2CppGenericParameterEP11Il2CppClassEES6_N6il2cpp5utils11PointerHashIS4_EEN14dense_hash_mapIS6_S9_SE_NS6_14EqualsComparerINS0_8equal_toIS5_EEEENS0_9allocatorISA_EEE9SelectKeyESJ_SL_E30advance_past_empty_and_deletedEv
OD:__ZN11UnityEngine9Animation27CreateAvatarBindingConstantER9TransformPKN7mecanim9animation14AvatarConstantERNS3_6memory9AllocatorE
N0j:__ZL77Gradient_t3600583008_CustomAttributesCacheGenerator_Gradient_Init_m3042650694P21CustomAttributesCache
Pvh:_UInt64_System_IConvertible_ToDateTime_m2412118561
Ufc:__ZN9BlobWriteC2ER13dynamic_arrayIhLj16EE24TransferInstructionFlags19BuildTargetPlatform
Dyh:_AssemblyName_get_Version_m3495645648
r1:__ZN14MessageHandler3GetEv
Ad:_emscripten_glAttachShader
cJg:_ReadOnlyCollection_1__ctor_m1539890895_gshared
Caa:__ZN9GfxDevice13SetActiveTierE12GraphicsTier
xkg:_Enumerator_System_Collections_IEnumerator_get_Current_m3079057684_AdjustorThunk
rDf:_Array_InternalArray__ICollection_Remove_TisSingle_t2076509932_m2568053761_gshared
F6a:__ZNSt3__26vectorIN4core12basic_stringIcNS1_20StringStorageDefaultIcEEEENS_9allocatorIS5_EEE6assignIPS5_EENS_9enable_ifIXaasr21__is_forward_iteratorIT_EE5valuesr16is_constructibleIS5_NS_15iterator_traitsISC_E9referenceEEE5valueEvE4typeESC_SC_
RWf:_KeyPairPersistence_get_UserPath_m3433052783
WIc:__ZN5physx2Gu19GetRaycastFuncTableEv
xBg:_Collection_1_ClearItems_m1410275009_gshared
VLk:__Z36RuntimeInvoker_Enumerator_t975728254PFvvEPK10MethodInfoPvPS4_
KGj:__ZL58Decimal_t724701077_CustomAttributesCacheGenerator_MinusOneP21CustomAttributesCache
nFf:_Array_InternalArray__IEnumerable_GetEnumerator_TisKeyframe_t1449471340_m3949799719_gshared
Job:__Z18Transfer_BlittableI14SafeBinaryReadLb0E11QuaternionfEvRK29SerializationCommandArgumentsR31RuntimeSerializationCommandInfo
pji:_Comparer_1__ctor_m3855093372_gshared
PSd:__ZN5physx17EdgeChangeManager23cleanupBrokenEdgeEventsEPKNS_4EdgeE
YBb:__Z18Transfer_BlittableI18StreamedBinaryReadILb0EELb1E12PropertyNameEvRK29SerializationCommandArgumentsR31RuntimeSerializationCommandInfo
z5e:_InputField_get_inputType_m2187991661
LW:_tlsf_walk_heap
zZf:_PKCS12_Decode_m731190390
iij:__ZNK15dense_hashtableINSt3__24pairIK10KeyWrapperIP11Il2CppClassES4_EES5_N6il2cpp8metadata16SZArrayClassHashEN14dense_hash_mapIS5_S4_SA_NS5_14EqualsComparerINS9_19SZArrayClassCompareEEENS0_9allocatorIS7_EEE9SelectKeyESE_SG_E10test_emptyERK24dense_hashtable_iteratorIS7_S5_SA_SI_SE_SG_E
KBi:_GUIContent_set_image_m3266329364
jei:_InternalEnumerator_1_get_Current_m1550231132_gshared
rui:_Reference_get_IgnoreCase_m2810892634
dxh:_Version_CheckedSet_m76493673
wb:invoke_vif
F6h:_U3CGetEnumeratorU3Ec__Iterator0_Dispose_m2403602883_gshared
xb:invoke_vid
w8k:__ZNSt3__212basic_stringIcNS_11char_traitsIcEENS_9allocatorIcEEE6insertEjPKc
yTj:__ZL67UnverifiableCodeAttribute_t765455733_CustomAttributesCacheGeneratorP21CustomAttributesCache
mTk:_ExcludeFromDocsAttribute__ctor_m969773394
yb:invoke_vii
dNb:__ZNK12ImageFilters8DoRenderER17ShaderPassContextP13RenderTextureS3_RKNSt3__26vectorI11ImageFilterNS4_9allocatorIS6_EEEE
Kvd:__ZN5physx13NpVolumeCacheD2Ev
Uhk:__ZL82ScrollRect_t1199013257_CustomAttributesCacheGenerator_m_HorizontalScrollbarSpacingP21CustomAttributesCache
x3f:_Int16_System_IConvertible_ToUInt32_m883204517_AdjustorThunk
vya:__ZN12TLSAllocatorI14StackAllocatorE16ThreadInitializeEP13BaseAllocator
rgf:_ArrayList_Sort_m2778059513
bba:__ZN9GfxDevice32UpdateStereoViewProjectionMatrixE21MonoOrStereoscopicEye
kZd:__ZN5physx6shdfnd4sortIPvNS0_4LessIS2_EENS0_19ReflectionAllocatorIN17PxcPoolMallocData10PoolData16EEEEEvPT_jRKT0_RKT1_j
PJb:__ZN15dense_hashtableINSt3__24pairIKN4core12basic_stringIcNS2_20StringStorageDefaultIcEEEEP20ArchiveStorageReaderEES6_20StringHash32FunctionIS6_EN14dense_hash_mapIS6_S9_SC_NS0_8equal_toIS6_EE13stl_allocatorISA_L18MemLabelIdentifier55ELi16EEE9SelectKeyESF_SI_E12resize_deltaEjj
KPd:__ZThn8_N5physx2Sc35ParticleElementRbElementInteraction12onDeactivateEj
X2e:_LayoutGroup_SetChildAlongAxis_m2732017156
Xue:__Z41CanvasRenderer_CUSTOM_DisableRectClippingP12Il2CppObject
$Qg:_MD2_Create_m539024737
ulf:_SortedList_get_SyncRoot_m3299704254
BFd:__ZN5physx16PxsThreadContextC2EPNS_10PxsContextE
Wlf:_Slot_t2267560602_marshal_pinvoke
tyk:__Z112RuntimeInvoker_Void_t1841601450_RuntimeObject_Int32_t2071877448_Int32_t2071877448_RuntimeObject_SByte_t454417549PFvvEPK10MethodInfoPvPS4_
bdh:_SoapAttribute_get_XmlNamespace_m1436066016
MCa:__ZN25SingleBlockMemoryFileDataD0Ev
Fya:__ZNSt3__26vectorI14ConstantStringNS_9allocatorIS1_EEE6assignINS_11__wrap_iterIPS1_EEEENS_9enable_ifIXaasr21__is_forward_iteratorIT_EE5valuesr16is_constructibleIS1_NS_15iterator_traitsISA_E9referenceEEE5valueEvE4typeESA_SA_
nzc:__ZN5physx3Cct10Controller4moveERNS0_11SweptVolumeERKNS_6PxVec3EffRKNS_19PxControllerFiltersEPKNS_17PxObstacleContextEb
jS:__ZN11UnityEngine15CloudWebService16SessionContainer21ConvertFromFolderTimeERKN4core12basic_stringIcNS2_20StringStorageDefaultIcEEEEPjPt
bnd:__ZN5physx14NpRigidDynamic17setAngularDampingEf
uqb:__ZNSt3__26vectorI8GUIStyle13stl_allocatorIS1_L18MemLabelIdentifier1ELi16EEE7reserveEj
$jj:__ZN6il2cpp6icalls8mscorlib6System9Threading6Thread27GetSerializedCurrentCultureEP12Il2CppThread
vHf:_Array_InternalArray__IndexOf_TisUInt32_t2149682021_m3231515987_gshared
CHi:_ListPool_1__cctor_m709904475_gshared
h4b:__Z31CalculateHierarchyTransformType23TransformAccessReadOnly
F2b:__Z13RegisterClassI11TimeManagerEvv
OL:__ZN4FMOD8ChannelI11setPositionEjj
Jtk:__Z43RuntimeInvoker_Boolean_t3825574718_IntPtr_tPFvvEPK10MethodInfoPvPS4_
kUi:_Canvas_get_targetDisplay_m150918273
jmd:__ZN5physx15NpActorTemplateINS_14PxRigidDynamicEE17setDominanceGroupEh
Iyj:_GC_set_fl_marks
mYc:__ZN5physx6shdfnd8PoolBaseINS_2Sc12SimStateDataENS0_19ReflectionAllocatorIS3_EEE17releaseEmptySlabsEv
eba:__ZN9GfxDevice17SetStereoViewportE15StereoscopicEyeRK5RectTIiE
r8:__ZN17BaseObjectManager13StaticDestroyEPv
yuf:_DBNull_System_IConvertible_ToChar_m3344298044
cDc:__ZN5physx2Gu22closestPtPointTriangleEPNS_6shdfnd3aos5Vec3VES4_S4_Rj
h6c:__ZN5physx2Cm8PtrTableC2Ev
Sqi:_LinkStack_Push_m2660199875
HK:__ZN4FMOD6Reverb13setPropertiesEPK22FMOD_REVERB_PROPERTIES
Whd:__ZNK5physx22NpParticleBaseTemplateINS_15PxParticleFluidENS_15NpParticleFluidEE14getRestitutionEv
ROb:__ZN9DepthPass13PrepareSubsetEjRK10RenderNodeifRK17ShaderReplaceData
LId:__ZN5physx16PxsBroadPhaseMBP6updateEjjRKNS_23PxcBroadPhaseUpdateDataEPNS_10PxBaseTaskE
X9c:__ZN5physx9NpPhysics18createRigidDynamicERKNS_11PxTransformE
bTc:__ZN5physx6shdfnd5ArrayIPvNS0_19ReflectionAllocatorINS_2Sc18TriggerInteractionEEEE15growAndPushBackERKS2_
Uxi:_X509CertificateCollection_Add_m4008705157
tch:_MonoMethodMessage_set_Uri_m3218581120
s1j:__ZL108TouchScreenKeyboard_t601950206_CustomAttributesCacheGenerator_TouchScreenKeyboard_Open_m2033426733____alert5P21CustomAttributesCache
xLi:_AudioMixerPlayable_GetHandle_m3697423575_AdjustorThunk
Zbc:__Z35SetMeshComponentFromArrayFromScriptR4Mesh30InternalScriptingShaderChannel34InternalScriptingVertexChannelTypei17ScriptingArrayPtri
cdc:__Z18ExtractTagThrowingR11ICallString
yMa:__ZN4PPtrI6ShaderE8TransferI19StreamedBinaryWriteILb0EEEEvRT_
QBg:_Collection_1_IsFixedSize_m1816795498_gshared
wGc:__ZN5physx2Gu17intersectRayAABB2ERKNS_6shdfnd3aos5Vec3VES5_S5_S5_RKNS2_6FloatVERS6_S9_
cr:__ZN4core20StringStorageDefaultIcE6assignEPKcj
usk:__Z111RuntimeInvoker_Void_t1841601450_RuntimeObject_SByte_t454417549_ObjectU26_t597476745_HeaderU5BU5DU26_t2818328198PFvvEPK10MethodInfoPvPS4_
dbd:__ZNK5physx7NpShape17getSphereGeometryERNS_16PxSphereGeometryE
yIc:__ZL18intersectAnyVsMeshILi1EEbPKN5physx2Gu6SphereEPKNS1_7CapsuleEPKNS1_3BoxERKNS1_13RTreeMidphaseERKNS0_11PxTransformERKNS0_11PxMeshScaleEP14LimitedResults
dqj:__ZN15dense_hashtableINSt3__24pairIK10KeyWrapperIP12Il2CppObjectEN6il2cpp2gc9CachedCCWEEES5_NS7_5utils11PointerHashIS3_EEN14dense_hash_mapIS5_S9_SD_NS5_14EqualsComparerINS0_8equal_toIS4_EEEENS0_9allocatorISA_EEE9SelectKeyESI_SK_E3endEv
EVe:_MouseButtonEventData_ReleasedThisFrame_m482758300
C_k:_SceneManager_Internal_SceneLoaded_m1729738062
Pgj:__ZN15dense_hashtableINSt3__24pairIK10KeyWrapperINS1_IP11Il2CppClassjEEES4_EES6_N6il2cpp8metadata14ArrayClassHashEN14dense_hash_mapIS6_S4_SB_NS6_14EqualsComparerINSA_17ArrayClassCompareEEENS0_9allocatorIS8_EEE9SelectKeyESF_SH_E9copy_fromERKSK_j
uWc:__ZN5physx6shdfnd5ArrayIPvNS0_15InlineAllocatorILj256ENS0_19ReflectionAllocatorINS_2Cm5BlockIhLj128EEEEEEEE15growAndPushBackERKS2_
shf:_ReadOnlyArrayListWrapper_set_Item_m2199017141
_Xb:__ZN6Camera6SetFarEf
Pxi:_DeriveBytes_DeriveIV_m3343375195
fge:_UNITY_FT_Init_Class_ft_bitmap_glyph_class
vHe:_RNGCryptoServiceProvider_GetBytes_m167497991
qla:__ZN6prcoreL12RemapGenericI17TexFormatABGR888817TexFormatARGB8888EEvPKNS_9InnerInfoE
XDa:__ZN11GameManager17MainThreadCleanupEv
XCg:_Collection_1_GetEnumerator_m1417525918_gshared
Cwe:__Z50Register_UnityEngine_UISystemProfilerApi_EndSamplev
eAk:__Z60RuntimeInvoker_Boolean_t3825574718_PlayableOutput_t988259697PFvvEPK10MethodInfoPvPS4_
wBh:_TypeBuilder_get_Assembly_m492491492
_b:invoke_vffff
KDg:_Collection_1_InsertItem_m1225429801_gshared
zTg:_CipherSuite_set_Context_m4127897124
Hdd:__ZNK5physx7NpCloth24getParticleAccelerationsEPNS_6PxVec4E
doe:_UNITY_tt_slot_init
IKb:__ZZ23InitPlayerLoopCallbacksvEN41PostLateUpdateUpdateResolutionRegistrator7ForwardEv
vFe:_HMACSHA512__cctor_m1167457383
EDb:__Z25scripting_array_class_get17ScriptingClassPtrj
Gtc:__ZL22Transfer_ManagedObjectI9JSONWriteLb1EEvRK29SerializationCommandArgumentsR31RuntimeSerializationCommandInfo
OH:__ZNK10SampleClip22GetTypeVirtualInternalEv
jca:__ZN9GfxDevice20DestroyRenderSurfaceER12ObjectHandleI17RenderSurface_TagP17RenderSurfaceBaseE
h9:__ZN18SpriteAtlasManagerC2Ev
j1b:__ZL24PrepareSpriteRenderNodesILb1EEvR35RenderNodeQueuePrepareThreadContext
Vua:__ZN9GfxDevice22UpdateComputeResourcesEjPK9TextureIDPK16TextureDimensionPKijPKjjPK15ComputeBufferIDS7_PK20ComputeBufferCounterjSC_S2_S5_S9_SF_
eHa:__ZN12_GLOBAL__N_15qAsinEff
HOf:_Dictionary_2_Do_ICollectionCopyTo_TisKeyValuePair_2_t3749587448_m2536766696_gshared
wya:__ZN12TLSAllocatorI14StackAllocatorE13ThreadCleanupEv
oI:__Z18GetAudioManagerPtrv
wGf:_Array_IndexOf_TisRuntimeObject_m1815604637_gshared
ong:_List_1_GetEnumerator_m2837081829_gshared
swj:__ZThn4_N6il2cpp2vm13ComObjectBase16MarshalInterfaceEP13Il2CppIStreamRK10Il2CppGuidPvjS7_j
j3a:__ZN4Mesh27SwizzleVertexColorsIfNeededEb
pGb:__Z27FindActiveTransformWithPathPKc
wrd:__ZN5physx16PxsIslandManager14setEdgeRigidCMERKNS_20PxsIslandManagerHookIjLj4294967295EEEPNS_17PxsContactManagerE
iGa:__ZN12BaseRendererD0Ev
N$b:__Z29StdTemplateConversionFunctionIbyEbPvR14SafeBinaryRead
tRa:__ZN7Texture5ResetEv
p$c:__ZN5physx14NpArticulation25setStabilizationThresholdEf
eXk:_PropertyName_op_Inequality_m2830582941
d$f:_SecurityParser_OnEndElement_m2909940377
kXd:__ZN5physx2Gu11HeightField7releaseEv
ick:__ZL92CanvasRenderer_t261436805_CustomAttributesCacheGenerator_CanvasRenderer_set_cull_m3941605148P21CustomAttributesCache
IGa:__ZNK6Camera7GetNearEv
yoa:__ZN7ApiGLES11UnmapBufferEjN2gl12BufferTargetE
Cwj:__ZN6il2cpp5utilsL24Utf32CharToSurrogatePairEjRA2_Ds
CXa:__Z25GetNextAllowedTextureSizeib13TextureFormat
hGb:__ZN20LocalFileSystemWebGL4CopyER13FileEntryDataS1_
csg:_List_1_CheckIndex_m4231572822_gshared
KU:__ZN19CloudServiceHandler6RetainEv
wEj:__ZN6il2cpp2os9Semaphore4WaitEb
$Le:_StrongName_Equals_m67226644
Bpc:__Z36Event_CUSTOM_Internal_SetNativeEventPv
hHa:__ZN12BaseRenderer20FlattenToRenderQueueER15RenderNodeQueueRK20DeprecatedSourceData
yCh:_FieldBuilder_get_Attributes_m2174064290
lPd:__ZN5physx2Sc8ClothSim23addCollisionHeightfieldEPKNS0_8ShapeSimE
teg:_UnmanagedMemoryStream_get_Length_m587008850
vdb:__Z34scripting_liveness_calculation_endPv
rnc:__ZNK19RectangleCellLayout13GetCellCenterEv
cuj:__ZN6il2cpp2os6ThreadC2Ev
OMe:_SecurityFrame_InitFromRuntimeFrame_m45195821
gMj:__ZL53TextReader_t1561828458_CustomAttributesCacheGeneratorP21CustomAttributesCache
s6g:_X509Chain_IsSignedWith_m292245392
iv:__ZN21AnimationClipPlayable22ProcessAnimationNoClipEPK35AnimationPlayableEvaluationConstantPK32AnimationPlayableEvaluationInputP33AnimationPlayableEvaluationOutput
_rj:__ZNK6il2cpp2os10SocketImpl12GetLastErrorEv
YCf:_Array_InternalArray__ICollection_Remove_TisDateTime_t693205669_m1275668216_gshared
O$h:_Dictionary_2__ctor_m871840915_gshared
gJg:_ReadOnlyCollection_1_System_Collections_Generic_ICollectionU3CTU3E_Remove_m3751131234_gshared
gvc:__Z18Transfer_BlittableI8JSONReadLb0E8Vector3fEvRK29SerializationCommandArgumentsR31RuntimeSerializationCommandInfo
wni:_ChannelServices__cctor_m3534779830
qij:__ZN6il2cpp2vm6Thread6DetachEP12Il2CppThread
oZk:_RectOffset_Finalize_m816260249
P0k:_Transform_set_localRotation_m3053695533
dke:_Render_Single_Pass
Gpf:_Convert_ToInt16_m416789348
V2c:__ZNK5physx18NpArticulationLink13isSubordinateEv
YNi:__ZL24UnresolvedVirtualCall_59P12Il2CppObjectS0_aPK10MethodInfo
LJi:_EqualityComparer_1__cctor_m2666196678_gshared
gOc:__GLOBAL__sub_I_runtime_dynamics_2_cpp
j6i:_il2cpp_class_get_name
EUh:_Enumerator_get_CurrentValue_m3147984131_AdjustorThunk
UD:__ZN7mecanim8skeleton30SkeletonBuildReverseIndexArrayEPiPKiPKNS0_8SkeletonES6_
QUk:_Mesh_CheckCanAccessSubmeshTriangles_m2644388378
Gnc:__Z19GetGUIBlendMaterialv
rBk:__Z69RuntimeInvoker_Boolean_t3825574718_TextGenerationSettings_t2543476768PFvvEPK10MethodInfoPvPS4_
xsj:__ZN6il2cpp2os10ThreadImpl5SleepEjb
Thi:_InternalEnumerator_1_System_Collections_IEnumerator_Reset_m3669601605_AdjustorThunk
ZHd:__ZN5physx14SapPairManager12shrinkMemoryEv
lAi:_X509ExtensionCollection_System_Collections_IEnumerable_GetEnumerator_m2600902401
vEg:_Collection_1_InsertItem_m1073626529_gshared
_F:__ZN19StreamedBinaryWriteILb0EE21TransferSTLStyleArrayI22OffsetPtrArrayTransferIN7mecanim5human6HandleEEEEvRT_17TransferMetaFlags
y$d:__ZN5physx6shdfnd8internal7median3IjKNS_19SortBoundsPredicateEEEvPT_iiRT0_
I5h:_EqualityComparer_1_System_Collections_IEqualityComparer_Equals_m2389655864_gshared
S0h:_Dictionary_2_System_Collections_Generic_IEnumerableU3CSystem_Collections_Generic_KeyValuePairU3CTKeyU2CTValueU3EU3E_GetEnumerator_m3968773920_gshared
x0g:_ListDictionary_FindEntry_m432748847
xgl:_glBindSampler__wrapper
X3k:_Physics_RaycastAll_m3853279464
NDa:__ZNSt3__26vectorIN20ArchiveStorageHeader12StorageBlockE13stl_allocatorIS2_L18MemLabelIdentifier55ELi16EEE8__appendEj
gg:_emscripten_set_mouseup_callback
Feb:__Z14resize_trimmedINSt3__26vectorIN9ShaderLab14SerializedPassENS0_9allocatorIS3_EEEEEvRT_j
Kua:__ZN9GfxDevice27SetRandomWriteTargetTextureEi9TextureID
jEk:__Z58RuntimeInvoker_Boolean_t3825574718_SpriteState_t1353336012PFvvEPK10MethodInfoPvPS4_
iud:__ZN5physx7NpScene22removeBroadPhaseRegionEj
Eca:__ZN9GfxDevice47SwitchColorRenderSurfaceOutOfFastMemoryPlatformEP17RenderSurfaceBaseb
uTc:__ZL34GeomOverlapCallback_CapsuleCapsuleRKN5physx10PxGeometryERKNS_11PxTransformES2_S5_PNS_2Gu12TriggerCacheE
pPf:_BaseInvokableCall_ThrowOnInvalidArg_TisColor_t2020392075_m3638385415_gshared
XZb:__ZNK18ScreenManagerWebGL8GetWidthEv
qtd:__ZNK5physx7NpScene23getFilterShaderDataSizeEv
wMi:_AudioExtensionManager_GetListenerSpatializerExtensionEditorType_m165088149
q2i:__ZN6il2cpp2vm13MetadataCache33GetFieldDefaultValueDataFromIndexEi
E2e:_GridLayoutGroup_set_startAxis_m1635162426
LH:__ZN10SampleClipD2Ev
bqi:_SynchronizationAttribute_EnterContext_m2984912761
BHj:__ZL73Enum_t2459695545_CustomAttributesCacheGenerator_Enum_ToObject_m2601523252P21CustomAttributesCache
hBf:_CultureInfo_construct_internal_locale_from_name_m971766383
wsj:__ZN6il2cpp2os10ThreadImpl13SetWaitObjectEPNS0_5posix15PosixWaitObjectE
$df:_Byte_Equals_m368616327_AdjustorThunk
Ocb:__Z13GetGISettingsv
_If:_Array_InternalArray__ICollection_Add_TisUIVertex_t1204258818_m3869382594_gshared
uU:__ZN11UnityEngine15CloudWebService20WebRequestRestClientC2Ev
zne:_cff_cmap_unicode_init
NMb:__ZNSt3__224__buffered_inplace_mergeIRN10vector_mapIiN17InstancedPropInfo12PropertyTypeENS_4lessIiEE13stl_allocatorINS_4pairIiS3_EEL18MemLabelIdentifier1ELi16EEE13value_compareENS_11__wrap_iterIPS8_EEEEvT0_SH_SH_T_NS_15iterator_traitsISH_E15difference_typeESL_PNSK_10value_typeE
Byf:_Enum_ToObject_m2460371738
JUf:_PrimalityTests_Test_m1088386156
k3:__ZN14FileCacherRead13GetFileLengthEv
T2k:_Vector4_SqrMagnitude_m1060560279
X6k:_readlink
nti:_ExpressionAssertion__ctor_m2408911632
kNf:_Array_Resize_TisVector3_t2243707580_m893658391_gshared
gai:_InternalEnumerator_1_System_Collections_IEnumerator_get_Current_m4259662004_AdjustorThunk
IQf:_Array_InternalArray__get_Item_TisKeyframe_t1449471340_m1003508933_gshared
QDj:__ZN6il2cpp2os13SemaphoreImplC2Eii
V5j:__ZL123UnitySynchronizationContext_t1205147244_CustomAttributesCacheGenerator_UnitySynchronizationContext_ExecuteTasks_m1920809885P21CustomAttributesCache
juk:__Z50RuntimeInvoker_Double_t4078015681_Int64_t909078037PFvvEPK10MethodInfoPvPS4_
tZf:_StrongName_get_PublicKeyToken_m1968460885
Q5a:__ZNK6Sprite9GetBoundsE8Vector2fbb
eKa:__ZNK19RenderEventsContext21CleanupCommandBuffersEv
Wfa:__ZN11ContextGLES6CreateEi
YHc:__ZN5physx6shdfnd5ArrayINS_10PxTriangleENS0_19ReflectionAllocatorIS2_EEE15growAndPushBackERKS2_
Z7f:_BinaryReader_Dispose_m4249456877
Rqi:_LinkStack__ctor_m3522110517
Lof:_Double_ToString_m1085043609
MCb:__Z19TransferField_ArrayI18StreamedBinaryReadILb0EE27Converter_SimpleNativeClassI17AnimationCurveTplIfEEEvRK23StaticTransferFieldInfoR31RuntimeSerializationCommandInfoRT0_
DTg:_CipherSuite_createEncryptionCipher_m1926075645
cWk:_Plane__ctor_m730644932
$xa:__ZN14StackAllocator16FrameMaintenanceEb
oDc:__ZL11SweepBoxBoxPKN5physx3Cct9SweepTestEPKNS0_11SweptVolumeEPKNS0_11TouchedGeomERKNS_14PxExtendedVec3ERKNS_6PxVec3ERNS0_12SweptContactE
eAa:__Z18ReadStringFromFilePN4core17string_with_labelILi1EEERKNS_12basic_stringIcNS_20StringStorageDefaultIcEEEE
T3:__ZNK10GameObject20QueryComponentByTypeEPKN5Unity4TypeE
_Ai:_GUISkin_MakeCurrent_m1547433985
Clg:_Enumerator_MoveNext_m1367380970_AdjustorThunk
PEh:_OpCode_GetHashCode_m2974727122
I4k:_roulete__ctor_m3923061219
ETg:_CipherSuite_createDecryptionCipher_m1118350455
Xri:_PatternCompiler_EmitReference_m1381860071
rxf:_Double_System_IConvertible_ToInt16_m4200640326
NWa:__ZN11TextureData5ResetEv
Y3j:__ZL105RectTransform_t3349966182_CustomAttributesCacheGenerator_RectTransform_INTERNAL_get_anchorMin_m3722367822P21CustomAttributesCache
dic:__Z53Register_UnityEngine_GameObject_get_activeInHierarchyv
ADh:_GenericTypeParameterBuilder_get_IsGenericType_m1883522222
K9:__ZN15dense_hashtableINSt3__24pairIKN4core12basic_stringIcNS2_20StringStorageDefaultIcEEEE13dynamic_arrayI4PPtrI6SpriteELj4EEEES6_20StringHash32FunctionIS6_EN14dense_hash_mapIS6_SC_SF_NS0_8equal_toIS6_EE13stl_allocatorISD_L18MemLabelIdentifier81ELi16EEE9SelectKeyESI_SL_EC2ERKSO_j
d$:__ZL30InitializeCoreScriptingClassesv
GEg:_Collection_1_CheckWritable_m3938993573_gshared
ch:_glBlitFramebuffer
oBa:__ZN17ArchiveFileSystem5TouchER13FileEntryData
wyc:__ZNK5physx3Cct13BoxController13getStepOffsetEv
cYg:_SecurityParameters_set_Cipher_m3888132335
RUf:_BigInteger_GeneratePseudoPrime_m2606361440
muf:_DateTimeFormatInfo_get_ShortTimePattern_m20923983
gsb:__Z35Transfer_Blittable_SingleValueFieldI14SafeBinaryReadhEvRT_R17GeneralMonoObjectRK23StaticTransferFieldInfo
$gk:__ZL140U3CMouseDragOutsideRectU3Ec__Iterator1_t2599668326_CustomAttributesCacheGenerator_U3CMouseDragOutsideRectU3Ec__Iterator1_Dispose_m2134284531P21CustomAttributesCache
Lhd:__ZN5physx22NpParticleBaseTemplateINS_15PxParticleFluidENS_15NpParticleFluidEE13setVelocitiesEjRKNS_16PxStrideIteratorIKjEERKNS4_IKNS_6PxVec3EEE
ZAe:__ZN22BaseUnityConnectClientC2ERN11UnityEngine7Connect20BasePersistentValuesE
gYf:_EncryptedPrivateKeyInfo_get_Algorithm_m2779196942
Zch:_RemotingServices_GetRealProxy_m620317996
dPb:__ZN13dynamic_arrayI11CulledLightLj4EE6insertEPS0_PKS0_S4_
F7h:_ArrayReadOnlyList_1_RemoveAt_m2270349795_gshared
RVa:__ZNK12CubemapArray22GetTypeVirtualInternalEv
pTi:_Predicate_1_Invoke_m2060780095_gshared
vPa:__ZN11Tetrahedron8TransferI18StreamedBinaryReadILb0EEEEvRT_
yo:FUNCTION_TABLE_vif
zo:FUNCTION_TABLE_vid
Ao:FUNCTION_TABLE_vii
Gdb:__Z40scripting_liveness_calculation_from_root18ScriptingObjectPtrPv
ySa:__ZN7Texture23VirtualRedirectTransferER24GenerateTypeTreeTransfer
bee:_UNITY_FT_Set_Transform
r6b:__ZNK32RendererMaterialAnimationBinding12SetPPtrValueERKN11UnityEngine9Animation10BoundCurveEi
rpj:__ZN6il2cpp8metadata15GenericMetadata20RegisterGenericClassEP18Il2CppGenericClass
Txk:__Z101RuntimeInvoker_OpFlags_t378191910_SByte_t454417549_SByte_t454417549_SByte_t454417549_SByte_t454417549PFvvEPK10MethodInfoPvPS4_
cgl:_glDeleteFramebuffers__wrapper
w3e:_Image_get_overrideSprite_m706080347
yHk:__Z54RuntimeInvoker_Int32_t2071877448_LabelData_t3712112744PFvvEPK10MethodInfoPvPS4_
Lic:__Z36Register_UnityEngine_RectOffset_Initv
cPg:_BigInteger_ModInverse_m1881894572
w5i:__ZN6il2cpp2vm7Runtime17GetDelegateInvokeEP11Il2CppClass
Q6b:__ZZN12MeshRenderer15InitializeClassEvEN29FunctorImpl_134kDidDeleteMesh4CallEPviR11MessageData
oik:__ZL59Slider_t297367283_CustomAttributesCacheGenerator_m_FillRectP21CustomAttributesCache
ofj:__ZN30dense_hashtable_const_iteratorINSt3__24pairIK10KeyWrapperIPK22Il2CppGenericParameterEPK24MonoGenericParameterInfoEES6_N6il2cpp5utils11PointerHashIS4_EEN14dense_hash_mapIS6_SA_SF_NS6_14EqualsComparerINS0_8equal_toIS5_EEEENS0_9allocatorISB_EEE9SelectKeyESK_SM_E30advance_past_empty_and_deletedEv
TYa:__ZN28EnlightenRendererInformation8TransferI14SafeBinaryReadEEvRT_
xwk:__Z88RuntimeInvoker_RuntimeObject_RuntimeObject_Int32_t2071877448_RuntimeObject_RuntimeObjectPFvvEPK10MethodInfoPvPS4_
pOj:__ZL69DefaultDependencyAttribute_t3858269114_CustomAttributesCacheGeneratorP21CustomAttributesCache
N6c:__ZN5physx12NpBatchQuery13getUserMemoryEv
aDa:__ZNK15Lz4Decompressor16DecompressMemoryEPKvPjPvS2_
yie:_UNITY_tt_face_build_cmaps
uYk:_Rect_get_height_m1231429410
KLg:_ReadOnlyCollection_1_System_Collections_IList_get_Item_m887129009_gshared
lUa:__Z35UnityPropertySheet_MakeSortedColorsRKNSt3__23mapIN9ShaderLab16FastPropertyNameE10ColorRGBAfNS_4lessIS2_EENS_9allocatorINS_4pairIKS2_S3_EEEEEER10vector_mapIS2_S3_S5_NS6_INS7_IS2_S3_EEEEE
Yuf:_Decimal_System_IConvertible_ToType_m3828527724_AdjustorThunk
M5e:_InputField_get_caretPositionInternal_m3011712053
Lhe:_UNITY_tt_face_load_os2
eNd:__ZN5physx2GuL34fullContactsGenerationSphereConvexERKNS0_8CapsuleVERKNS0_11ConvexHullVERKNS_6shdfnd3aos12PsTransformVESB_PNS0_17PersistentContactERjRNS0_13ContactBufferEbRNS0_25PersistentContactManifoldERNS8_5Vec3VERKNS8_6FloatVEb
Rmd:__ZN5physx19NpRigidBodyTemplateINS_14PxRigidDynamicEE16setRigidBodyFlagENS_15PxRigidBodyFlag4EnumEb
TQg:_HMAC_get_Key_m2528863640
sFg:_Collection_1_IsSynchronized_m1366278230_gshared
RTj:__ZL93StringBuilder_t1221177846_CustomAttributesCacheGenerator_StringBuilder_AppendLine_m1686706871P21CustomAttributesCache
iWc:__ZN5physx6shdfnd8PoolBaseINS_2Sc19ConstraintGroupNodeENS0_19ReflectionAllocatorIS3_EEE17releaseEmptySlabsEv
yrb:__Z29Transfer_Blittable_ArrayFieldI14SafeBinaryRead8Vector4fEvRT_R9ArrayInfoRK23StaticTransferFieldInfo
rBf:_Array_get_swapper_TisInt32_t2071877448_m2837069166_gshared
Dbj:__ZN6il2cpp2gc19AppendOnlyGCHashMapINSt3__24pairIPK10MethodInfoP11Il2CppClassEEP22Il2CppReflectionMethod17ReflectionMapHashIS9_ENS2_8equal_toIS9_EEE3AddERKS9_SB_
VPj:__ZL62IDynamicMessageSink_t3056162262_CustomAttributesCacheGeneratorP21CustomAttributesCache
wFk:__Z77RuntimeInvoker_Boolean_t3825574718_AspectModeU26_t218518220_Int32_t2071877448PFvvEPK10MethodInfoPvPS4_
foi:_ConfigHandler_CheckPath_m2296459741
YUe:_PointerEventData_IsScrolling_m1971908975
zae:__ZNSt3__27__sort4IRNS_6__lessI24InterpolationDepthHandleS2_EEPS2_EEjT0_S6_S6_S6_T_
pKk:__Z56RuntimeInvoker_ContentType_t1028629049_Int32_t2071877448PFvvEPK10MethodInfoPvPS4_
ozc:__ZN5physx3Cct8SweptBoxD2Ev
zKb:__ZZ23InitPlayerLoopCallbacksvEN51PostLateUpdateUpdateCustomRenderTexturesRegistrator7ForwardEv
j7j:__ZL53UILineInfo_t3621277874_CustomAttributesCacheGeneratorP21CustomAttributesCache
BDd:__ZN5physx2Cm12DelegateTaskINS_13PxsCCDContextEXadL_ZNS2_12postCCDSweepEPNS_10PxBaseTaskEEEED0Ev
ivf:_Decimal_System_IConvertible_ToInt16_m3159038792
Gv:__ZN7mecanim9animation12EvaluateClipEPKNS0_4ClipEPKNS0_9ClipInputEPNS0_10ClipMemoryEPNS0_10ClipOutputE
ALc:__ZN5physx3Cct9SweepTest15onObstacleAddedEjPKNS_17PxObstacleContextERKNS_6PxVec3ES7_f
UTc:__ZN5physx2Gu10SupportMapD2Ev
M9a:__ZNSt3__26vectorIN15ResourceManager10DependencyE13stl_allocatorIS2_L18MemLabelIdentifier52ELi16EEEC2INS_11__wrap_iterIPS2_EEEET_SB_RKS5_PNS_9enable_ifIXaasr21__is_forward_iteratorISB_EE5valuesr16is_constructibleIS2_NS_15iterator_traitsISB_E9referenceEEE5valueEvE4typeE
cZa:__ZN4PPtrI11LightProbesE8TransferI18StreamedBinaryReadILb0EEEEvRT_
Yli:_ComVisibleAttribute__ctor_m1789587486
b2c:__ZNK5physx15NpActorTemplateINS_18PxArticulationLinkEE22getClientBehaviorFlagsEv
pIh:_MonoMethodInfo_GetReturnType_m2864247130
$uk:__Z39RuntimeInvoker_DateTimeKind_t2186819611PFvvEPK10MethodInfoPvPS4_
QWb:__ZN13RenderManager29SetCurrentCameraAndStackStateEP6CameraP25CameraStackRenderingState
M0k:_Transform_INTERNAL_get_rotation_m1873681960
WFa:__ZNSt3__26__treeINS_12__value_typeIjN4core12basic_stringIcNS2_20StringStorageDefaultIcEEEEEENS_19__map_value_compareIjS7_NS_4lessIjEELb1EEE13stl_allocatorIS7_L18MemLabelIdentifier7ELi16EEE7destroyEPNS_11__tree_nodeIS7_PvEE
cij:__ZN15dense_hashtableINSt3__24pairIK10KeyWrapperINS1_IP11Il2CppClassjEEES4_EES6_N6il2cpp8metadata14ArrayClassHashEN14dense_hash_mapIS6_S4_SB_NS6_14EqualsComparerINSA_17ArrayClassCompareEEENS0_9allocatorIS8_EEE9SelectKeyESF_SH_E12resize_deltaEjj
ri:_JS_WebRequest_Release
k9f:_DirectoryNotFoundException__ctor_m2242202556
c2c:__ZNK5physx15NpActorTemplateINS_18PxArticulationLinkEE12getAggregateEv
JS:__ZN11UnityEngine15CloudWebService14DataErrorEventD0Ev
xlj:__ZN6il2cpp6icalls8mscorlib6System4Type20internal_from_handleEi
iQe:_String_CreateString_m2448464375
Z7g:_X509SubjectKeyIdentifierExtension__ctor_m2959112706
FUh:_Enumerator_Reset_m1147555085_AdjustorThunk
nGh:_FieldInfo_get_IsNotSerialized_m2322769148
Ttd:__ZNK5physx7NpScene18getStaticStructureEv
DXj:__ZL68Math_t2022911894_CustomAttributesCacheGenerator_Math_Max_m2671311541P21CustomAttributesCache
EDd:__ZN5physx13PxsCCDContext12postCCDSweepEPNS_10PxBaseTaskE
npj:__ZN6il2cpp8metadata15GenericMetadata7InflateEPK19Il2CppGenericMethodPK20Il2CppGenericContext
oYa:__ZN19ShaderPropertySheet16SetArrayPropertyEN9ShaderLab16FastPropertyNameENS_12PropertyTypeEPKvj
iIh:_MonoGenericCMethod_get_ReflectedType_m2689239043
LPb:__ZN22PerThreadPageAllocatorC2Ev
tFg:_Collection_1_IsFixedSize_m499196375_gshared
OZe:_ColorTween_set_startColor_m3546206870_AdjustorThunk
Lpj:__ZN15dense_hashtableINSt3__24pairIK10KeyWrapperIP12Il2CppObjectEN6il2cpp2gc9CachedCCWEEES5_NS7_5utils11PointerHashIS3_EEN14dense_hash_mapIS5_S9_SD_NS5_14EqualsComparerINS0_8equal_toIS4_EEEENS0_9allocatorISA_EEE9SelectKeyESI_SK_E16reset_thresholdsEv
e0d:__ZN5physx6shdfnd10Foundation19AlignCheckAllocator28deregisterAllocationListenerERNS_20PxAllocationListenerE
D1c:__ZN5physx2Sc21ArticulationJointCore12setChildPoseERKNS_11PxTransformE
ndi:_InternalEnumerator_1_get_Current_m4083613828_gshared
z7i:__ZN6il2cpp2os4File11GetStdErrorEv
yvg:_List_1_System_Collections_IList_get_IsReadOnly_m1745992999_gshared
ORi:_TextGenerator_INTERNAL_CALL_Populate_Internal_cpp_m106350432
KRk:_UnityAction__ctor_m3825983746
GXf:_KeyPairPersistence_Save_m471726936
_oc:__ZN8GUIState8EndOnGUIEv
zSf:_SimpleCollator_FilterOptions_m4044781893
koe:_UNITY_TT_Get_VMetrics
L8f:_Path_InsecureGetFullPath_m2635272425
mmf:_Enumerator_Clone_m1124749523
SFd:__ZN5physx33solveContactCoulombBlockWriteBackEPKNS_23PxcSolverConstraintDescEjRNS_16PxcSolverContextEPNS_25PxcThresholdStreamElementEjPi
xXk:_Quaternion_ToString_m1042358501
iih:_RuntimeMethodHandle__ctor_m1162528746
QTi:_Predicate_1__ctor_m3243601712_gshared
txg:_Enumerator_Dispose_m3300818037_AdjustorThunk
Lug:_List_1_AsReadOnly_m4108578222_gshared
FNd:__ZN5physx9PxTaskMgr17submitUnnamedTaskERNS_6PxTaskENS_10PxTaskType4EnumE
GDe:_DSA__ctor_m613430209
dEf:_SetPropertyUtility_SetStruct_TisSingle_t2076509932_m3849235084_gshared
Pia:__ZN7Texture21GetMasterTextureLimitEv
GYb:__Z12CanAddScriptR10GameObject17ScriptingClassPtrPS1_S2_
ygj:__ZN6il2cpp2vm10Reflection12HasAttributeEP12Il2CppObjectP11Il2CppClass
qKe:_X509Certificate_GetExpirationDateString_m2351894475
$Z:__ZN9ShaderLabL25StaticInitializeShaderLabEPv
L3d:__ZN12MeshCollider23VirtualRedirectTransferER24GenerateTypeTreeTransfer
xBd:__ZNK5physx2Sq12BucketPruner5sweepERKNS0_9ShapeDataERKNS_6PxVec3ERfRNS0_14PrunerCallbackE
U:Math_max
CFg:_Collection_1_System_Collections_IList_Insert_m1511106741_gshared
b2j:__ZL93Mesh_t1356156583_CustomAttributesCacheGenerator_Mesh_GetAllocArrayFromChannelImpl_m1559282939P21CustomAttributesCache
DOi:__ZL24UnresolvedVirtualCall_92P12Il2CppObjectPK10MethodInfo
i6i:_il2cpp_class_get_methods
O8f:_Path_CanonicalizePath_m383914732
MTh:_Enumerator_System_Collections_IEnumerator_get_Current_m1631145297_gshared
mub:__Z18Transfer_BlittableI24GenerateTypeTreeTransferLb0EN4math12int2_storageEEvRK29SerializationCommandArgumentsR31RuntimeSerializationCommandInfo
wgf:_ArrayList_Synchronized_m2395071980
iuj:__ZN6il2cpp2os6Thread16GetCurrentThreadEv
ZHj:__ZL81RuntimeArray_CustomAttributesCacheGenerator_Array_SetValue_m169741241____indices1P21CustomAttributesCache
Z8b:__ZN10GameObject13ComponentPair15SetComponentPtrEPN5Unity9ComponentE
k9d:__ZN5physx6shdfnd8internal8HashBaseINS0_4PairIKPKNS0_14NamedAllocatorEPKcEES6_NS0_4HashIS6_EENS1_11HashMapBaseIS6_S9_SC_NS0_20NonTrackingAllocatorEE6GetKeyESE_Lb1EE15reserveInternalEj
neg:_UnexceptionalStreamWriter_Write_m3206913035
q2b:__Z13RegisterClassI10MeshFilterEvv
cGa:__ZN10TagManager8TransferI19StreamedBinaryWriteILb0EEEEvRT_
Ycb:__ZN11PreloadData23VirtualRedirectTransferER18StreamedBinaryReadILb0EE
Gak:__ZL96Physics_t634932869_CustomAttributesCacheGenerator_Physics_RaycastAll_m2968588561____maxDistance1P21CustomAttributesCache
k1a:__ZN13sorted_vectorI4PPtrI11SpriteAtlasENSt3__24lessIS2_EE13stl_allocatorIS2_L18MemLabelIdentifier1ELi16EEE21sort_clear_duplicatesEv
UA:__Z17dynamic_pptr_castIP10MonoScript6ObjectET_RK4PPtrIT0_E
wkh:_DESTransform_ProcessBlock_m2826669227
A3f:_Int16_CompareTo_m3493496879
HWk:_PlayableHandle_INTERNAL_CALL_GetPlayableTypeOf_m1683061051
R2j:__ZL56RenderTexture_t2666733923_CustomAttributesCacheGeneratorP21CustomAttributesCache
Jaj:__ZN15dense_hashtableINSt3__24pairIK10KeyWrapperINS1_IPK9FieldInfoP11Il2CppClassEEEjEES9_17ReflectionMapHashIS8_EN14dense_hash_mapIS9_jSD_NS9_14EqualsComparerINS0_8equal_toIS8_EEEENS0_9allocatorISB_EEE9SelectKeyESI_SK_E16reset_thresholdsEv
T4j:__ZL56ColorWriteMask_t926634530_CustomAttributesCacheGeneratorP21CustomAttributesCache
d0a:__ZN6Sprite17MainThreadCleanupEv
k_j:__ZL56OidCollection_t3790243618_CustomAttributesCacheGeneratorP21CustomAttributesCache
KSj:__ZL61SignatureDescription_t89145500_CustomAttributesCacheGeneratorP21CustomAttributesCache
vci:_InternalEnumerator_1_MoveNext_m3389738333_AdjustorThunk
pN:__ZN10AudioMixer14UpdateMuteSoloEv
NLb:__Z17GetMonoManagerPtrv
p9c:__ZN5physx6shdfnd5ArrayINS_3Scb13MaterialEventENS0_19ReflectionAllocatorIS3_EEE15growAndPushBackERKS3_
dyg:_Stack_1_System_Collections_ICollection_get_SyncRoot_m3151629354_gshared
Tob:__Z35Transfer_Blittable_FixedBufferFieldI14SafeBinaryReadsEvRK29SerializationCommandArgumentsR31RuntimeSerializationCommandInfo
gFa:__ZN9Transform35SetLocalPositionWithoutNotificationERKN4math7_float3Ey
pLh:_MaskableGraphic_UnityEngine_UI_IClippable_get_gameObject_m954171032
rj:_JS_Eval_ClearTimeout
Cha:__ZN7ApiGLES16SetPatchVerticesEi
ZXc:__ZN5physx2Sc5Scene11onBodySleepEPNS0_7BodySimE
wCa:__ZN10MemoryFileC2E18MemLabelIdentifierP14MemoryFileData14FilePermission
Wdh:_TrackingServices_NotifyUnmarshaledObject_m1794048369
nXi:__ZN6il2cpp2vm5Class20FromGenericParameterEPK22Il2CppGenericParameter
TQj:__ZL59RemotingServices_t2399536837_CustomAttributesCacheGeneratorP21CustomAttributesCache
hV:__ZN19CloudServiceHandler11FlushEventsEv
U7:__ZN15GlobalCallbacksC2Ev
NLf:_Array_InternalArray__set_Item_TisLabelFixup_t4090909514_m565370771_gshared
Cfe:_UNITY_FT_New_Memory_Face
R8c:__ZNK5physx10NpMaterial18getDynamicFrictionEv
s0j:__ZL99GameObject_t1756533147_CustomAttributesCacheGenerator_GameObject_GetComponentInChildren_m1720983699P21CustomAttributesCache
bZj:__ZL74X509Crl_t1699034837_CustomAttributesCacheGenerator_U3CU3Ef__switchU24map13P21CustomAttributesCache
Ghh:_SerializationEntry__ctor_m1619256036_AdjustorThunk
ude:__ZN20TextRenderingPrivate21TextMeshGeneratorImpl5FlushEv
QLe:__Z15CastclassSealedP12Il2CppObjectP11Il2CppClass
P1b:__ZN15ApplicationInfo14GetSandboxTypeEv
M9c:__ZN5physx9NpPhysics16createConvexMeshERNS_13PxInputStreamE
nsb:__Z18Transfer_BlittableI17RemapPPtrTransferLb1EhEvRK29SerializationCommandArgumentsR31RuntimeSerializationCommandInfo
Buj:__ZNSt3__26vectorIjNS_9allocatorIjEEE26__swap_out_circular_bufferERNS_14__split_bufferIjRS2_EE
yXb:__ZN16ReflectionProbes40UpdateRealtimeReflectionProbesTimeslicedEv
oHi:_ListPool_1_Get_m529219189_gshared
uoj:__ZNSt3__26__treeINS_12__value_typeIP24Il2CppReflectionAssemblyPvEENS_19__map_value_compareIS3_S5_NS_4lessIS3_EELb1EEENS_9allocatorIS5_EEE16__insert_node_atEPNS_16__tree_node_baseIS4_EERSF_SF_
ZDh:_MethodBuilder_GetBaseDefinition_m774166361
kXc:__ZN5physx2Sq17SceneQueryManager8addShapeERKNS_7NpShapeERKNS_12PxRigidActorEbPNS_9PxBounds3E
$9a:__ZNK30RuntimeInitializeOnLoadManager22GetTypeVirtualInternalEv
U$i:__ZN15dense_hashtableINSt3__24pairIK10KeyWrapperIN6il2cpp5utils13dynamic_arrayIPK10Il2CppTypeLj4EEEEPFvvEEESA_NS3_8metadata19Il2CppSignatureHashEN14dense_hash_mapISA_SD_SG_NSA_14EqualsComparerINSF_22Il2CppSignatureCompareEEENS0_9allocatorISE_EEE9SelectKeyESK_SM_E12resize_deltaEjj
Y5b:__ZN16ReflectionProbes15InitializeClassEv
SBj:__ZN6il2cpp5utils5MatchENSt3__212basic_stringIcNS1_11char_traitsIcEENS1_9allocatorIcEEEEjRKS7_j
zge:_UNITY_FT_Destroy_Class_psnames_module_class
h1i:__ZNK15dense_hashtableINSt3__24pairIK10KeyWrapperIPK11Il2CppClassEPKcEES6_N6il2cpp5utils11PointerHashIS3_EEN14dense_hash_mapIS6_S9_SE_NS6_14EqualsComparerINS0_8equal_toIS5_EEEENS0_9allocatorISA_EEE9SelectKeyESJ_SL_E12test_deletedEj
zri:_MRUList_Evict_m2430323183
KJg:_ReadOnlyCollection_1_System_Collections_Generic_ICollectionU3CTU3E_Remove_m1060547576_gshared
LAk:__Z68RuntimeInvoker_Boolean_t3825574718_Rect_t3681755626_SByte_t454417549PFvvEPK10MethodInfoPvPS4_
kQf:_Array_InternalArray__get_Item_TisRuntimeObject_m371871810_gshared
jge:_ft_bitmap_glyph_bbox
_A:__ZN8Animator13BatchedFKPassERK13dynamic_arrayIP14PlayableOutputLj4EE
Ycd:__ZNK5physx15NpActorTemplateINS_7PxClothEE14getOwnerClientEv
Xak:__ZL47Joint_t454317436_CustomAttributesCacheGeneratorP21CustomAttributesCache
zFd:__ZNK5physx2Gu29EPASupportMapPairRelativeImplINS0_8CapsuleVES2_E9doSupportERKNS_6shdfnd3aos5Vec3VERS6_S9_S9_
dOf:_Array_Sort_TisVector4_t2243707581_m474199742_gshared
I4:__ZN13RuntimeStaticINSt3__23mapIN4core12basic_stringIcNS2_20StringStorageDefaultIcEEEES6_NS0_4lessIS6_EE13stl_allocatorINS0_4pairIKS6_S6_EEL18MemLabelIdentifier13ELi16EEEELb0EE13StaticDestroyEPv
p$d:__ZN5physx10SubSortSAH5sort4EPjjRNS_6shdfnd5ArrayINS_11RTreeNodeNQENS2_19ReflectionAllocatorIS4_EEEERjjPS4_
Xdg:_TextWriter_Write_m576684782
pk:_glIsVertexArray
KCa:__ZN25SingleBlockMemoryFileDataC2E18MemLabelIdentifierPvjb
qwa:__ZN5Unity9Component8TransferI18StreamedBinaryReadILb0EEEEvRT_
ga:invoke_fff
qSh:_Text_get_fontSize_m3105730761
idl:b14
bYg:_TlsServerHello_Update_m1740270635
t8d:__ZN5physx2Sc7PhysicsC2ERKNS_17PxTolerancesScaleERKNS_14PxvOffsetTableE
vae:__ZNSt3__26__sortIRNS_6__lessI24InterpolationDepthHandleS2_EEPS2_EEvT0_S6_T_
mre:__ZN2UI6Canvas17MainThreadCleanupEv
_ka:__ZN6prcoreL12RemapGenericI17TexFormatARGB155517TexFormatRGBA8888EEvPKNS_9InnerInfoE
YOh:_ScrollRect_Rebuild_m3423824761
Pug:_List_1_Find_m3862454845_gshared
ori:_MatchCollection_get_Item_m2609281578
Ysa:__ZN7ApiGLES13CreateProgramEv
MLa:__ZN11HaloManager7AddHaloEv
roh:_UTF8Encoding__ctor_m100325490
cja:__ZN4crnd12crn_unpackerD2Ev
VRh:_StencilMaterial_ClearAll_m1372779118
Ck:_emscripten_glTexImage2D
zch:_ObjRefSurrogate_SetObjectData_m1873902916
Xne:_tt_driver_class_pic_init
U_:__ZN18ScriptingArguments9AddStringEPKc
Rzj:_setup_header
Bvk:__Z99RuntimeInvoker_RuntimeObject_DateTime_t693205669_Nullable_1_t1693325264_RuntimeObject_RuntimeObjectPFvvEPK10MethodInfoPvPS4_
PHg:_ReadOnlyCollection_1_System_Collections_IList_get_IsReadOnly_m1367736517_gshared
x9k:runPostSets
yFd:__ZNK5physx2Gu29EPASupportMapPairRelativeImplINS0_8CapsuleVES2_E18doWarmStartSupportEiiRNS_6shdfnd3aos5Vec3VES7_S7_
edk:__ZL93AxisEventData_t1524870173_CustomAttributesCacheGenerator_AxisEventData_set_moveDir_m254243794P21CustomAttributesCache
gka:__ZL23stbir__resize_arbitraryPvPKviiiS_iiiffffPfiij14stbir_datatype12stbir_filterS4_10stbir_edgeS5_16stbir_colorspace
Hqg:_List_1_System_Collections_IList_Insert_m848656350_gshared
Gub:__Z18Transfer_BlittableI24GenerateTypeTreeTransferLb1E8Vector4fEvRK29SerializationCommandArgumentsR31RuntimeSerializationCommandInfo
f5f:_Int16_ToString_m3971652088_AdjustorThunk
Nk:_pthread_detach
V2i:__ZN6il2cpp2vm19SocketPollingThread7RunLoopEv
fjg:_KeyValuePair_2__ctor_m1640124561_AdjustorThunk
Tbh:_MethodDictionary_AllocInternalProperties_m3261295876
HAd:__ZN5physx11EdgeManager6resizeEj
w9b:__ZN15DirectorManager20ScheduleGraphDestroyERK14HPlayableGraph
yDb:__ZNSt3__213__stable_sortIRN10vector_mapI17ScriptingClassPtrPKN5Unity4TypeENS_4lessIS2_EENS_9allocatorINS_4pairIS2_S6_EEEEE13value_compareENS_11__wrap_iterIPSB_EEEEvT0_SJ_T_NS_15iterator_traitsISJ_E15difference_typeEPNSM_10value_typeEi
A_j:__ZL77U3CPrivateImplementationDetailsU3E_t1486305139_CustomAttributesCacheGeneratorP21CustomAttributesCache
lhb:__ZN9ShaderLab25SerializedTextureProperty8TransferI24GenerateTypeTreeTransferEEvRT_
bOg:_Comparison_1_Invoke_m2645957248_gshared
ell:_emscripten_glIsShader__wrapper
qej:__ZN6il2cpp2gc19AppendOnlyGCHashMapINSt3__24pairIPK14Il2CppAssemblyP11Il2CppClassEEP24Il2CppReflectionAssembly17ReflectionMapHashIS9_ENS2_8equal_toIS9_EEEC2Ev
vje:_tt_cmap14_char_next
nNj:__ZL69AssemblyTrademarkAttribute_t3740556705_CustomAttributesCacheGeneratorP21CustomAttributesCache
$da:__ZN13GfxDeviceGLES28GetNativeVertexBufferPointerEP9GfxBuffer
And:__ZN5physx2Sc5Scene12removeStaticERNS0_10StaticCoreERNS_6shdfnd11InlineArrayIPKNS0_9ShapeCoreELj64ENS4_19ReflectionAllocatorIS8_EEEEb
Bxa:__ZN11NamedObject8TransferI18StreamedBinaryReadILb0EEEEvRT_
Tra:__ZNK17GPUSkinPoseBuffer12GetBoneCountEv
xhh:_DelegatePInvokeWrapper_CallbackHandler_t362827733
ZXj:__ZL59ResolveEventArgs_t1859808873_CustomAttributesCacheGeneratorP21CustomAttributesCache
Nmj:__ZNK15dense_hashtableINSt3__24pairIK10KeyWrapperIP14Il2CppIUnknownEjEES5_N6il2cpp5utils11PointerHashIS3_EEN14dense_hash_mapIS5_jSB_NS5_14EqualsComparerINS0_8equal_toIS4_EEEENS0_9allocatorIS7_EEE9SelectKeyESG_SI_E12test_deletedEj
fGh:_EventInfo_get_MemberType_m3337516651
ewc:__Z18Transfer_BlittableI8JSONReadLb1EyEvRK29SerializationCommandArgumentsR31RuntimeSerializationCommandInfo
il:_emscripten_glMatrixMode
st:__ZN8Animator23VirtualRedirectTransferER18StreamedBinaryReadILb0EE
SMj:__ZL93TypeBuilder_t3308873219_CustomAttributesCacheGenerator_TypeBuilder_GetConstructors_m774120094P21CustomAttributesCache
fXd:__ZN5physx13GuMeshFactory17createHeightFieldERNS_13PxInputStreamE
Jqd:__ZN5physx2Sc10NPhaseCore25createShapeInstancePairLLERNS0_8ShapeSimES3_NS_7PxFlagsINS_10PxPairFlag4EnumEtEE
V1d:__ZN8Collider11PoseChangedEb
jch:_MethodReturnDictionary__ctor_m756139344
dS:__ZN11UnityEngine15CloudWebService14DataDispatcher16PrepareDataBlockERNS0_16SessionContainerE
zta:__ZN18GfxFramebufferGLES5ClearE13GfxClearFlagsRK10ColorRGBAffib
Ord:__ZThn8_N5physx2Sc19ShapeInstancePairLL12onDeactivateEj
Ovg:_List_1_GetIndex_m2513359832_gshared
p9h:_InternalEnumerator_1__ctor_m967618647_gshared
bCb:__ZL26Transfer_SimpleNativeClassI18StreamedBinaryReadILb0EE10RectOffsetLb0EEvRK29SerializationCommandArgumentsR31RuntimeSerializationCommandInfo
wge:_UNITY_ft_destroy_default_module_classes
bZf:_SymmetricTransform_FinalDecrypt_m3674669784
jog:_List_1_CheckMatch_m1772343151_gshared
AOb:__ZL12DepthPassJobPN21GfxDeviceAsyncCommand10ArgScratchEPKNS_3ArgE
Mfb:__ZNSt3__26vectorIN9ShaderLab20SerializedSubProgram16TextureParameterENS_9allocatorIS3_EEE6assignINS_11__wrap_iterIPS3_EEEENS_9enable_ifIXaasr21__is_forward_iteratorIT_EE5valuesr16is_constructibleIS3_NS_15iterator_traitsISC_E9referenceEEE5valueEvE4typeESC_SC_
xrc:__ZN5Unity9rapidjson6WriterI16TempBufferWriterNS0_4UTF8IcEES4_13JSONAllocatorE11WriteDoubleEd
w7f:_IntPtr_Equals_m1214967011_AdjustorThunk
R0d:__ZN9Rigidbody16ApplyConstraintsEv
Htg:_List_1_Add_m3591975577_gshared
Goa:__ZN14GfxDeviceStats16CopyAllDrawStatsERKS_
S2b:__Z13RegisterClassI19LowerResBlitTextureEvv
kdk:__ZL100PointerEventData_t1599784723_CustomAttributesCacheGenerator_U3CpointerPressRaycastU3Ek__BackingFieldP21CustomAttributesCache
rn:FUNCTION_TABLE_iiiiiiiiiiii
tBi:_GUIUtility_Internal_GetPixelsPerPoint_m1075452981
qjd:__ZN5physx2Sc17ParticleSystemSim8setFlagsEj
XKa:__ZN16GraphicsSettingsD0Ev
s$b:__Z29StdTemplateConversionFunctionIshEbPvR14SafeBinaryRead
ail:_pthread_mutex_init__wrapper
n:cttz_i8
ege:_UNITY_FT_GlyphLoader_Add
h_d:__ZN5physx2Gu15EdgeListBuilder18CreateEdgesToFacesEjPKjPKt
JHc:__ZN5physx11PxMeshQuery5sweepERKNS_6PxVec3EfRKNS_10PxGeometryERKNS_11PxTransformEjPKNS_10PxTriangleERNS_10PxSweepHitENS_7PxFlagsINS_9PxHitFlag4EnumEtEEPKjfb
KQk:_Display_FireDisplaysUpdated_m2197288612
wri:_MRUList__ctor_m2726533367
rof:_DateTimeFormatInfo_get_FullDateTimePattern_m2607507656
BYg:_HttpsClientStream_RaiseServerCertificateValidation_m3356770426
vZk:_RectTransform_INTERNAL_set_anchorMin_m3893342226
vOf:_Array_swap_TisUIVertex_t1204258818_TisUIVertex_t1204258818_m1163375424_gshared
fm:_emscripten_glViewport
fwj:__ZN6il2cpp6icalls8mscorlib6System15MonoCustomAttrs17IsDefinedInternalEP12Il2CppObjectP20Il2CppReflectionType
INa:__ZN4Mesh21UnswizzleVertexColorsEb
Z8:__ZN30dense_hashtable_const_iteratorINSt3__24pairIKN4core12basic_stringIcNS2_20StringStorageDefaultIcEEEEP11AssetBundleEES6_20StringHash32FunctionIS6_EN14dense_hash_mapIS6_S9_SC_NS0_8equal_toIS6_EENS0_9allocatorISA_EEE9SelectKeyESF_SH_EppEv
SXg:_TlsServerSettings_set_CertificateTypes_m264196087
Fai:_InternalEnumerator_1__ctor_m4150855019_gshared
Htf:_DateTime_ToString_m2276663647_AdjustorThunk
Une:_cff_parse_font_bbox
G4d:__ZThn28_N14PhysicsManagerD0Ev
dgc:__Z35Application_Get_Custom_PropIsEditorv
XIc:__Z14raycast_sphereRKN5physx10PxGeometryERKNS_11PxTransformERKNS_6PxVec3ES8_fNS_7PxFlagsINS_9PxHitFlag4EnumEtEEjPNS_12PxRaycastHitEbPFbRSD_PvESG_
t8a:__ZN14PlayerSettings23VirtualRedirectTransferER18StreamedBinaryReadILb0EE
Rvj:__ZN4utf88internal15sequence_lengthIPKcEENSt3__215iterator_traitsIT_E15difference_typeES6_
ixe:__ZN11UnityEngine15PlatformWrapper16GetVRFieldOfViewEv
tig:_KeyValuePair_2__ctor_m3201181706_AdjustorThunk
UEj:__ZN6il2cpp2os5Event5ResetEv
STb:__Z26CombineDepthNormalsTextureRK17RenderLoopContextR13dynamic_arrayI16RenderObjectDataLj4EE
zIi:_AesManaged__ctor_m2322442838
$oj:__ZN6il2cpp8metadata15GenericMetadata17InflateParametersEPK13ParameterInfohPK20Il2CppGenericContextb
L6f:_Int64_System_IConvertible_ToUInt32_m850395426_AdjustorThunk
_$:__ZN18AwakeFromLoadQueue28InvokePersistentManagerAwakeEPNS_4ItemEj17AwakeFromLoadMode
SIa:__ZN6Camera13AwakeFromLoadE17AwakeFromLoadMode
sFe:_HMACSHA512__ctor_m2390736870
lz:__ZNK17AnimationPlayable27GetNextCompatibleDescendantEi
TSd:__ZNK5physx2Cm12DelegateTaskINS_2Sc5SceneEXadL_ZNS3_23postIslandGenSecondPassEPNS_10PxBaseTaskEEEE7getNameEv
Cxa:__ZN4PPtrI6SpriteE8TransferI18StreamedBinaryReadILb0EEEEvRT_
gCh:_TypeBuilder_GetInterfaces_m1818658502
e_g:_TlsException_get_Alert_m4022765752
SOg:_BigInteger_op_Equality_m2683055762
WGb:__Z25SetNeedToPerformRenderingb
DIh:_MonoMethod_GetPseudoCustomAttributes_m466965107
Rti:__ZN21InterfaceFuncInvoker0IP19LinkRef_t2090853131E6InvokeEjP11Il2CppClassP12Il2CppObject
oEa:__ZN10GameObjectD2Ev
POb:__ZN14qsort_internal30FindAndMovePivotToLastPositionIP15RODataDepthPassi17ROSorterDepthPassEEvT_S4_T0_T1_
RKj:__ZL53SortedList_t3004938869_CustomAttributesCacheGeneratorP21CustomAttributesCache
s_k:_ResourceRequest_t2560315377_marshal_pinvoke
tVh:_Enumerator_System_Collections_IDictionaryEnumerator_get_Value_m3005608231_gshared
rNi:__ZL24UnresolvedVirtualCall_26P12Il2CppObjectS0_iiPK10MethodInfo
GKh:_MaskUtilities_NotifyStencilStateChanged_m1527407683
BEd:__ZN5physxL27PxcSweepAnyShapeHeightfieldERKNS_11PxsCCDShapeES2_PKNS_12PxsRigidBodyES5_RKNS_11PxTransformES8_fRNS_6PxVec3ESA_RNS_10PxcNpCacheERNS_18PxcNpThreadContextE
jIj:__ZL69RuntimeArray_CustomAttributesCacheGenerator_Array_IndexOf_m2447301431P21CustomAttributesCache
FWb:__ZN12CullingGroup10SendEventsEPK17CullingGroupEventj
rWf:_DSAManaged_GenerateKeyPair_m2711647034
rF:__ZN15SerializeTraitsIN7mecanim5human6HandleEE8TransferI14SafeBinaryReadEEvRS2_RT_
NZa:__ZThn32_NK8Renderer8GetLayerEv
DIf:_Array_InternalArray__ICollection_Add_TisResourceCacheItem_t333236149_m1151081240_gshared
Qbc:__ZNK4Mesh17GetPrimitiveCountEv
VKk:__Z39RuntimeInvoker_RaycastHit2D_t4063908774PFvvEPK10MethodInfoPvPS4_
Hzd:__ZN5physx3Scb5SceneD2Ev
Wpf:_Convert_ToInt32_m2209788057
Znj:__ZN30dense_hashtable_const_iteratorINSt3__24pairIK10KeyWrapperINS1_IPKcS4_EEEiEES6_24NamespaceAndNamePairHashN14dense_hash_mapIS6_iS9_NS6_14EqualsComparerI26NamespaceAndNamePairEqualsEENS0_9allocatorIS8_EEE9SelectKeyESD_SF_E30advance_past_empty_and_deletedEv
hfh:_SoapServices_GetXmlTypeForInteropType_m3821579913
NJi:_EqualityComparer_1_System_Collections_IEqualityComparer_Equals_m3601790950_gshared
Uil:_emscripten_glTexParameterfv__wrapper
Qob:__Z18Transfer_BlittableI14SafeBinaryReadLb1E9BoundsIntEvRK29SerializationCommandArgumentsR31RuntimeSerializationCommandInfo
$6i:_il2cpp_method_get_param_count
xdc:__ZN10systeminfo19ISOToSystemLanguageERN4core12basic_stringIcNS0_20StringStorageDefaultIcEEEE
jdj:__ZNK15dense_hashtableINSt3__24pairIK10KeyWrapperINS1_IPK12PropertyInfoP11Il2CppClassEEEjEES9_17ReflectionMapHashIS8_EN14dense_hash_mapIS9_jSD_NS9_14EqualsComparerINS0_8equal_toIS8_EEEENS0_9allocatorISB_EEE9SelectKeyESI_SK_E3endEv
j3e:_HorizontalOrVerticalLayoutGroup_get_childForceExpandWidth_m227100883
$0d:__Z16GetDynamicsScenev
Uqd:__ZThn8_N5physx2Sc18TriggerInteraction7destroyEv
u_j:__ZL68Uri_t19570940_CustomAttributesCacheGenerator_U3CU3Ef__switchU24map15P21CustomAttributesCache
tke:_ps_dimension_done
sXe:_LayoutRebuilder_MarkLayoutForRebuild_m640589351
Ejb:__ZN12ScriptMapperD0Ev
_Ue:_PointerEventData_get_pressEventCamera_m724559964
gLe:_String_IndexOfUnchecked_m3356721554
DYa:__ZN16LightmapSettings8TransferI14SafeBinaryReadEEvRT_
uaa:__ZN17BufferManagerGLES13ReleaseBufferEP14DataBufferGLES
qUc:__ZN5physx6shdfnd5ArrayIPvNS0_19ReflectionAllocatorINS_16NpConnectorArrayEEEE15growAndPushBackERKS2_
Rpd:__ZN5physx2Sc5Scene15prepareSimulateEv
bwc:__Z18Transfer_BlittableI8JSONReadLb1EjEvRK29SerializationCommandArgumentsR31RuntimeSerializationCommandInfo
WVc:__ZN5physx6shdfnd5ArrayIPNS_2Sc11InteractionENS0_19ReflectionAllocatorIS4_EEE8recreateEj
Mhk:__ZL63ScrollRect_t1199013257_CustomAttributesCacheGenerator_m_InertiaP21CustomAttributesCache
Jxi:_PKCS12_Decrypt_m1557069392
ISh:_VertexHelper_AddUIVertexQuad_m280792808
B3g:_WebHeaderCollection_ToString_m1246460752
Uai:_InternalEnumerator_1_System_Collections_IEnumerator_get_Current_m2842514953_AdjustorThunk
vQi:__ZL25UnresolvedVirtualCall_192P12Il2CppObject19DateTime_t693205669S1_PK10MethodInfo
Zp:stackSave
sze:__ZN5Unity9rapidjson15GenericDocumentINS0_4UTF8IcEE13JSONAllocatorNS0_12CrtAllocatorEE6StringEPKcjb
Mke:_ps_dimension_end
Zjc:__Z41Register_UnityEngine_Mesh_Internal_Createv
Cnb:__ZN16MemoryFileSystem5TouchER13FileEntryData
p5a:__ZN14SpriteRenderer23VirtualRedirectTransferER24GenerateTypeTreeTransfer
Zoj:__ZNK15dense_hashtableI10KeyWrapperIP18Il2CppGenericClassES3_N6il2cpp8metadata22Il2CppGenericClassHashEN14dense_hash_setIS3_S6_NS3_14EqualsComparerINS5_25Il2CppGenericClassCompareEEENSt3__29allocatorIS3_EEE8IdentityESA_SD_E12test_deletedERK30dense_hashtable_const_iteratorIS3_S3_S6_SF_SA_SD_E
cHe:_RIPEMD160Managed_JJ_m2933451431
_be:__Z63Register_UnityEngine_Physics_INTERNAL_CALL_Internal_RaycastTestv
IFe:_MACTripleDES_Initialize_m1318099802
FRg:_MD5SHA1_VerifySignature_m507888141
mdf:_Byte_System_IConvertible_ToChar_m4188836679
a5f:_NumberFormatter_InitDecHexDigits_m2036076025
YVh:_Enumerator_get_CurrentKey_m3839846791_AdjustorThunk
fYb:__ZN6Camera9SetAspectEf
XZe:_ColorTween_get_ignoreTimeScale_m641454126_AdjustorThunk
Ba:invoke_viiffiii
dPg:_Kernel_modInverse_m3230829577
oHg:_ReadOnlyCollection_1_Contains_m1800950533_gshared
yek:__ZL79TouchInputModule_t2561058385_CustomAttributesCacheGenerator_m_ForceModuleActiveP21CustomAttributesCache
ukl:_emscripten_glBindVertexArray__wrapper
nEk:__Z52RuntimeInvoker_Vector2_t2243707579_Int32_t2071877448PFvvEPK10MethodInfoPvPS4_
hRg:_MD4__ctor_m2366413460
Y0h:_Dictionary_2_InitArrays_m435313205_gshared
IH:__ZN10ObjectPoolIN4FMOD3DSPENS0_4DSPIEE7GetFreeEi
oFa:__ZN9Transform37InitializeTransformHierarchyRecursiveER18TransformHierarchyRii
g4b:__Z34DefaultPrepareDispatchBoundsUpdateR13RendererScene18MemLabelIdentifier
j1e:_Graphic_get_useLegacyMeshGeneration_m1366444625
qta:__ZN26SinglePassStereoSupportExt23SetupStereoMatrixParamsE21MonoOrStereoscopicEye24BuiltinShaderMatrixParamRK10Matrix4x4f
vgk:__ZL65InputField_t1631627530_CustomAttributesCacheGenerator_m_InputTypeP21CustomAttributesCache
GUf:_ModulusRing_Pow_m1137250399
Fhi:_InternalEnumerator_1_MoveNext_m2410670600_AdjustorThunk
dQ:__Z46AudioListener_CUSTOM_GetNumExtensionPropertiesP12Il2CppObject
G5g:_X509Chain_Build_m2341271288
NMa:__ZN17MeshRenderingData4InitEP4MeshS1_iP15SharedGfxBufferS3_
nTg:_CipherSuite_get_HashAlgorithmType_m3902365773
vJg:_ReadOnlyCollection_1_System_Collections_ICollection_get_SyncRoot_m2779904122_gshared
y5h:_EqualityComparer_1_System_Collections_IEqualityComparer_Equals_m1682986002_gshared
Tjf:_Hashtable__cctor_m2952659675
H7g:_X509ChainStatus__ctor_m3628359961_AdjustorThunk
a9a:__ZN10VRSettings8TransferI19StreamedBinaryWriteILb0EEEEvRT_
Wod:__ZN5physx2Sc9StaticSim21postActor2WorldChangeEv
Xjk:__ZL77LayoutUtility_t4076838048_CustomAttributesCacheGenerator_U3CU3Ef__amU24cache4P21CustomAttributesCache
_rb:__ZN15SerializeTraitsI13dynamic_arrayIN4math12int3_storageELj4EEE19ResizeSTLStyleArrayERS3_i
xLe:_Evidence_get_HostEvidenceList_m2095478124
tmc:__Z57Register_UnityEngine_Transform_INTERNAL_set_localPositionv
KUg:_Context_Clear_m4000337070
pea:__ZN13GfxDeviceGLES26SetRandomWriteTargetBufferEi15ComputeBufferID
rah:_IntervalCollection_Normalize_m538796191
mKb:__ZZ23InitPlayerLoopCallbacksvEN49EarlyUpdateResetFrameStatsAfterPresentRegistrator7ForwardEv
X4c:__ZN5physx6shdfnd4sortIPvNS0_4LessIS2_EENS0_19ReflectionAllocatorINS_2Cm5BlockIhLj256EEEEEEEvPT_jRKT0_RKT1_j
f3j:__ZL77Object_t1021602117_CustomAttributesCacheGenerator_Object_get_name_m3369637820P21CustomAttributesCache
a1e:_FontUpdateTracker_UntrackText_m3827316510
lcj:__ZN6il2cpp2gc19AppendOnlyGCHashMapINSt3__24pairIPK11Il2CppImageP11Il2CppClassEEP22Il2CppReflectionModule17ReflectionMapHashIS9_ENS2_8equal_toIS9_EEE10CopyValuesEPv
N1k:_Vector2_get_sqrMagnitude_m593717298_AdjustorThunk
WXd:__ZN5physx20InternalTriangleMesh7releaseEv
gDd:__ZN5physx6shdfnd5ArrayINS_16PxsCCDBlockArrayINS_13PxsCCDOverlapELi128EE9BlockInfoENS0_19ReflectionAllocatorIS5_EEE15growAndPushBackERKS5_
jXc:__ZNK5physx7NpShape8getFlagsEv
sRi:_Font_get_fontSize_m3125470578
fLh:__ZN23InterfaceActionInvoker2I16Rect_t3681755626bE6InvokeEjP11Il2CppClassP12Il2CppObjectS0_b
ddc:__ZNK11ICallString6ToUTF8Ev
Bui:_CaptureAssertion_get_Alternate_m2729005740
Wxj:_GC_number_stack_black_listed
_mj:__ZN24dense_hashtable_iteratorINSt3__24pairIK10KeyWrapperIP14Il2CppIUnknownEjEES5_N6il2cpp5utils11PointerHashIS3_EEN14dense_hash_mapIS5_jSB_NS5_14EqualsComparerINS0_8equal_toIS4_EEEENS0_9allocatorIS7_EEE9SelectKeyESG_SI_E30advance_past_empty_and_deletedEv
QOb:__ZNSt3__211__sift_downIR17ROSorterDepthPassP15RODataDepthPassEEvT0_S5_T_NS_15iterator_traitsIS5_E15difference_typeES5_
Wyh:_Default_SelectMethod_m3081239996
Emd:__ZN5physx19NpRigidBodyTemplateINS_14PxRigidDynamicEE25setMassSpaceInertiaTensorERKNS_6PxVec3E
Jed:__ZNK5physx7NpCloth16getContactOffsetEv
Yfc:__ZNSt3__214__split_bufferIPN9BlobWrite11TypeContextENS_9allocatorIS3_EEE10push_frontERKS3_
sB:__ZN8Animator17ApplyOnAnimatorIKEiRNS_11AnimatorJobE
s3:__ZN12FileAccessor4ReadEyyPvPy
HSa:__ZN13dynamic_arrayI16ShaderKeywordSetLj4EE6insertEPS0_PKS0_S4_
jDb:__Z29Transfer_Blittable_ArrayFieldI18StreamedBinaryReadILb0EE11QuaternionfEvRT_R9ArrayInfoRK23StaticTransferFieldInfo
Ubh:_MethodDictionary_IsOverridenKey_m3922224650
elf:_SyncHashtable_Contains_m3042906549
gdc:__Z21GetSceneHierarchyPathPK6Object
xwg:_List_1_System_Collections_IList_set_Item_m4016273526_gshared
Y7g:_X509KeyUsageExtension_CopyFrom_m931530012
ZJg:_ReadOnlyCollection_1_System_Collections_ICollection_get_SyncRoot_m1577944046_gshared
HXb:__ZN13RenderTexture9SetHeightEi
Tu:__ZN7mecanim9animation17ClearMotionOutputEPNS0_18AnimationNodeStateE
KPa:__ZN16LevelGameManager8TransferI24GenerateTypeTreeTransferEEvRT_
uKh:_LayoutUtility_U3CGetMinHeightU3Em__4_m1769295917
p$g:_SslStreamBase_Read_m1036897444
uMh:_RectMask2D_PerformClipping_m1232012832
mkj:__ZN6il2cpp6icalls8mscorlib6System2IO6MonoIO17GetFileAttributesEP12Il2CppStringPi
MWh:_Transform_1_Invoke_m4020530914_gshared
aje:_tt_cmap8_char_index
s$:__Z24scripting_class_get_name17ScriptingClassPtr
a5:__ZN13RuntimeStaticI15GUIEventManagerLb0EE13StaticDestroyEPv
suj:__ZN6il2cpp2os6Thread15CurrentThreadIdEv
Hqb:__Z29Transfer_Blittable_ArrayFieldI14SafeBinaryReadjEvRT_R9ArrayInfoRK23StaticTransferFieldInfo
Fe:_emscripten_set_keydown_callback
Ckf:_Enumerator_get_Value_m3684748062
dGa:__ZN19StreamedBinaryWriteILb0EE21TransferSTLStyleArrayINSt3__26vectorI17SortingLayerEntryNS2_9allocatorIS4_EEEEEEvRT_17TransferMetaFlags
bNc:__ZNK5physx3Ext7D6Joint9getMotionENS_8PxD6Axis4EnumE
Duh:_UInt32_Parse_m3371984903
A3:__ZN12FileAccessorC2Ev
lzi:_X509CertificateCollection_Compare_m1014334435
iCg:_Collection_1_ClearItems_m1280157591_gshared
O$c:__ZN5physx2Sc15ArticulationSim12applyImpulseERNS0_8BodyCoreERKNS_9PxcFsDataERKNS_6PxVec3ES9_
MKk:__Z33RuntimeInvoker_TypeTag_t141209596PFvvEPK10MethodInfoPvPS4_
Sld:__ZNK5physx22NpParticleBaseTemplateINS_16PxParticleSystemENS_16NpParticleSystemEE7getTypeEv
x2d:__ZN5Unity5Joint18SetConnectedAnchorERK8Vector3f
rsi:_PatternLinkStack_GetCurrent_m2994645935
ENg:_Comparison_1__ctor_m2929820459_gshared
Xnk:__Z59RuntimeInvoker_RuntimeObject_RuntimeObject_SByte_t454417549PFvvEPK10MethodInfoPvPS4_
pqi:_AsyncResult__ctor_m1183194429
L6a:__ZNK12InputManager22GetTypeVirtualInternalEv
RE:__ZN4PPtrI13MonoBehaviourE8TransferI18StreamedBinaryReadILb0EEEEvRT_
Wbh:_MethodDictionary_set_Item_m3475146889
wHk:__Z71RuntimeInvoker_Int32_t2071877448_CustomAttributeNamedArgument_t94157543PFvvEPK10MethodInfoPvPS4_
ibk:__ZL54Tile_t429716126_CustomAttributesCacheGenerator_m_ColorP21CustomAttributesCache
h$c:__ZNK5physx14NpArticulation26getInternalDriveIterationsEv
ZQj:__ZL62WellKnownObjectMode_t2630225581_CustomAttributesCacheGeneratorP21CustomAttributesCache
YSh:_Toggle_PlayEffect_m3950629415
vGf:_Array_IndexOf_TisRuntimeObject_m214763038_gshared
bGi:_UnityEvent_1_GetDelegate_m3917909024_gshared
ZIk:__Z79RuntimeInvoker_Void_t1841601450_Int32_t2071877448_ParameterModifier_t1820634920PFvvEPK10MethodInfoPvPS4_
iFb:__Z39WriteQueueForTransferSignatureIntoCacheRK31TransferFunctionScriptingTraitsRK24TransferRequestSignature17ScriptingClassPtrR23CachedSerializationDataRb
Zcd:__ZN5physx15NpActorTemplateINS_7PxClothEE22setClientBehaviorFlagsENS_7PxFlagsINS_25PxActorClientBehaviorFlag4EnumEhEE
kVk:_Mesh_Clear_m239607636
Pwe:__ZN22BaseUnityConnectClient30OnEnteringStatePausedOrStoppedEv
hEg:_Collection_1_System_Collections_ICollection_get_SyncRoot_m2157752542_gshared
Ucj:__ZN15dense_hashtableINSt3__24pairIK10KeyWrapperINS1_IPK12PropertyInfoP11Il2CppClassEEEjEES9_17ReflectionMapHashIS8_EN14dense_hash_mapIS9_jSD_NS9_14EqualsComparerINS0_8equal_toIS8_EEEENS0_9allocatorISB_EEE9SelectKeyESI_SK_E12resize_deltaEjj
ev:__ZN7mecanim5human12HumanPoseAddERNS0_9HumanPoseERKS1_S4_
$lk:__Z78RuntimeInvoker_UInt16_t986882611_RuntimeObject_Int32_t2071877448_RuntimeObjectPFvvEPK10MethodInfoPvPS4_
iVj:__ZL64AssemblyLoadEventArgs_t4233815743_CustomAttributesCacheGeneratorP21CustomAttributesCache
lDg:_Collection_1_IsFixedSize_m218241296_gshared
UEa:__Z24MergeTransformComponentsR9TransformS0_b
b0j:__ZL98DebugLogHandler_t865810509_CustomAttributesCacheGenerator_DebugLogHandler_Internal_Log_m3333167788P21CustomAttributesCache
OWc:__ZThn24_N5physx2Sc20ArticulationJointSimD0Ev
n5d:__ZN14PhysicsManager32AddToTriggerStayStatesIfRequiredEPK9Rigidbody
Jbg:_MonoIO_get_PathSeparator_m2635828107
sfh:_TypeInfo_get_TypeName_m1722081275
rhi:_InternalEnumerator_1_get_Current_m889125315_gshared
Sgg:_MonoType_get_Name_m865859211
IAf:_CultureInfo__cctor_m2290268677
c7h:_ArrayReadOnlyList_1_System_Collections_IEnumerable_GetEnumerator_m3039869667_gshared
TOe:_String_Trim_m3982520224
UQc:__ZN5physx14PxsAABBManager12createBPElemEv
ueh:_RemotingConfiguration__cctor_m2129988840
CBg:_Collection_1_Insert_m44548038_gshared
Jbd:__ZThn12_N5physx7NpShape14onRefCountZeroEv
jAc:__ZL26GeomMTDCallback_ConvexMeshRN5physx6PxVec3ERfRKNS_10PxGeometryERKNS_11PxTransformES5_S8_
h9j:__ZL87GUIUtility_t3275770671_CustomAttributesCacheGenerator_U3CguiIsExitingU3Ek__BackingFieldP21CustomAttributesCache
hwj:__ZN6il2cpp2vm13ComObjectBase19GetRuntimeClassNameEPP15Il2CppHString__
lCb:__Z35Transfer_Blittable_FixedBufferFieldI18StreamedBinaryReadILb0EEyEvRK29SerializationCommandArgumentsR31RuntimeSerializationCommandInfo
n5c:__ZN5physx15NpActorTemplateINS_18PxArticulationLinkEE22setClientBehaviorFlagsENS_7PxFlagsINS_25PxActorClientBehaviorFlag4EnumEhEE
nk:_emscripten_glVertexAttribPointer
f9k:__ZNSt11logic_errorD0Ev
KMa:__ZNK20IntermediateRenderer12GetSceneMaskEv
Xab:__ZN14PreloadManager26UpdatePreloadingSingleStepENS_21UpdatePreloadingFlagsEi
cJe:_SHA512Managed_Initialize_m891287980
PPc:__ZN5physx3Ext5JointINS_15PxRevoluteJointENS_30PxRevoluteJointGeneratedValuesEE15getSerializableEv
RLe:_SecurityException__ctor_m1484114982
Wni:_SinkProviderData_get_Children_m100594762
Szi:_X509Crl_GetHashName_m183504634
$9e:_Array_GetValue_m1507415734
Bkc:__Z57Register_UnityEngine_RectTransform_INTERNAL_set_anchorMinv
k1f:_Object_MemberwiseClone_m2655589444
wTc:__ZL33GeomOverlapCallback_CapsuleConvexRKN5physx10PxGeometryERKNS_11PxTransformES2_S5_PNS_2Gu12TriggerCacheE
sIg:_ReadOnlyCollection_1_System_Collections_IList_get_Item_m375043207_gshared
Hka:__ZN6prcoreL25inner_stretch_i8_bilinearEPKNS_9InnerInfoE
ndb:__ZL30RegisterFilteredObjectCallbackPP12Il2CppObjectiPv
j9f:_DirectoryInfo_ToString_m4208086799
LIh:_MonoMethod_get_IsGenericMethod_m4276550811
jXh:_Transform_1_BeginInvoke_m3826027984_gshared
zS:__ZN11UnityEngine15CloudWebService16SessionContainer24GetSessionHeaderJsonDataERKN4core12basic_stringIcNS2_20StringStorageDefaultIcEEEERNS2_13StringBuilderE
Yof:_Decimal_op_Implicit_m2149927308
P4:__ZN13RuntimeStaticI21AssetReferenceStorageLb0EE13StaticDestroyEPv
bYd:__ZN5physx20InternalTriangleMesh9loadRTreeERNS_13PxInputStreamEj
Pnd:__ZN5physx19NpRigidBodyTemplateINS_14PxRigidDynamicEE25setCMassLocalPoseInternalERKNS_11PxTransformE
Aog:_List_1_set_Capacity_m895816763_gshared
Dod:__ZNK5physx15NpActorTemplateINS_13PxRigidStaticEE14getOwnerClientEv
Vrj:__ZN6il2cpp6icalls8mscorlib6System9AppDomain22InternalGetProcessGuidEP12Il2CppString
Gle:_cf2_builder_moveTo
Yjd:__ZN5physx2Sc18ParticleSystemCore16releaseParticlesEv
PWf:_KeyPairPersistence_get_UseMachineKeyStore_m560802076
AEd:__ZNK5physx2Gu29EPASupportMapPairRelativeImplINS0_8CapsuleVENS0_4BoxVEE6getDirEv
Gyg:_Collection_1_CopyTo_m1840908033_gshared
LIc:__ZN5physx2Gu20intersectTriangleBoxERKNS_6shdfnd3aos5Vec3VES5_S5_S5_S5_
UTh:_Enumerator_System_Collections_IDictionaryEnumerator_get_Entry_m345330700_AdjustorThunk
ZAa:__ZNK17FileSystemHandler10IsReadOnlyERK13FileEntryData
xyh:_AssemblyName_get_Name_m1815759940
l4i:__ZNSt3__214__split_bufferIP9FieldInfoRNS_9allocatorIS2_EEEC2EjjS5_
eRe:_AbstractEventData__ctor_m3586111519
bvb:__Z18Transfer_BlittableI24GenerateTypeTreeTransferLb1EjEvRK29SerializationCommandArgumentsR31RuntimeSerializationCommandInfo
m4j:__ZL118AttributeHelperEngine_t958797062_CustomAttributesCacheGenerator_AttributeHelperEngine_GetRequiredComponents_m586474250P21CustomAttributesCache
zvk:__Z123RuntimeInvoker_RuntimeObject_Int16_t4041245914_RuntimeObject_BooleanU26_t3168250738_BooleanU26_t3168250738_SByte_t454417549PFvvEPK10MethodInfoPvPS4_
cRg:_MD2Managed_Padding_m410163267
Hcj:__ZNK15dense_hashtableINSt3__24pairIK10KeyWrapperINS1_IPK11Il2CppImageP11Il2CppClassEEEjEES9_17ReflectionMapHashIS8_EN14dense_hash_mapIS9_jSD_NS9_14EqualsComparerINS0_8equal_toIS8_EEEENS0_9allocatorISB_EEE9SelectKeyESI_SK_E10test_emptyERK30dense_hashtable_const_iteratorISB_S9_SD_SM_SI_SK_E
rTh:_Toggle_UnityEngine_UI_ICanvasElement_get_transform_m4177274032
DMa:__ZN11ColorRGBA328TransferI14SafeBinaryReadEEvRT_
RPc:__ZN5physx3Ext13RevoluteJoint15exportExtraDataERNS_22PxSerializationContextE
Q7d:__ZN5physx6shdfnd5ArrayIPvNS0_19ReflectionAllocatorINS_24NpPtrTableStorageManager8PtrBlockILi4EEEEEE15growAndPushBackERKS2_
cka:__Z11IsHDRFormat13TextureFormat
ig:_emscripten_glClearDepth
e8b:__ZNK8GUILayer22GetTypeVirtualInternalEv
cVa:__ZN8Playable12SetPlayStateE9PlayState
Y_a:__ZN14SafeBinaryRead21TransferSTLStyleArrayINSt3__26vectorIN15QualitySettings14QualitySettingENS1_9allocatorIS4_EEEEEEvRT_17TransferMetaFlags
yOf:_Array_swap_TisVector2_t2243707579_m3359959735_gshared
$9d:__Z13RegisterClassI12MeshColliderEvv
y9f:_File_OpenText_m4058508963
U7a:__ZNSt3__26vectorINS_4pairIPKN5Unity4TypeE7Hash128EENS_9allocatorIS7_EEE8__appendEj
tfh:_WellKnownClientTypeEntry__ctor_m670594074
Ifk:__ZL61FontData_t2614388407_CustomAttributesCacheGenerator_m_MinSizeP21CustomAttributesCache
nQi:__ZL25UnresolvedVirtualCall_184P12Il2CppObject19DateTime_t693205669S1_PK10MethodInfo
osf:_DateTime_System_IConvertible_ToSingle_m3927769066_AdjustorThunk
gne:_cff_font_load
JYg:_RecordProtocol_SendRecord_m2977889250
iec:__Z13IsPathCreatedRKN4core12basic_stringIcNS_20StringStorageDefaultIcEEEE
WGd:__ZN5physx35solveContactPreBlock_ConcludeStaticEPKNS_23PxcSolverConstraintDescEjRNS_16PxcSolverContextE
mka:__ZL22stbir__encode_scanlineP11stbir__infoiPvPfiii
Wmk:__Z61RuntimeInvoker_Double_t4078015681_RuntimeObject_RuntimeObjectPFvvEPK10MethodInfoPvPS4_
xsk:__Z136RuntimeInvoker_Void_t1841601450_Byte_t3683104436_RuntimeObject_Int64U26_t763825331_ObjectU26_t597476745_SerializationInfoU26_t4051840202PFvvEPK10MethodInfoPvPS4_
jce:__ZN20QuadTreeNodeRenderer13StaticDestroyEPv
vT:__ZN11UnityEngine15CloudWebService20WebRequestRestClient5AbortEv
vDf:_Array_InternalArray__ICollection_Remove_TisUInt32_t2149682021_m4198326168_gshared
W3b:__ZN9Transform12CleanupClassEv
cnk:__Z50RuntimeInvoker_Void_t1841601450_Double_t4078015681PFvvEPK10MethodInfoPvPS4_
kCi:_GUILayoutGroup_CalcWidth_m877887811
IUg:_ClientContext_set_ClientHelloProtocol_m2246603449
KVc:__ZN5physx6shdfnd5ArrayIPvNS0_15InlineAllocatorILj256ENS0_19ReflectionAllocatorINS_2Cm5BlockIS2_Lj32EEEEEEEE15growAndPushBackERKS2_
jSd:__ZN5physx18PxsSolverStartTask13setupDescTaskEv
Ffe:_UNITY_FT_Set_Pixel_Sizes
v7e:_U3CMouseDragOutsideRectU3Ec__Iterator1_MoveNext_m2845491958
Bgb:__ZNSt3__26vectorIN9ShaderLab19SerializedSubShaderENS_9allocatorIS2_EEE26__swap_out_circular_bufferERNS_14__split_bufferIS2_RS4_EE
ZA:__ZN11UnityEngine9Animation33SetGenericTransformPropertyValuesERKNS0_30AnimatorGenericBindingConstantERKN7mecanim10ValueArrayEP9Transformy
Gok:__Z116RuntimeInvoker_RuntimeObject_RuntimeObject_Int32_t2071877448_RuntimeObject_RuntimeObject_RuntimeObject_RuntimeObjectPFvvEPK10MethodInfoPvPS4_
HPj:__ZL59IChannelReceiver_t2788889625_CustomAttributesCacheGeneratorP21CustomAttributesCache
jWe:_StandaloneInputModule_IsModuleSupported_m623598506
Lyc:__ZN5physx3Cct13BoxController6resizeEf
zDk:__Z36RuntimeInvoker_InputType_t1274231802PFvvEPK10MethodInfoPvPS4_
Qki:_ResourceReader_Close_m3256966401
njh:_SByte_ToString_m4105923225_AdjustorThunk
zhh:_StreamingContext_t1417235061_marshal_pinvoke_cleanup
MAf:_CultureInfo_ConstructCurrentUICulture_m3363349599
pwh:_UInt64_CompareTo_m2422461804_AdjustorThunk
JHi:_ListPool_1_Release_m1119005941_gshared
pgg:_MonoType_GetEvent_m4160342003
eMh:_RawImage_set_texture_m2400157626
T9d:__ZN13ProduceHelperIN5Unity10HingeJointELb0EE7ProduceE18MemLabelIdentifier18ObjectCreationMode
PTd:__ZN5physx6shdfnd5ArrayINS_2Cm12DelegateTaskINS_2Sc5SceneEXadL_ZNS5_19updateCCDSinglePassEPNS_10PxBaseTaskEEEEENS0_19ReflectionAllocatorIS8_EEE8recreateEj
ZKi:_PrimeHelper_ToPrime_m1606935350_gshared
_Ma:__Z30ProcessDynamicBatchGeometryJobP25DynamicVBOGeometryJobDataj
KGk:__Z59RuntimeInvoker_Boolean_t3825574718_RaycastHit2D_t4063908774PFvvEPK10MethodInfoPvPS4_
v5h:_EqualityComparer_1__ctor_m81618677_gshared
kPb:__ZNSt3__27__sort4IRNS_6__lessI11CulledLightS2_EEPS2_EEjT0_S6_S6_S6_T_
i8i:__ZN6il2cpp2vm14TypeNameParser26ParseArrayModifierOptionalEv
aSf:_MSCompatUnicodeTable_Level3_m260824928
Y7e:_LayoutElement_OnEnable_m3478706401
J0:__Z26scripting_object_get_class18ScriptingObjectPtr
pjj:__ZN6il2cpp6icalls8mscorlib6System10Reflection8Assembly13get_code_baseEP24Il2CppReflectionAssemblyb
DSi:_Func_3__ctor_m3917225629_gshared
Bab:__ZNSt3__26vectorIN4core12basic_stringIcNS1_20StringStorageDefaultIcEEEE13stl_allocatorIS5_L18MemLabelIdentifier13ELi16EEE7reserveEj
L5c:__ZN5physx34NpShapeGetScRigidObjectFromScbSLOWERKNS_3Scb5ShapeE
qVi:_RectTransformUtility_GetTransposed_m1233793627
u3b:__ZNK28MonoBehaviourPropertyBinding15GenerateBindingERKN4core12basic_stringIcNS0_20StringStorageDefaultIcEEEEbRN11UnityEngine9Animation14GenericBindingE
U3f:_Int32_FindExponent_m3187554672
$Wf:_KeyPairPersistence_Load_m1355205585
KOh:_ScrollRect_get_horizontalScrollbarVisibility_m4152068235
c6f:_Int32_ToString_m2960866144_AdjustorThunk
BTi:_Predicate_1_Invoke_m3539717340_gshared
CZc:__ZNK5physx21PxsBodyTransformVault12getTransformERKNS_11PxsBodyCoreE
iMi:_AudioExtensionManager_AddSpatializerExtension_m1881494443
rtj:__ZN6il2cpp6icalls8mscorlib6System11Environment15internalGetHomeEv
Dcl:dynCall_iiiiiiffiiiiiiiiiffffiiii
vva:__ZNK5Unity9Component7GetNameEv
Q4i:__ZNSt3__214__split_bufferIN6il2cpp6icalls8mscorlib6System12PropertyPairERNS_9allocatorIS5_EEEC2EjjS8_
yWj:__ZL79Convert_t2607082565_CustomAttributesCacheGenerator_Convert_ToUInt16_m2130758075P21CustomAttributesCache
GAc:__ZN44ConvexVsHeightfieldContactGenerationCallback7onEventEjPj
ghh:__ZN21InterfaceFuncInvoker4IP12Il2CppObjectS1_P28SerializationInfo_t22898743028StreamingContext_t1417235061S1_E6InvokeEjP11Il2CppClassS1_S1_S3_S4_S1_
uXj:__ZL58IFormatProvider_t2849799027_CustomAttributesCacheGeneratorP21CustomAttributesCache
HIk:__Z75RuntimeInvoker_Void_t1841601450_Int32_t2071877448_KeyValuePair_2_t888819835PFvvEPK10MethodInfoPvPS4_
RHi:_ObjectPool_1_Get_m3724675538_gshared
A$a:__ZN13ScreenManagerD0Ev
lC:__ZN7mecanim8skeleton26SkeletonPoseComputeGlobalQEPKNS0_8SkeletonEPKNS0_13SkeletonPoseTIN4math4trsXEEEPS7_ii
aFd:__ZN5physx2Gu19_gjkRelativeRayCastINS0_9TriangleVENS0_8CapsuleVEEEbRT_RT0_RKNS_6shdfnd3aos15PsMatTransformVERKNS9_6FloatVERKNS9_5Vec3VESI_RSD_RSG_SK_f
QKe:_String_CharCopy_m586187774
crg:_List_1_GetEnumerator_m2672519407_gshared
P0b:__ZN10BootConfig4Data3SetEPKcjS2_j
NB:__ZN9BlobWrite8TransferI22OffsetPtrArrayTransferIiEEEvRT_PKc17TransferMetaFlags
fPi:__ZL25UnresolvedVirtualCall_122P12Il2CppObject23PropertyName_t217228410fPK10MethodInfo
MRf:_ContractionComparer_Compare_m314873025
sAg:_Collection_1_IsFixedSize_m1690655146_gshared
ptb:__Z18Transfer_BlittableI17RemapPPtrTransferLb1EjEvRK29SerializationCommandArgumentsR31RuntimeSerializationCommandInfo
l_c:__ZN5physx6shdfnd5ArrayIPvNS0_15InlineAllocatorILj256ENS0_19ReflectionAllocatorINS_11NpAggregateEEEEEE15growAndPushBackERKS2_
u6f:_Int64_System_IConvertible_ToDouble_m638786774
OLe:_SecurityElement_ToXml_m1070777098
lM:__ZN4FMOD6System7releaseEv
aBd:__ZN5physx6shdfnd8PoolBaseINS_2Sc18TriggerInteractionENS0_19ReflectionAllocatorIS3_EEE15disposeElementsEv
Gkf:_HashKeys_get_IsSynchronized_m4207641174
$wb:__Z18Transfer_BlittableI19StreamedBinaryWriteILb0EELb1E8BitFieldEvRK29SerializationCommandArgumentsR31RuntimeSerializationCommandInfo
X2:__Z18PathToAbsolutePathRKN4core12basic_stringIcNS_20StringStorageDefaultIcEEEE
Kwk:__Z44RuntimeInvoker_HashAlgorithmType_t1654661965PFvvEPK10MethodInfoPvPS4_
yjg:_Enumerator_MoveNext_m3078170540_AdjustorThunk
V8d:__ZN5physx28PxcContactCapsuleHeightFieldERKNS_2Gu13GeometryUnionES3_RKNS_11PxTransformES6_RKfRNS_10PxcNpCacheERNS0_13ContactBufferE
GJe:_SymmetricAlgorithm_get_Padding_m718051685
rIi:_Action_Invoke_m3801112262
BAc:__ZL31PointInConvexPolygon2D_OutCodesPKfjffffRh
onk:__Z79RuntimeInvoker_Decimal_t724701077_RuntimeObject_Int32_t2071877448_RuntimeObjectPFvvEPK10MethodInfoPvPS4_
pld:__ZN5physx22NpParticleBaseTemplateINS_16PxParticleSystemENS_16NpParticleSystemEE18setDynamicFrictionEf
Qja:__ZL13BlitImageImplR14ImageReferenceiiRKS_NS_10ColorSpaceENS_8BlitModeEb
y9b:__ZN15DirectorManager17AcquireOutputNodeEv
IFb:__ZN10MonoScript23VirtualRedirectTransferER17RemapPPtrTransfer
y1c:__ZN5physx2Sc21ArticulationJointCore21setInternalComplianceEf
vVj:__ZL76Convert_t2607082565_CustomAttributesCacheGenerator_Convert_ToChar_m541258017P21CustomAttributesCache
Hbe:__ZN9Rigidbody12MoveRotationERK11Quaternionf
Emk:__Z64RuntimeInvoker_RuntimeObject_Int16_t4041245914_Int16_t4041245914PFvvEPK10MethodInfoPvPS4_
T$d:__ZNK5physx6shdfnd10Foundation13getErrorLevelEv
psa:__ZN16GeometryJobTasks20ScheduleGeometryJobsER9GfxDevicePFvP15GeometryJobDataEPK22GeometryJobInstructionjb
rK:__ZN12AudioManager29ShutdownReinitializeAndReloadEv
txi:_NetscapeCertTypeExtension_Decode_m2210025005
cYj:__ZL59StringComparison_t2376310518_CustomAttributesCacheGeneratorP21CustomAttributesCache
ZUd:__ZN5physx2Cm12DelegateTaskINS_2Sc5SceneEXadL_ZNS3_15postNarrowPhaseEPNS_10PxBaseTaskEEEE11runInternalEv
cae:__Z20ConvertContactToMonoP9Collision
Cfh:_BaseFixupRecord_DoFixup_m1821597450
qXi:__ZN15dense_hashtableINSt3__24pairIK10KeyWrapperIPK22Il2CppGenericParameterEP11Il2CppClassEES6_N6il2cpp5utils11PointerHashIS4_EEN14dense_hash_mapIS6_S9_SE_NS6_14EqualsComparerINS0_8equal_toIS5_EEEENS0_9allocatorISA_EEE9SelectKeyESJ_SL_E6insertERKSA_
j3d:__ZN5Unity10HingeJoint21ReleaseAndCreateJointEv
F9f:_FileLoadException__ctor_m1356374414
BEi:_InvokableCall_4_Invoke_m1140294390_gshared
NTg:_TlsStream_Reset_m1504601050
img:__ZN23InterfaceActionInvoker2IP23Int32U5BU5D_t3030399641iE6InvokeEjP11Il2CppClassP12Il2CppObjectS1_i
hha:__ZN14DataBufferGLES16RecreateWithDataEjPKv
Sva:__Z29GetGlobalAllowNameConversionsv
AAc:__ZL17transformVerticesRfS_S_S_PfjPKN5physx6PxVec3EPKhRKNS1_7PxMat33E
_8d:__ZNK5physx2Gu15HeightFieldUtil31getFaceIndexAtShapePointNoTest2Ejff
oZb:__ZN8Material8SetColorEN9ShaderLab16FastPropertyNameERK10ColorRGBAf
uOd:__ZN5physx6shdfnd5ArrayIPNS_14PxLightCpuTaskENS0_13TempAllocatorEE6resizeEjRKS3_
_Gh:_Module_GetCustomAttributes_m3581287913
ZIj:__ZL67Type_t_CustomAttributesCacheGenerator_Type_IsSubclassOf_m2450899481P21CustomAttributesCache
bCd:__ZNK5physx2Sq10AABBPruner5sweepERKNS0_9ShapeDataERKNS_6PxVec3ERfRNS0_14PrunerCallbackE
Gxb:__ZN10RectOffset8TransferI19StreamedBinaryWriteILb0EEEEvRT_
w$:__ZL41AssemblyNameMatchesWithOrWithoutExtensionPKcS0_
EGk:__Z53RuntimeInvoker_Boolean_t3825574718_Color32_t874517518PFvvEPK10MethodInfoPvPS4_
$wd:__ZN5physx2Sc5Scene21fireCallBacksPostSyncEv
lpa:__ZN14GfxContextGLES43AddRenderSurfaceToDeferredFBOInvalidateListEPK17RenderSurfaceGLES
HDd:__ZN5physx17PxsCCDAdvanceTask11runInternalEv
Txa:__ZN11NamedObject23VirtualRedirectTransferER14SafeBinaryRead
_Hj:__ZL74RuntimeArray_CustomAttributesCacheGenerator_Array_BinarySearch_m3522310993P21CustomAttributesCache
oMi:_AudioListener_GetNumExtensionProperties_m2652400521
ufe:__ZNSt3__26vectorIN20TextRenderingPrivate8FontImpl13CharacterInfoE13stl_allocatorIS3_L18MemLabelIdentifier1ELi16EEE6insertENS_11__wrap_iterIPKS3_EERS9_
Nya:__ZN23PreloadManagerOperation6IsDoneEv
C5i:__ZN6il2cpp2vm7Runtime15InvokeWithThrowEPK10MethodInfoPvPS5_
G_f:_X509Certificate_get_RawData_m3000055075
WXi:__ZNSt3__26vectorIPK10Il2CppTypeNS_9allocatorIS3_EEE21__push_back_slow_pathIRKS3_EEvOT_
pac:__Z33GetHasChangedDeprecatedSystemMaskv
Jvj:__ZN6il2cpp5utils11StringUtils11Utf16ToUtf8ERKNSt3__212basic_stringIDsNS2_11char_traitsIDsEENS2_9allocatorIDsEEEE
xKk:__Z30RuntimeInvoker_Link_t865133271PFvvEPK10MethodInfoPvPS4_
TKc:__ZN5physx3Cct26CharacterControllerManagerD2Ev
dVh:_Enumerator_VerifyState_m1165543189_AdjustorThunk
atf:_DateTime_AddSeconds_m722082155_AdjustorThunk
Vhf:_SynchronizedArrayListWrapper_CopyTo_m956887031
lji:_Comparer_1__ctor_m1202126643_gshared
ucb:__ZN21LightProbeProxyVolume18HasHardwareSupportEv
OUi:_CanvasRenderer_set_materialCount_m1703953120
jSb:__ZN26LightProbeProxyVolumeCacheC2ER13BatchRendererR15RenderLoopStats
Cka:__ZN6prcoreL31inner_stretch_argb8888_bilinearEPKNS_9InnerInfoE
bzb:__Z18Transfer_BlittableI18StreamedBinaryReadILb1EELb1E8BitFieldEvRK29SerializationCommandArgumentsR31RuntimeSerializationCommandInfo
t$j:__ZL84Behaviour_t955675639_CustomAttributesCacheGenerator_Behaviour_set_enabled_m602406666P21CustomAttributesCache
phe:_UNITY_FT_Outline_Decompose
$Mi:__ZL23UnresolvedVirtualCall_8P12Il2CppObjectS0_S0_PK10MethodInfo
UWg:_TlsClientCertificate_get_ClientCertificate_m3062440489
nLe:_StrongNamePublicKeyBlob_ToString_m3721281223
gAj:_GC_init_size_map
kai:_InternalEnumerator_1_get_Current_m198513457_AdjustorThunk
iDd:__ZN5physx6shdfnd8internal8HashBaseINS0_4PairIKNS3_IPKNS_12PxsRigidCoreEPKNS_12PxsShapeCoreEEEPNS_11PxsCCDShapeEEESA_NS0_4HashISA_EENS1_11HashMapBaseISA_SD_SG_NS0_9AllocatorEE6GetKeyESI_Lb1EE15reserveInternalEj
Aei:_InternalEnumerator_1__ctor_m1240086835_AdjustorThunk
_Ja:__Z20scripting_object_new17ScriptingClassPtr
R1f:_TextInfo__ctor_m2782608694
zxg:_Queue_1_System_Collections_ICollection_CopyTo_m772787461_gshared
Uaj:__ZN24dense_hashtable_iteratorINSt3__24pairIK10KeyWrapperINS1_IPK9FieldInfoP11Il2CppClassEEEjEES9_17ReflectionMapHashIS8_EN14dense_hash_mapIS9_jSD_NS9_14EqualsComparerINS0_8equal_toIS8_EEEENS0_9allocatorISB_EEE9SelectKeyESI_SK_E30advance_past_empty_and_deletedEv
_1f:_TextInfo_ToUpper_m299550697
Rxd:__ZN5physx2Sc5Scene21setDominanceGroupPairEhhRKNS_20PxDominanceGroupPairE
jNg:_ReadOnlyCollection_1_System_Collections_IList_Contains_m4073811941_gshared
Uya:__ZN23PreloadManagerOperation21MustCompleteNextFrameEv
p1e:_Graphic_OnRectTransformDimensionsChange_m1610753363
Vqf:_Convert_ToUInt16_m3265369225
P:Math_exp
Wfg:_MonoEnumInfo_get_Cache_m3551569711
Ap:FUNCTION_TABLE_iiifi
Jrj:__ZN6il2cpp2os5posix13PosixAutoLockD2Ev
HCf:_Array_InternalArray__ICollection_Contains_TisVector3_t2243707580_m3625701788_gshared
Ppa:__ZNSt3__26vectorINS_4pairIyP17VertexDeclarationEENS_9allocatorIS4_EEE6insertENS_11__wrap_iterIPKS4_EERS9_
cKh:_TypeFilter_BeginInvoke_m2395188690
myc:__GLOBAL__sub_I_modules_physics2d_public_0_cpp
yIj:__ZL66RuntimeArray_CustomAttributesCacheGenerator_Array_Sort_m1999601238P21CustomAttributesCache
nxg:_Enumerator__ctor_m1424070651_AdjustorThunk
ule:_cff_get_advances
FEb:__ZN13MonoBehaviour9SetScriptERK4PPtrI10MonoScriptE18ScriptingObjectPtr
xCf:_Array_InternalArray__ICollection_Contains_TisPlayableBinding_t2498078091_m4267109606_gshared
Xge:_UNITY_FT_Create_Class_sfnt_module_class
JSh:_Text_CalculateLayoutInputHorizontal_m1578553982
Fmj:__ZNSt3__218uninitialized_copyIPNS_4pairIK10KeyWrapperIP14Il2CppIUnknownEjEES8_EET0_T_SA_S9_
qpd:__ZN5physx7NpScene12loadFromDescERKNS_11PxSceneDescE
Jvf:_Decimal_IsZero_m3557909184_AdjustorThunk
Aff:_Char_ToString_m1401375624
QFe:_MD5CryptoServiceProvider__cctor_m3309191799
zDa:__ZNK10FileSystem16LastErrorMessageEv
Dxj:__ZNK6il2cpp8metadata14Il2CppTypeLessclEPK10Il2CppTypeS4_
P9g:_InterpreterFactory_get_NamesMapping_m3186583301
loi:_ConfigHandler_ReadCustomProviderData_m784203316
scc:__ZN11TimeManager16HasFixedTimeStepEv
_kg:_Enumerator_System_Collections_IEnumerator_Reset_m3052395060_gshared
jak:__ZL91Physics_t634932869_CustomAttributesCacheGenerator_Physics_Raycast_m1756435689____layerMask3P21CustomAttributesCache
lPg:_Kernel_DwordDivMod_m3728402123
WDb:__ZN13MonoBehaviour13AwakeFromLoadE17AwakeFromLoadMode
itb:__ZL26Transfer_SimpleNativeClassI17RemapPPtrTransfer8GradientLb1EEvRK29SerializationCommandArgumentsR31RuntimeSerializationCommandInfo
Dac:__ZN12CachedWriter9InitWriteER15CacheWriterBase
s9b:__Z21UnsignedInt64ToStringy
koh:_UTF7Decoder__ctor_m549434986
Pxd:__ZN5physx14PxsAABBManager15createAggregateEPvb
Ugi:_InternalEnumerator_1_get_Current_m1025321669_AdjustorThunk
OVk:_Object_t1021602117_marshal_pinvoke
Emc:__Z66Register_UnityEngine_Transform_INTERNAL_CALL_InverseTransformPointv
n7:__ZZN15DirectorManager15InitializeClassEvEN41FixedUpdateDirectorFixedUpdateRegistrator7ForwardEv
Ibi:_InternalEnumerator_1_MoveNext_m2720582493_gshared
aAi:_X509CrlEntry_get_RevocationDate_m1257876856
jpg:_List_1_IndexOf_m1434084853_gshared
jb:invoke_iiiiifiiiif
$zi:_X509Crl_VerifySignature_m1390212587
J8g:_Group__ctor_m4103922028
y3i:__ZNSt3__214__split_bufferI6pollfdRNS_9allocatorIS1_EEEC2EjjS4_
dkl:_glLinkProgram__wrapper
elb:__ZN18ScriptingArguments8AddInt64Ex
kla:__ZN6prcoreL12RemapGenericI17TexFormatARGB888815TexFormatBGR888EEvPKNS_9InnerInfoE
Llb:__ZN12HandlerChain4LockER13FileEntryData12FileLockMode
WFe:_MD5CryptoServiceProvider_ProcessFinalBlock_m1052610785
jif:_BitArray_Set_m2878881714
EQi:__ZL25UnresolvedVirtualCall_201P12Il2CppObjectPK10MethodInfo
aQc:__ZNK5physx3Ext5JointINS_15PxRevoluteJointENS_30PxRevoluteJointGeneratedValuesEE11getBodyPoseEPKNS_12PxRigidActorE
RAe:__ZN28UnityConnectScriptingClasses23CallSessionStateChangedEixxbP21ScriptingExceptionPtr
vMi:_AudioExtensionManager_GetListenerSpatializerExtensionType_m3668710088
Ebd:__ZN5physx7NpShape8requiresERNS_23PxProcessPxBaseCallbackE
mnj:__ZN6il2cpp6icalls8mscorlib6System13Globalization11CultureInfo35construct_internal_locale_from_nameEP17Il2CppCultureInfoP12Il2CppString
qvb:__ZL22Transfer_ManagedObjectI24GenerateTypeTreeTransferLb1EEvRK29SerializationCommandArgumentsR31RuntimeSerializationCommandInfo
u3j:__ZL72SceneManager_t90660965_CustomAttributesCacheGenerator_activeSceneChangedP21CustomAttributesCache
xOj:__ZL55COMException_t1790481504_CustomAttributesCacheGeneratorP21CustomAttributesCache
wVf:_ASN1_get_Count_m404940548
Gpi:_ContextAttribute_Equals_m53324298
uZd:__ZN5physx7Cooking14cookConvexMeshERKNS_16PxConvexMeshDescERNS_14PxOutputStreamEPNS_25PxConvexMeshCookingResult4EnumE
vk:_emscripten_set_main_loop_timing
BOk:_Camera_ScreenToViewportPoint_m3458250415
zxh:_WeakReference_AllocateHandle_m1783929473
v1c:__ZN5physx2Sc21ArticulationJointCore22setTangentialStiffnessEf
wNf:_Array_Sort_TisRuntimeObject_m3674422195_gshared
eKd:__ZNK5physx20SingleAABBUpdateTask7getNameEv
VYb:__ZN14ImageReference10FlipImageYEv
mJa:__Z32TransferEnumWithNameForceIntSizeI14SafeBinaryRead13TargetEyeMaskEvRT_RT0_PKc17TransferMetaFlags
cpc:__Z14GetDefaultSkini
PAf:_CultureInfo_get_Name_m3316229893
Ssf:_DateTime_get_Ticks_m310281298_AdjustorThunk
FH:__ZN4FMOD3DSP9setBypassEb
IFg:_Collection_1_System_Collections_IList_get_Item_m287847793_gshared
r0b:__Z19NormalizeWheelInputf
v8g:_CaptureCollection_CopyTo_m1982767892
t$b:__Z29StdTemplateConversionFunctionIsaEbPvR14SafeBinaryRead
PCf:_Array_InternalArray__ICollection_Remove_TisLink_t865133271_m1984184141_gshared
cyc:__Z29Transfer_Blittable_ArrayFieldI8JSONReadhEvRT_R9ArrayInfoRK23StaticTransferFieldInfo
F8e:_LayoutRebuilder_IsDestroyed_m3442208294
GUh:_Enumerator_VerifyState_m1547102902_AdjustorThunk
dgd:__ZN5physx2Sc9ClothCore17addCollisionPlaneERKNS_21PxClothCollisionPlaneE
BKa:__ZN22RenderingCommandBuffer20CleanupCommandBufferEv
Zsk:__Z165RuntimeInvoker_Void_t1841601450_UInt32U26_t2197289955_Int32_t2071877448_UInt32U26_t2197289955_Int32_t2071877448_Int32_t2071877448_Int32_t2071877448_Int32_t2071877448PFvvEPK10MethodInfoPvPS4_
sJk:__Z99RuntimeInvoker_Void_t1841601450_CustomAttributeTypedArgumentU5BU5DU26_t4216645529_Int32_t2071877448PFvvEPK10MethodInfoPvPS4_
Tsc:__Z18Transfer_BlittableI9JSONWriteLb1EtEvRK29SerializationCommandArgumentsR31RuntimeSerializationCommandInfo
NMc:__ZN5physx3Ext5JointINS_9PxD6JointENS_24PxD6JointGeneratedValuesEE18setConstraintFlagsENS_7PxFlagsINS_16PxConstraintFlag4EnumEtEE
G9f:_FileLoadException__ctor_m918124939
z3j:__ZL106SceneManager_t90660965_CustomAttributesCacheGenerator_SceneManager_Internal_ActiveSceneChanged_m1940652884P21CustomAttributesCache
Pk:___syscall85
oXd:__ZNK5physx13PxHeightField8isKindOfEPKc
P9:__ZN15dense_hashtableINSt3__24pairIKN4core12basic_stringIcNS2_20StringStorageDefaultIcEEEE13dynamic_arrayI4PPtrI6SpriteELj4EEEES6_20StringHash32FunctionIS6_EN14dense_hash_mapIS6_SC_SF_NS0_8equal_toIS6_EE13stl_allocatorISD_L18MemLabelIdentifier81ELi16EEE9SelectKeyESI_SL_E5clearEv
VMb:__ZNSt3__26__sortIRPFbP10GUIElementS2_EPS2_EEvT0_S7_T_
UPg:_SequentialSearchPrimeGeneratorBase_GenerateSearchBase_m2930465198
yfe:__Z14ValidateFormatR13dynamic_arrayIN20TextRenderingPrivate16TextFormatChangeELj4EE
tuj:__ZN6il2cpp2os6Thread19DetachCurrentThreadEv
LXi:__ZN6il2cpp2vmL21SetupInterfacesLockedEP11Il2CppClassRKNS_2os12FastAutoLockE
Wnb:__ZN11MonoManager23VirtualRedirectTransferER24GenerateTypeTreeTransfer
RUd:__ZNK5physx2Sc18ParticleSystemCore16getInternalFlagsEv
FPa:__ZN19StreamedBinaryWriteILb0EE8TransferI13dynamic_arrayI8Vector3fLj4EEEEvRT_PKc17TransferMetaFlags
Wz:__ZN23AnimationPlayableOutput17SetSourcePlayableEP8Playable
j8g:_Capture__ctor_m885749277
bLk:__Z114RuntimeInvoker_Int32_t2071877448_CustomAttributeTypedArgument_t1498197914_CustomAttributeTypedArgument_t1498197914PFvvEPK10MethodInfoPvPS4_
w4e:_SubmitEvent__ctor_m222860306
yJc:__ZN16ControllerFilter9preFilterERKN5physx12PxFilterDataEPKNS0_7PxShapeEPKNS0_12PxRigidActorERNS0_7PxFlagsINS0_9PxHitFlag4EnumEtEE
vS:__ZN11UnityEngine15CloudWebService14DataDispatcher15SetupWebRequestEv
Odg:_TextWriter__cctor_m4047845042
eZg:_ReceiveRecordAsyncResult_get_Record_m1336421357
Wxe:__ZN11UnityEngine15PlatformWrapper13GetShaderCapsEv
XVk:_Object_ToString_m2938729670
aJd:__ZN16MBPOS_TmpBuffers16allocateSleepingEjj
sVj:__ZL76Convert_t2607082565_CustomAttributesCacheGenerator_Convert_ToByte_m509311047P21CustomAttributesCache
n$h:_Dictionary_2_System_Collections_Generic_IEnumerableU3CSystem_Collections_Generic_KeyValuePairU3CTKeyU2CTValueU3EU3E_GetEnumerator_m1742521661_gshared
NAk:__Z87RuntimeInvoker_Void_t1841601450_RuntimeObject_StringU26_t638738783_StringU26_t638738783PFvvEPK10MethodInfoPvPS4_
Q4e:_InputField_CaretBlink_m3960486606
m0k:_TouchScreenKeyboard_set_hideInput_m962370792
zXf:_SmallXmlParser_ReadCharacters_m1966365555
P_g:_InternalAsyncResult_get_CompletedWithError_m3993955322
U8b:__ZN21FixedBehaviourManager6UpdateEv
Rdc:__ZN9Transform9SetParentEPS_NS_15SetParentOptionE
C2e:_GridLayoutGroup_set_startCorner_m1660251450
nIa:__ZN19ShaderPropertySheet8SetFloatEN9ShaderLab16FastPropertyNameEfNS_8SetFlagsE
wgk:__ZL68InputField_t1631627530_CustomAttributesCacheGenerator_m_AsteriskCharP21CustomAttributesCache
jbb:__ZN19RuntimeSceneManager24BeginIntegrateMainThreadEP10UnityScene
i$c:__ZN5physx14NpArticulation26setExternalDriveIterationsEj
cBc:__ZN16RayRTreeCallbackILi0ELb0EED0Ev
VMc:__ZNK5physx3Ext5JointINS_9PxD6JointENS_24PxD6JointGeneratedValuesEE16getInvMassScale1Ev
yOd:__ZN5physx20PxsParticleSystemSim23scheduleCollisionUpdateERNS_10PxBaseTaskE
Xsj:__ZNSt3__2plIcNS_11char_traitsIcEENS_9allocatorIcEEEENS_12basic_stringIT_T0_T1_EERKS9_S6_
Feg:_LocalDataStoreSlot__cctor_m1192669356
egb:__ZN9ShaderLab20SerializedSubProgramaSERKS0_
Q9k:_roundf
kQe:_String_CreateString_m2556700934
bGa:__ZN18StreamedBinaryReadILb0EE21TransferSTLStyleArrayINSt3__26vectorI17SortingLayerEntryNS2_9allocatorIS4_EEEEEEvRT_17TransferMetaFlags
oMc:__ZN5physx15PxBoxControllerD0Ev
At:__ZN8Animator15SetPrepareStageEv
uRh:_Slider_get_axis_m162140813
MHh:_MonoEventInfo_t2190036573_marshal_pinvoke
MXi:__ZN6il2cpp2vmL24SetupTypeHierarchyLockedEP11Il2CppClassRKNS_2os12FastAutoLockE
z0b:__ZL11TextHandleriPK23EmscriptenKeyboardEventPv
Q8e:_LayoutRebuilder_U3Cs_RebuildersU3Em__0_m3768099182
SPh:_ScrollRect_SetLayoutHorizontal_m3486408020
Uee:_destroy_face
KTk:_Material_SetIntImpl_m1039479734
nUh:_Enumerator_VerifyState_m1547102902_gshared
eMj:__ZL55StreamWriter_t3858580635_CustomAttributesCacheGeneratorP21CustomAttributesCache
nOc:__ZN5physx19PxAllocatorCallbackD2Ev
CBj:__ZN6il2cpp6icalls8mscorlib6System8Security12Cryptography24RNGCryptoServiceProvider13RngInitializeEP11Il2CppArray
yug:_List_1_System_Collections_ICollection_get_IsSynchronized_m227393674_gshared
Hvk:__Z99RuntimeInvoker_Void_t1841601450_Int32_t2071877448_Int16_t4041245914_Int16_t4041245914_RuntimeObjectPFvvEPK10MethodInfoPvPS4_
z2f:_Guid_CompareTo_m2130663100_AdjustorThunk
t2g:_IPAddress__cctor_m3624830012
Rkd:__ZNK5physx15NpActorTemplateINS_16PxParticleSystemEE17getDominanceGroupEv
mRh:_Slider_Rebuild_m3442875945
qQa:__ZN4PPtrI5LightE8TransferI19StreamedBinaryWriteILb0EEEEvRT_
MKc:__ZN5physx3Cct26CharacterControllerManager21createObstacleContextEv
d4g:_AsnEncodedData_EnhancedKeyUsageExtension_m1452131166
yhk:__ZL69Scrollbar_t3248359358_CustomAttributesCacheGenerator_m_OnValueChangedP21CustomAttributesCache
aAb:__Z19TransferField_ArrayI18StreamedBinaryReadILb1EE27Converter_SimpleNativeClassI17AnimationCurveTplIfEEEvRK23StaticTransferFieldInfoR31RuntimeSerializationCommandInfoRT0_
Y_k:_SendMouseEvents__cctor_m1448404407
sig:_KeyValuePair_2__ctor_m3201181706_gshared
kkd:__ZN5physx15NpActorTemplateINS_15PxParticleFluidEE7releaseEv
TJf:_Array_InternalArray__ICollection_CopyTo_TisUriScheme_t1876590943_m239032216_gshared
Q8g:_GroupCollection_get_IsSynchronized_m1100663675
Sha:__ZN18GfxFramebufferGLES22MakeCurrentFramebufferENS_7BuiltinE
sBj:__ZN6il2cpp2vm12MarshalAlloc4FreeEPv
p9g:_Interpreter_Close_m1500459069
Crd:__ZN5physx6shdfnd5ArrayIPNS_2Sc19ShapeInstancePairLLENS0_19ReflectionAllocatorIS4_EEE15growAndPushBackERKS4_
UDa:__ZN12CachedReader4ReadEPvj
lId:__ZN5physx21MBPPostUpdateWorkTaskD0Ev
Ple:_cf2_blues_init
w3c:__ZN5physx2Sc8BodyCore24clearSpatialAccelerationEbb
oai:_InternalEnumerator_1_System_Collections_IEnumerator_get_Current_m3600601141_gshared
sIe:_SHA1Internal_HashFinal_m3188468925
kRb:__Z24CalculateLightShadowFadeRK6CamerafffR8Vector4f
C$:__ZN19RuntimeSceneManagerD2Ev
uYj:__ZL55HeaderHandler_t324204131_CustomAttributesCacheGeneratorP21CustomAttributesCache
rni:_ChannelData_get_CustomProperties_m1470957369
k9h:_InternalEnumerator_1_System_Collections_IEnumerator_get_Current_m1313308902_AdjustorThunk
t2j:__ZL99Material_t193706927_CustomAttributesCacheGenerator_Material_Internal_CreateWithMaterial_m1941547384P21CustomAttributesCache
IOf:_Dictionary_2_Do_ICollectionCopyTo_TisRuntimeObject_m545661084_gshared
LT:__ZN11UnityEngine15CloudWebService25WebRequestDownloadHandler17OnCompleteContentEv
Bka:__ZN6prcore17GetIntegerBlitterE13TextureFormatS0_N14ImageReference8BlitModeE
vrd:__ZN5physx10PxsContext20createContactManagerERKNS_24PxvManagerDescRigidRigidEPNS_18PxsMaterialManagerE
hcj:__ZN6il2cpp2gc19AppendOnlyGCHashMapINSt3__24pairIPK11Il2CppImageP11Il2CppClassEEP22Il2CppReflectionModule17ReflectionMapHashIS9_ENS2_8equal_toIS9_EEE11TryGetValueERKS9_PSB_
CVh:_Enumerator_VerifyState_m3173176371_AdjustorThunk
Ipd:__ZN5physx2Cm12DelegateTaskINS_7NpSceneEXadL_ZNS2_12executeSolveEPNS_10PxBaseTaskEEEED0Ev
LBc:__ZN5physx2GuL18gPCMHullPrefetchCBEjPKNS_6PxVec3E
rVc:__ZN5physx2Sc5Scene31removeActiveBreakableConstraintEPNS0_13ConstraintSimE
wJk:__Z84RuntimeInvoker_Void_t1841601450_RaycastResultU5BU5DU26_t2399554255_Int32_t2071877448PFvvEPK10MethodInfoPvPS4_
B1g:_TypeConverterAttribute__cctor_m506796812
tlh:_Encoding_get_IsReadOnly_m3729101432
agc:__ZN9BlobWrite14ReduceCopyImplERK14ReduceCopyDataj
gZ:__ZNSt3__26__treeI19RepeatingLogMessageNS_4lessIS1_EE13stl_allocatorIS1_L18MemLabelIdentifier73ELi16EEE12__find_equalIS1_EERPNS_16__tree_node_baseIPvEESD_RKT_
UP:__ZN11AudioSource18IsPlayingScriptingEv
Vwh:_ValueType_t3507792607_marshal_pinvoke_back
rji:_Comparer_1_System_Collections_IComparer_Compare_m1790257529_gshared
AHk:__Z55RuntimeInvoker_Int32_t2071877448_ILTokenInfo_t149559338PFvvEPK10MethodInfoPvPS4_
UGh:_MethodInfo_get_ContainsGenericParameters_m572340060
NPh:_ScrollRect_get_flexibleWidth_m3410614750
Svd:__ZN5physx6shdfnd5ArrayINS_12PxActorShapeENS0_19ReflectionAllocatorIS2_EEE15growAndPushBackERKS2_
aCa:__ZN25MultiBlocksMemoryFileData17AdjustBlocksCountEj
Bjj:__ZNSt3__214__split_bufferIN6il2cpp2vm22EmbeddedResourceRecordERNS_9allocatorIS3_EEED2Ev
PUg:_TlsClientHello__ctor_m1699671541
_ce:__ZN13TextRendering4Font8TransferI24GenerateTypeTreeTransferEEvRT_
$oi:_Context_NotifyGlobalDynamicSinks_m2916447645
shc:__Z27CullingGroup_CUSTOM_DisposeP12Il2CppObject
oBe:__ZNSt3__26vectorIP19BaseConnectSettings13stl_allocatorIS2_L18MemLabelIdentifier6ELi16EEE21__push_back_slow_pathIKS2_EEvRT_
nAk:__Z69RuntimeInvoker_Color_t2020392075_Color_t2020392075_Single_t2076509932PFvvEPK10MethodInfoPvPS4_
dMb:__ZN13ComputeShader15SetTextureParamEjRKN9ShaderLab16FastPropertyNameE9TextureID16TextureDimension
LQh:_Shadow_set_effectDistance_m1951993364
e8c:__ZN5physx2Sc14ConstraintCore8setFlagsENS_7PxFlagsINS_16PxConstraintFlag4EnumEtEE
aDg:_Collection_1_Remove_m1798559666_gshared
Zm:_glStencilMask
ltk:__Z70RuntimeInvoker_Boolean_t3825574718_Int16_t4041245914_Int32_t2071877448PFvvEPK10MethodInfoPvPS4_
zsj:__ZN6il2cpp2os10ThreadImpl16GetCurrentThreadEv
iWd:__ZNK5physx2Sc15ClothFabricCore20getNbParticleIndicesEv
t0b:__ZN15GUIEventManager10QueueEventERK10InputEvent
hVh:_Enumerator_System_Collections_IEnumerator_get_Current_m2010873149_gshared
k$e:_Resources_t2975512894_marshal_pinvoke_cleanup
cJj:__ZL88Type_t_CustomAttributesCacheGenerator_Type_MakeGenericType_m2765875033____typeArguments0P21CustomAttributesCache
wik:__ZL74SpriteState_t1353336012_CustomAttributesCacheGenerator_m_HighlightedSpriteP21CustomAttributesCache
beh:_RealProxy__ctor_m2505535530
hzj:_GC_push_conditional_with_exclusions
nvh:_UInt32_System_IConvertible_ToUInt16_m2798641702_AdjustorThunk
$fh:_BinaryFormatter_get_DefaultSurrogateSelector_m219714691
rw:__ZN21AnimationPosePlayableD0Ev
MC:__ZN12_GLOBAL__N_121ProcessAnimationBeginER35AnimationPlayableEvaluationConstantR32AnimationPlayableEvaluationInputR33AnimationPlayableEvaluationOutput
vpk:__Z136RuntimeInvoker_Void_t1841601450_Int32_t2071877448_RuntimeObject_RuntimeObject_RuntimeObject_RuntimeObject_RuntimeObject_SByte_t454417549PFvvEPK10MethodInfoPvPS4_
qRg:_MD4Managed_Encode_m2097839378
GFg:_Collection_1_System_Collections_IList_get_IsFixedSize_m3252091801_gshared
r_e:_FloatTween_get_ignoreTimeScale_m4161298485_AdjustorThunk
oJh:_MonoProperty_GetOptionalCustomModifiers_m3827844355
U6k:_strrchr
JUc:__ZN5physx2Sc7BodySim6wakeUpEv
ISf:_SimpleCollator_GetSortKey_m2188419329
lrd:__ZN5physx6shdfnd8PoolBaseINS_2Gu30LargePersistentContactManifoldENS0_19ReflectionAllocatorIS3_EEE17releaseEmptySlabsEv
eVc:__ZN5physx2Sc21ConstraintInteraction7destroyEv
ojk:__ZL56LayoutElement_t2808691390_CustomAttributesCacheGeneratorP21CustomAttributesCache
jNh:_Scrollbar_Set_m244028386
IFd:__ZN5physx13PxsSolverCoreD2Ev
CQa:__ZN14RenderSettings27UpdateIndirectSpecularColorEv
sMk:__Z102RuntimeInvoker_RuntimeObject_UILineInfo_t3621277874_UILineInfo_t3621277874_RuntimeObject_RuntimeObjectPFvvEPK10MethodInfoPvPS4_
S8a:__ZN14PlayerSettings8TransferI18StreamedBinaryReadILb0EEEEvRT_
Dli:_FixedBufferAttribute__ctor_m2048050068
w4i:__ZN6il2cpp6icalls8mscorlib6System8MonoType16GetMethodsByNameEP20Il2CppReflectionTypeP12Il2CppStringibS5_
xTk:_Logger_Log_m302200299
Rsd:__ZNK5physx7NpScene16getNbConstraintsEv
JPf:_LayoutGroup_SetProperty_TisAxis_t1431825778_m2174054513_gshared
Oed:__ZN5physx7NpCloth14setWakeCounterEf
j_a:__ZN4PPtrI10GameObjectE8TransferI14SafeBinaryReadEEvRT_
KKh:_Mask_IsRaycastLocationValid_m62488857
GIb:__ZNSt3__27__sort3IRNS_4lessIN22BuiltinResourceManager8ResourceEEEPS3_EEjT0_S7_S7_T_
Hii:_DefaultComparer_Compare_m3472472212_gshared
CKk:__Z31RuntimeInvoker_Slot_t2022531261PFvvEPK10MethodInfoPvPS4_
cag:_MonoIO_GetLength_m2812344043
Bke:_ps_hints_t2mask
O6j:__ZL68UsedByNativeCodeAttribute_t3212052468_CustomAttributesCacheGeneratorP21CustomAttributesCache
Ggj:__ZN14dense_hash_mapI10KeyWrapperINSt3__24pairIP11Il2CppClassjEEES4_N6il2cpp8metadata14ArrayClassHashENS6_14EqualsComparerINS8_17ArrayClassCompareEEENS1_9allocatorINS2_IKS6_S4_EEEEEC2EjRKS9_RKSC_
f4a:__ZN10BlendShape8TransferI19StreamedBinaryWriteILb0EEEEvRT_
zXd:__ZNK5physx2Gu11HeightField17getReferenceCountEv
jI:__Z32TransferEnumWithNameForceIntSizeI14SafeBinaryReadN10SampleClip8LoadTypeEEvRT_RT0_PKc17TransferMetaFlags
u7f:__Z21il2cpp_codegen_sizeofP11Il2CppClass
Joa:__Z19GetTimeSinceStartupv
xSa:__ZN7Texture23VirtualRedirectTransferER17RemapPPtrTransfer
UMe:_SecurityFrame_get_Assembly_m2816566490
sGh:_FieldInfo_GetPseudoCustomAttributes_m2500972355
pKe:_X509Certificate_GetEffectiveDateString_m644894317
MUi:_CanvasRenderer_set_hasPopInstruction_m3302400555
Fpe:_TT_Load_Composite_Glyph
SPi:__ZL25UnresolvedVirtualCall_161P12Il2CppObject22UILineInfo_t3621277874S1_PK10MethodInfo
C$j:__ZL84Camera_t189460977_CustomAttributesCacheGenerator_Camera_get_targetTexture_m505846373P21CustomAttributesCache
vIj:__ZL66RuntimeArray_CustomAttributesCacheGenerator_Array_Sort_m2323017822P21CustomAttributesCache
Aaf:_Array_Sort_m2994254654
hwg:_List_1__ctor_m593058937_gshared
kFf:_Array_InternalArray__IEnumerable_GetEnumerator_TisColor32_t874517518_m2198639025_gshared
DPb:__ZN29RenderNodeQueuePrepareContextC2Ev
fP:__ZN10SampleClipC2E18MemLabelIdentifier18ObjectCreationMode
ghb:__ZN9ShaderLab20SerializedSubProgram16TextureParameter8TransferI24GenerateTypeTreeTransferEEvRT_
iba:__ZN9GfxDevice19SaveStereoConstantsEv
fqh:_Thread_set_Name_m1343706609
$Bj:__ZN6il2cpp2os11MutexHandle4WaitEj
Qec:__ZL34GetComponentsImplementationRecurseILb1ELi1ELi1EEbR10GameObjectbRK17CompareParametersRK39GetComponentsImplementation_ReturnValue
_Bj:__ZN6il2cpp2os11MutexHandle4WaitEv
Vff:_ArrayList_set_Capacity_m592558035
uma:__ZN6prcoreL17RemapGenericFloatI15TexFormatRGHalf18TexFormatARGBFloatEEvPKNS_9InnerInfoE
Ofg:_MonoEnumInfo_t2335995564_marshal_pinvoke_cleanup
IRa:__ZNK13RenderTexture13GetDataHeightEv
jHb:__Z18SimulateMouseInputi
t6f:_Int64_System_IConvertible_ToDecimal_m3390697048_AdjustorThunk
xLb:__ZN13RenderManager23AddRemoveCamerasDelayedEv
Ytc:__ZN9JSONWrite8TransferI13dynamic_arrayIdLj8EEEEvRT_PKc17TransferMetaFlags
Pya:__ZN23PreloadManagerOperation11GetPriorityEv
pzf:_Exception_get_InnerException_m3722561235
dPk:_Color_op_Multiply_m2110750533
iDf:_Array_InternalArray__ICollection_Remove_TisILTokenInfo_t149559338_m1523907845_gshared
Aud:__ZN5physx2Sq17SceneQueryManager11shiftOriginERKNS_6PxVec3E
h9h:_InternalEnumerator_1_System_Collections_IEnumerator_Reset_m138745466_AdjustorThunk
yCk:__Z105RuntimeInvoker_Void_t1841601450_Vector2U26_t3911752445_RuntimeObject_RuntimeObject_Vector2U26_t3911752445PFvvEPK10MethodInfoPvPS4_
Ysg:_List_1_GetEnumerator_m4053501645_gshared
U9d:__ZNK5Unity5Joint16GetCurrentForcesER8Vector3fS2_
c3i:__ZN6il2cpp2gc9AllocatorIP17Il2CppAsyncResultE10deallocateEPvj
gkf:_Hashtable_Rehash_m2877670513
tMk:__Z98RuntimeInvoker_RuntimeObject_UIVertex_t1204258818_UIVertex_t1204258818_RuntimeObject_RuntimeObjectPFvvEPK10MethodInfoPvPS4_
GXb:__ZN13RenderTexture8SetWidthEi
O6e:_InputField_Insert_m1593238693
I3b:__ZNK28RectTransformPropertyBinding12SetPPtrValueERKN11UnityEngine9Animation10BoundCurveEi
hBb:__Z18Transfer_BlittableI18StreamedBinaryReadILb0EELb0EfEvRK29SerializationCommandArgumentsR31RuntimeSerializationCommandInfo
r4a:__ZN10MeshFilterD0Ev
dge:_UNITY_FT_GlyphLoader_CheckSubGlyphs
e3i:__ZN6il2cpp2vm21ThreadPoolCompartment20SpawnNewWorkerThreadEv
wIf:_Array_InternalArray__ICollection_Add_TisCustomAttributeTypedArgument_t1498197914_m3260005285_gshared
PRb:__Z25SetupObjectBakedOcclusionbRK15SharedLightDataRK26SharedLightmapSettingsDataRK15LightmapIndicesR17ShaderPassContext
gri:__ZN21InterfaceFuncInvoker4IP17Match_t3164245899P17Regex_t1803876613P8String_tiiE6InvokeEjP11Il2CppClassP12Il2CppObjectS3_S5_ii
F2f:_Guid_GetHashCode_m1401300871
DHi:_ListPool_1_U3Cs_ListPoolU3Em__0_m1243609651_gshared
rNj:__ZL61CallingConventions_t1097349142_CustomAttributesCacheGeneratorP21CustomAttributesCache
Nad:__ZNK5physx9NpFactory11getNbShapesEv
y0e:_FontData__ctor_m3822008992
V3k:_Physics_RaycastAll_m2063450935
YMi:__ZL23UnresolvedVirtualCall_5P12Il2CppObjectsPK10MethodInfo
uE:__ZN4PPtrI6AvatarE8TransferI19StreamedBinaryWriteILb0EEEEvRT_
R$h:_Dictionary_2_System_Collections_IDictionary_set_Item_m115188189_gshared
rZ:__ZN9ShaderLab16FastPropertyName4InitEPKc
QYj:__ZL79ModulusRing_t80355992_CustomAttributesCacheGenerator_ModulusRing_Pow_m661630322P21CustomAttributesCache
O2b:__Z13RegisterClassIN2UI13RectTransformEEvv
eSf:_MSCompatUnicodeTable_ToWidthCompat_m2299599532
I0j:__ZL88GameObject_t1756533147_CustomAttributesCacheGenerator_GameObject_AddComponent_m540062519P21CustomAttributesCache
Ehg:_NumberFormatter_get_IsFloatingSource_m2830957202
U6b:__ZL31MeshRendererTransformChangedJobP13BoundsJobDatajPK23TransformAccessReadOnlyPKyj
Cxe:__ZN11UnityEngine15PlatformWrapper19GetPhysicalMemoryMBEv
R0a:__ZN10VertexData8TransferI17RemapPPtrTransferEEvRT_
mRa:__ZN13RenderTexture9SetMipMapEb
GZi:__ZN15dense_hashtableINSt3__24pairIK10KeyWrapperIPK11Il2CppClassEPKcEES6_N6il2cpp5utils11PointerHashIS3_EEN14dense_hash_mapIS6_S9_SE_NS6_14EqualsComparerINS0_8equal_toIS5_EEEENS0_9allocatorISA_EEE9SelectKeyESJ_SL_E13set_empty_keyERKSA_
SOh:_ScrollRect_set_verticalScrollbarSpacing_m2356851539
MOd:__ZN5physx2Sc10ClothShape21updateBoundsInAABBMgrEv
t_k:_ResourceRequest_t2560315377_marshal_pinvoke_back
kZi:__ZN14dense_hash_mapI10KeyWrapperIPK11Il2CppClassEPKcN6il2cpp5utils11PointerHashIS1_EENS4_14EqualsComparerINSt3__28equal_toIS3_EEEENSC_9allocatorINSC_4pairIKS4_S6_EEEEEC2EjRKSA_RKSF_
bmc:__Z38Transform_CUSTOM_INTERNAL_get_rotationP12Il2CppObjectP11Quaternionf
S8i:__ZNSt3__26vectorIN6il2cpp2vm17TypeNameParseInfoENS_9allocatorIS3_EEE8allocateEj
sOj:__ZL66CriticalFinalizerObject_t1920899984_CustomAttributesCacheGeneratorP21CustomAttributesCache
Ybj:__ZNK15dense_hashtableINSt3__24pairIK10KeyWrapperINS1_IPK10MethodInfoP11Il2CppClassEEEjEES9_17ReflectionMapHashIS8_EN14dense_hash_mapIS9_jSD_NS9_14EqualsComparerINS0_8equal_toIS8_EEEENS0_9allocatorISB_EEE9SelectKeyESI_SK_E5beginEv
zna:__ZN7ApiGLES19UploadBufferSubDataEjN2gl12BufferTargetEllPKv
TCd:__ZN5physx2Sc5Scene17createClothSolverEv
B9:__ZNSt3__216__rotate_forwardINS_11__wrap_iterIPN4core12basic_stringIcNS2_20StringStorageDefaultIcEEEEEEEET_S9_S9_S9_
rOe:_String_System_IConvertible_ToInt32_m1927223638
d5:__ZdaPv
Uid:__ZNK5physx15PxsParticleData16getMaxParticlesVEv
Ujh:_CryptographicException__ctor_m406825529
_Wh:_Transform_1_EndInvoke_m4121732147_gshared
jSk:_FailedToLoadScriptObject_t3605283378_marshal_pinvoke_back
D6d:__ZThn116_N5physx7profile8ZoneImplINS_28PxProfileNameProviderForwardEE12removeClientERNS_19PxProfileZoneClientE
pId:__ZN15MBP_PairManager17removeMarkedPairsEPK10MBP_ObjectPN5physx16PxsBroadPhaseMBPERK8BitArrayS8_
yQe:_ASCIIEncoding__ctor_m4127831672
uPk:_GameObject_GetComponent_m724360550
KRj:__ZL71AsymmetricSignatureFormatter_t4058014248_CustomAttributesCacheGeneratorP21CustomAttributesCache
lqb:__Z19TransferField_ArrayI14SafeBinaryRead27Converter_SimpleNativeClassI8GUIStyleEEvRK23StaticTransferFieldInfoR31RuntimeSerializationCommandInfoRT0_
ODb:__ZN9TextAsset23VirtualRedirectTransferER19StreamedBinaryWriteILb0EE
kmh:_UTF8Encoding__ctor_m3336862259
kmj:__ZN15dense_hashtableINSt3__24pairIK10KeyWrapperIP14Il2CppIUnknownEjEES5_N6il2cpp5utils11PointerHashIS3_EEN14dense_hash_mapIS5_jSB_NS5_14EqualsComparerINS0_8equal_toIS4_EEEENS0_9allocatorIS7_EEE9SelectKeyESG_SI_ED2Ev
PBj:__ZN6il2cpp5utils10MemoryPoolC2Ej
y6g:_X509Chain_GetAuthorityKeyIdentifier_m2607407678
LBj:__ZN6il2cpp5utils10MemoryPoolC2Ev
_Pa:__ZN14RenderSettings5ResetEv
D1b:__ZN6Sprite9BindAtlasERK4PPtrI11SpriteAtlasE
Fqc:__ZN5Unity9rapidjson12GenericValueINS0_4UTF8IcEE13JSONAllocatorE10FindMemberIS4_EENS0_21GenericMemberIteratorILb0ES3_S4_EERKNS1_IS3_T_EE
kad:__ZN5physx9NpPhysics33unregisterDeletionListenerObjectsERNS_18PxDeletionListenerEPKPKNS_6PxBaseEj
Mgd:__ZNK5physx2Sc9ClothCore22getAngularInertiaScaleEv
MVe:_RaycastResult_set_gameObject_m1138581891_AdjustorThunk
erc:__ZN5Unity9rapidjson13GenericReaderINS0_4UTF8IcEES3_13JSONAllocatorE11ParseNumberILj1ENS0_25GenericInsituStringStreamIS3_EENS0_15GenericDocumentIS3_S4_S4_EEEEvRT0_RT1_
V1c:__ZN5physx20NpRigidActorTemplateINS_18PxArticulationLinkEE12setActorFlagENS_11PxActorFlag4EnumEb
t5a:__ZN14SpriteRenderer14OnChangeSpriteEv
$Of:_Dictionary_2_Do_ICollectionCopyTo_TisKeyValuePair_2_t3716250094_m1740410536_gshared
v2h:_DefaultComparer__ctor_m580747638_gshared
jsj:__ZN6il2cpp2os10ThreadImplD2Ev
FYf:_RSAManaged_Dispose_m3018788098
$rc:__ZN8Gradient8TransferI9JSONWriteEEvRT_
tph:_Monitor_Monitor_pulse_m2135582245
jWg:_Context_get_ReceivedConnectionEnd_m3369356276
Z0g:_NameObjectCollectionBase_get_Count_m2353593692
Vek:__ZL73U3COnFinishSubmitU3Ec__Iterator0_t99135383_CustomAttributesCacheGeneratorP21CustomAttributesCache
sya:__ZNK12TLSAllocatorI14StackAllocatorE22GetAllocatedMemorySizeEv
Ws:__ZN7mecanim6memory16ChainedAllocator8AllocateEjj
grf:_Convert_ToUInt32_m3394039268
QQk:_DisplaysUpdatedDelegate_EndInvoke_m1055876886
hdc:__Z32GetSceneHierarchyPathDescriptivePK6Object
wlb:__ZN12HandlerChain4NameEv
kn:FUNCTION_TABLE_fiiiiiifiiiiiif
e7a:__ZNSt3__26vectorI9InputAxisNS_9allocatorIS1_EEE10deallocateEv
ERd:__ZN5physx37setupFinalizeSolverConstraintsCoulombERNS_13PxcNpWorkUnitERKNS_2Gu13ContactBufferERKNS_27PxcCorrelationBufferCoulombERKNS_11PxTransformESB_bPhRKNS_13PxcSolverBodyESF_RKNS_17PxcSolverBodyDataESI_ffjffff
D3f:_Int16_Equals_m3925135434_AdjustorThunk
Eve:__Z44Register_UnityEngine_CanvasRenderer_get_cullv
OWi:__ZN15dense_hashtableINSt3__24pairIK10KeyWrapperIPK22Il2CppGenericParameterEP11Il2CppClassEES6_N6il2cpp5utils11PointerHashIS4_EEN14dense_hash_mapIS6_S9_SE_NS6_14EqualsComparerINS0_8equal_toIS5_EEEENS0_9allocatorISA_EEE9SelectKeyESJ_SL_ED2Ev
QKj:__ZL60IHashCodeProvider_t1980576455_CustomAttributesCacheGeneratorP21CustomAttributesCache
j3b:__ZN13ProduceHelperI13MonoBehaviourLb0EE7ProduceE18MemLabelIdentifier18ObjectCreationMode
OOc:_RevoluteJointSolverPrep
okg:_Enumerator_VerifyState_m1677639504_AdjustorThunk
V$b:__Z29StdTemplateConversionFunctionIbbEbPvR14SafeBinaryRead
ivj:__ZNK15dense_hashtableINSt3__24pairIK10KeyWrapperIPK19Il2CppGenericMethodEP10MethodInfoEES6_N6il2cpp8metadata23Il2CppGenericMethodHashEN14dense_hash_mapIS6_S9_SD_NS6_14EqualsComparerINSC_26Il2CppGenericMethodCompareEEENS0_9allocatorISA_EEE9SelectKeyESH_SJ_E12test_deletedEj
ZTg:_CipherSuiteCollection_get_Item_m280627160
oob:__Z44InitializeTransferFunctionScriptingTraitsForI17RemapPPtrTransferEvR31TransferFunctionScriptingTraits
hbh:_SerializationInfoEnumerator_MoveNext_m1876990879
Lrh:_TimeSpan_Duration_m4205681645
CZb:__ZN14UnityWebStream24UpdateAllUnityWebStreamsEv
y3b:__ZNSt3__26vectorI16MessageForwarder13stl_allocatorIS1_L18MemLabelIdentifier7ELi8EEE6resizeEj
GAg:_Collection_1_System_Collections_IList_get_IsReadOnly_m2329986891_gshared
qJj:__ZL60ObsoleteAttribute_t3878847927_CustomAttributesCacheGeneratorP21CustomAttributesCache
$vi:_Uri_ParseAsWindowsAbsoluteFilePath_m1108586962
wVg:_Context_get_HandshakeState_m3443153737
Dah:_CostDelegate_BeginInvoke_m1628968398
_Jf:_Array_InternalArray__ICollection_CopyTo_TisRaycastHit2D_t4063908774_m3837098618_gshared
qHd:__ZN5physx31ComputeCreatedDeletedPairsListsEPKjS1_jRPNS_17PxcBroadPhasePairERjS5_S4_S5_S5_RNS_14SapPairManagerE
hbb:__ZN18LoadSceneOperation21MustCompleteNextFrameEv
t$k:_DataUtility_GetInnerUV_m593541260
DTc:__ZL28GeomOverlapCallback_MeshMeshRKN5physx10PxGeometryERKNS_11PxTransformES2_S5_PNS_2Gu12TriggerCacheE
RN:__ZNK12AudioManager16GetAudioListenerEv
THh:_MonoField_get_FieldType_m598011426
FAg:_Collection_1_System_Collections_IList_get_IsFixedSize_m1624702704_gshared
v$j:__ZL48Camera_t189460977_CustomAttributesCacheGeneratorP21CustomAttributesCache
mXb:__ZNSt3__26vectorI11CameraStackNS_9allocatorIS1_EEE8__appendEj
vjj:__ZNSt3__212basic_stringIcNS_11char_traitsIcEENS_9allocatorIcEEE6__initINS_11__wrap_iterIPcEEEENS_9enable_ifIXsr21__is_forward_iteratorIT_EE5valueEvE4typeESB_SB_
sMd:__ZN5physx2Gu16pcmContactBoxBoxERKNS0_13GeometryUnionES3_RKNS_11PxTransformES6_RKfRNS0_5CacheERNS0_13ContactBufferE
X5e:_InputField_OnDisable_m1865339380
kvh:_UInt32_System_IConvertible_ToType_m747769316
Zu:__ZN7mecanim9animation12GetHumanPoseERKNS0_18ClipMuscleConstantEPKNS0_10ValueDeltaERNS_5human9HumanPoseE
Ow:__ZN22AnimationMixerPlayable17ProcessRootMotionEP35AnimationPlayableEvaluationConstantP32AnimationPlayableEvaluationInputP33AnimationPlayableEvaluationOutput
Lxb:__Z29Transfer_Blittable_ArrayFieldI19StreamedBinaryWriteILb0EEjEvRT_R9ArrayInfoRK23StaticTransferFieldInfo
b3:__Z13GetFileSystemv
O7b:__ZZL23RegisterLightPropertiesR22GenericPropertyBindingEN29Wrapper_LightColorTemperature13SetFloatValueEPvf
u4:__ZNK5Unity4Type21FindAllDerivedClassesER13dynamic_arrayIPKS0_Lj4EENS0_17TypeFilterOptionsE
$4:__ZN13RuntimeStaticI15GUIEventManagerLb0EE16StaticInitializeEPv
q6a:__ZN14SafeBinaryRead8TransferIfEEvRT_PKc17TransferMetaFlags
rCb:__ZL12InvokeMethodI18StreamedBinaryReadILb0EEEvRK29SerializationCommandArgumentsR31RuntimeSerializationCommandInfo
t0f:_DaylightTime_get_Delta_m2316831491
G5d:__ZN15RaycastCallback14processTouchesEPKN5physx12PxRaycastHitEj
DCf:_Array_InternalArray__ICollection_Contains_TisUILineInfo_t3621277874_m1175659630_gshared
oAk:__Z70RuntimeInvoker_Boolean_t3825574718_Color_t2020392075_Color_t2020392075PFvvEPK10MethodInfoPvPS4_
arh:_WaitHandle_WaitOne_m370363697
Hdk:__ZL114PointerEventData_t1599784723_CustomAttributesCacheGenerator_PointerEventData_set_pointerCurrentRaycast_m2431897513P21CustomAttributesCache
E8g:_FactoryCache_Lookup_m1681894361
Dtf:_DateTime_Subtract_m698282245_AdjustorThunk
x5a:__ZThn32_N14SpriteRenderer15AddAsRenderNodeER15RenderNodeQueueRK20DeprecatedSourceData
$ii:_DefaultComparer__ctor_m2470932885_gshared
MYd:__ZN5physx2Gu5RTree15exportExtraDataERNS_22PxSerializationContextE
mHf:_Array_InternalArray__IndexOf_TisResourceCacheItem_t333236149_m761772858_gshared
sAb:__Z29Transfer_Blittable_ArrayFieldI18StreamedBinaryReadILb1EE5RectTIfEEvRT_R9ArrayInfoRK23StaticTransferFieldInfo
aXj:__ZL79Convert_t2607082565_CustomAttributesCacheGenerator_Convert_ToUInt64_m1896191125P21CustomAttributesCache
qMb:__ZN19ShaderPropertySheet9SetMatrixEN9ShaderLab16FastPropertyNameERK10Matrix4x4fNS_8SetFlagsE
TGe:_RIPEMD160Managed_Initialize_m3365407578
HXa:__Z29GetTextureSizeAllowedMultiple13TextureFormat
s2g:_IPAddress_HostToNetworkOrder_m1092199707
aCd:__ZNK5physx2Sq10AABBPruner7overlapERKNS0_9ShapeDataERNS0_14PrunerCallbackE
sEf:_SetPropertyUtility_SetStruct_TisSpriteState_t1353336012_m2898060836_gshared
fKb:__ZZ23InitPlayerLoopCallbacksvEN52InitializationAsyncUploadTimeSlicedUpdateRegistrator7ForwardEv
$Ke:_SecurityAttribute__ctor_m3425755778
YNk:_Bounds_set_center_m1010418458
hCk:__Z68RuntimeInvoker_RuntimeObject_Vector3_t2243707580_Vector3_t2243707580PFvvEPK10MethodInfoPvPS4_
k9b:__ZN21IntermediateRenderers3AddEP20IntermediateRenderer
Y5i:_il2cpp_array_element_size
mrd:__ZN5physx6shdfnd5ArrayIPvNS0_19ReflectionAllocatorINS_2Gu30LargePersistentContactManifoldEEEE4copyINS0_15InlineAllocatorILj256ES6_EEEEvRKNS1_IS2_T_EE
vg:_glCheckFramebufferStatus
l7j:__ZL55TextGenerator_t647235000_CustomAttributesCacheGeneratorP21CustomAttributesCache
KFf:_Array_compare_TisInt32_t2071877448_m840310202_gshared
Knj:__ZN15dense_hashtableINSt3__24pairIK10KeyWrapperINS1_IPKcS4_EEEiEES6_24NamespaceAndNamePairHashN14dense_hash_mapIS6_iS9_NS6_14EqualsComparerI26NamespaceAndNamePairEqualsEENS0_9allocatorIS8_EEE9SelectKeyESD_SF_E12resize_deltaEjj
eii:_InternalEnumerator_1_System_Collections_IEnumerator_get_Current_m442726479_AdjustorThunk
VU:__ZN19CloudServiceHandler20StartEventDispatcherERKN11UnityEngine15CloudWebService18CloudServiceConfigERNS1_23WebRequestRestHeaderMapE
mgi:_InternalEnumerator_1_System_Collections_IEnumerator_get_Current_m790514740_AdjustorThunk
cUd:__ZN5physx2Cm12DelegateTaskINS_2Sc5SceneEXadL_ZNS3_19updateCCDSinglePassEPNS_10PxBaseTaskEEEE11runInternalEv
cOc:__ZN5physx6string9sprintf_sEPcjPKcz
aIj:__ZL74RuntimeArray_CustomAttributesCacheGenerator_Array_BinarySearch_m2287427837P21CustomAttributesCache
G$d:__ZThn8_N5physx19TriangleMeshBuilderD1Ev
UFk:__Z78RuntimeInvoker_Boolean_t3825574718_TransitionU26_t3012618447_Int32_t2071877448PFvvEPK10MethodInfoPvPS4_
URf:__Z37il2cpp_codegen_get_executing_assemblyPK10MethodInfo
HFc:__ZN5physx2Gu16intersectRayAABBERKNS_6PxVec3ES3_S3_S3_RfS4_
Wkb:__ZN9Transform23VirtualRedirectTransferER17RemapPPtrTransfer
_id:__ZNK5physx2Sc18ParticleSystemCore23getRestParticleDistanceEv
Fzk:__Z72RuntimeInvoker_Boolean_t3825574718_Bounds_t3033363703_Bounds_t3033363703PFvvEPK10MethodInfoPvPS4_
hu:__ZN21AnimationClipPlayable7SetTimeEd
MJj:__ZL57TypedReference_t1025199857_CustomAttributesCacheGeneratorP21CustomAttributesCache
MGf:_Array_InternalArray__IndexOf_TisByte_t3683104436_m3605266236_gshared
nGg:_Collection_1_System_Collections_IList_Insert_m435904526_gshared
z7b:__ZZL23RegisterLightPropertiesR22GenericPropertyBindingEN22Wrapper_LightIntensity13GetFloatValueEPv
VMh:_RaycastAllCallback_Invoke_m981876639
Ylh:_UnicodeEncoding__ctor_m72484327
MRd:__ZN5physx30setupFinalizeSolverConstraintsERNS_13PxcNpWorkUnitERKNS_2Gu13ContactBufferERKNS_20PxcCorrelationBufferERKNS_11PxTransformESB_bPhRKNS_13PxcSolverBodyESF_RKNS_17PxcSolverBodyDataESI_ffffff
nmj:__ZN14dense_hash_mapI10KeyWrapperIP14Il2CppIUnknownEjN6il2cpp5utils11PointerHashIS1_EENS3_14EqualsComparerINSt3__28equal_toIS2_EEEENS9_9allocatorINS9_4pairIKS3_jEEEEE15set_deleted_keyERSF_
J4:__ZN22BuiltinResourceManager16StaticInitializeEPv
$6c:__ZN5physx7NpScene17releaseBatchQueryEPNS_12PxBatchQueryE
uij:__ZN6il2cpp2gc9AllocatorIP12Il2CppThreadE10deallocateEPvj
Kod:__ZN5physx20NpRigidActorTemplateINS_13PxRigidStaticEE11attachShapeERNS_7PxShapeE
zej:__ZN13Il2CppHashMapIPK14Il2CppAssemblyPK22Il2CppMonoAssemblyNameN6il2cpp5utils11PointerHashIS1_EENSt3__28equal_toIS2_EENSA_9allocatorINSA_4pairIK10KeyWrapperIS2_ES5_EEEEEC2EjRKS9_RKSC_
dRd:__ZN5physx26solveVBlockDefaultFrictionEPNS_13PxsSolverCoreEfjjPNS_13PxcSolverBodyEPNS_17PxcSolverBodyDataEjjPNS_25PxcArticulationSolverDescEjPNS_23PxcSolverConstraintDescEjS9_jRNS_6shdfnd5ArrayINS_24PxsConstraintBatchHeaderENSA_19ReflectionAllocatorISC_EEEESG_PNS_2Cm13SpatialVectorEPNS_25PxcThresholdStreamElementEjRj
UVg:_ClientSessionInfo_SetContext_m2649357891
ZWk:_PropertyAttribute__ctor_m1714388149
B5f:_Int32_System_IConvertible_ToInt64_m3790029067_AdjustorThunk
p5c:__ZN5physx15NpActorTemplateINS_18PxArticulationLinkEE17resolveReferencesERNS_24PxDeserializationContextE
KSe:_RaycasterManager_GetRaycasters_m1154876874
f$g:_SslStreamBase_InternalReadCallback_m2524917586
g2:__ZN8Remapper6RemoveEi
npg:_List_1_CheckCollection_m2608305187_gshared
Hyd:__ZN5physx19NpRigidBodyTemplateINS_18PxArticulationLinkEE9visualizeERNS_2Cm12RenderOutputEPNS_7NpSceneE
lGd:__ZN5physx11writeBack1DERKNS_23PxcSolverConstraintDescERNS_16PxcSolverContextERNS_17PxcSolverBodyDataES6_
yth:_Type_get_ContainsGenericParameters_m505913180
pfc:__ZN9Scripting27CreateArgumentNullExceptionEPKc
Bfe:__ZL36CleanupTextRenderingScriptingClassesv
Cnk:__Z52RuntimeInvoker_UInt32_t2149682021_Decimal_t724701077PFvvEPK10MethodInfoPvPS4_
hBc:__ZThn4_N16RayRTreeCallbackILi0ELb0EED0Ev
DXb:__ZN15ReflectionProbe17UseRendererResultEP13ProbeRenderer
gaf:_Array_BinarySearch_m3270245097
Tjc:__Z34Mesh_CUSTOM_SetArrayForChannelImplP12Il2CppObject30InternalScriptingShaderChannel34InternalScriptingVertexChannelTypeiP11Il2CppArrayi
p9f:_MonoIO_DeleteFile_m3273821223
QTf:_BigInteger_GenerateRandom_m2507308768
esf:_DateTime_System_IConvertible_ToDouble_m1431748426_AdjustorThunk
pCf:_Array_InternalArray__ICollection_Contains_TisUInt16_t986882611_m510319131_gshared
zxd:__ZNK5physx2Sc5Scene20getNbParticleSystemsEv
Zvf:_Decimal_ToString_m541380585
r9g:_RepeatContext_get_Previous_m808449037
BDk:__Z46RuntimeInvoker_CharacterValidation_t3437478890PFvvEPK10MethodInfoPvPS4_
tGh:_MemberFilter__ctor_m1775909550
o6i:_il2cpp_class_is_valuetype
mG:__ZN11UnityEngine9Animation28GenericAnimationBindingCache25RegisterIAnimationBindingEPKN5Unity4TypeEiP17IAnimationBinding
gBd:__ZN5physx2Gu17GetGeomSweepFuncsEv
YWc:__ZN5physx6shdfnd8PoolBaseINS_15PxsArticulationENS0_16AlignedAllocatorILj64ENS0_9AllocatorEEEE17releaseEmptySlabsEv
Nyf:_Enum_ToObject_m2601523252
G_g:_InternalAsyncResult_get_FromWrite_m2893408424
DXi:__ZN6il2cpp2vm5Class15GetElementClassEP11Il2CppClass
w8e:_U3CDelayedSetDirtyU3Ec__Iterator0_System_Collections_IEnumerator_get_Current_m851854792
pid:__ZN5physx22NpParticleBaseTemplateINS_15PxParticleFluidENS_15NpParticleFluidEE23setParticleReadDataFlagENS_22PxParticleReadDataFlag4EnumEb
dWb:__Z40ProcessCameraIndexListIsNodeVisibleInOutRK22SceneCullingParametersPK9SceneNodePK4AABBR9IndexList
noh:_UTF7Encoding_GetBytes_m3015176946
mMa:__ZN16GraphicsSettings8TransferI17RemapPPtrTransferEEvRT_
NPg:_BigInteger_op_LessThanOrEqual_m3528380540
xcg:_StreamReader__ctor_m2654332332
qte:__ZN2UI6Canvas13UpdateBatchesEb
oWk:_Playable__cctor_m3745623656
Tz:__ZNK23AnimationPlayableOutput11DerivesFromE17ScriptingClassPtr
zdk:__ZL105PointerEventData_t1599784723_CustomAttributesCacheGenerator_PointerEventData_set_pointerEnter_m1440587006P21CustomAttributesCache
GWa:__ZN7Texture19SupportsAsyncUploadI19StreamedBinaryWriteILb0EEEEbRT_
$Ok:_Color_op_Implicit_m3487763211
tng:_List_1_CheckCollection_m3968030679_gshared
iTi:_Predicate_1_BeginInvoke_m3556950370_gshared
Tbd:__ZN5physx2Gu5Debug9visualizeERKNS_13PxBoxGeometryERNS_2Cm12RenderOutputERKNS5_8Matrix34ERKNS_9PxBounds3Eyfj
Smh:_StringBuilder_ToString_m617673931
Xaa:__ZNK13GfxDeviceGLES12GetWireframeEv
Roh:_UTF8Encoding_GetString_m1836344205
Ezc:__ZN5physx6shdfnd5ArrayIPKvNS0_19ReflectionAllocatorIS3_EEE6resizeEjRKS3_
AKg:_ReadOnlyCollection_1_System_Collections_ICollection_get_IsSynchronized_m3127987432_gshared
wye:__ZN11UnityEngine7Connect13ConfigHandler12GetListenersERKN4core12basic_stringIcNS2_20StringStorageDefaultIcEEEE
m8j:__ZL110AudioSource_t1135106623_CustomAttributesCacheGenerator_AudioSource_INTERNAL_CALL_ReadExtensionName_m3515549821P21CustomAttributesCache
Aca:__ZN9GfxDevice18AllocRenderSurfaceEb
KMh:_GetRayIntersectionAllNonAllocCallback_BeginInvoke_m273046189
SRd:__ZN5physx31setupFinalizeSolverConstraints4EPNS_21PxcSolverContact4DescERNS_18PxcNpThreadContextEPhffRKNS_6shdfnd3aos5Vec4VES9_S9_S9_
Atd:__ZN5physx7NpScene5flushEb
x1b:__ZN10TagManager32GetSortingLayerUniqueIDFromValueEi
aui:_AnchorInfo_get_IsComplete_m1247624133
S$e:_Dropdown_Show_m324374589
e$:__ZL27CleanupCoreScriptingClassesv
Mpk:__Z68RuntimeInvoker_RuntimeObject_RuntimeObject_DSAParameters_t1872138834PFvvEPK10MethodInfoPvPS4_
D$i:__ZNSt3__27__sort3IRN6il2cpp5utils11collections13ArrayValueMapIPK10Il2CppType17Il2CppInteropData26InteropDataToTypeConverterNS1_8metadata14Il2CppTypeLessENSA_26Il2CppTypeEqualityComparerEE12SortComparerEPS8_EEjT0_SH_SH_T_
lAc:__ZN5physx2Gu13GeometryUnion3setERKNS_10PxGeometryE
DEk:__Z101RuntimeInvoker_Void_t1841601450_RuntimeObject_Int32_t2071877448_Single_t2076509932_Single_t2076509932PFvvEPK10MethodInfoPvPS4_
wKc:__ZThn8_N5physx3Cct17CapsuleController15getPxControllerEv
TJi:_GenericComparer_1__ctor_m3575096182_gshared
dVe:_RaycastResult_get_isValid_m2482925612
Ojc:__Z26AnimationCurve_CUSTOM_InitP12Il2CppObjectP11Il2CppArray
Ail:_glUniform1uiv__wrapper
kej:__ZN6il2cpp2vm10Reflection7IsEventEP12Il2CppObject
rEj:__ZNSt3__26__treeINS_12__value_typeIPFvvEPK10MethodInfoEENS_19__map_value_compareIS3_S7_NS_4lessIS3_EELb1EEENS_9allocatorIS7_EEE16__insert_node_atEPNS_16__tree_node_baseIPvEERSI_SI_
n0:__ZN17PersistentManager26GetStreamNameSpaceInternalEi
bYk:_Rect_set_y_m3273335367
sI:__ZN4FMOD6System11createSoundEPKcjP22FMOD_CREATESOUNDEXINFOPPNS_5SoundE
gLk:__Z72RuntimeInvoker_Int32_t2071877448_Vector2_t2243707579_Vector2_t2243707579PFvvEPK10MethodInfoPvPS4_
$Cg:__ZN23InterfaceActionInvoker2Ii22UICharInfo_t3056636800E6InvokeEjP11Il2CppClassP12Il2CppObjectiS0_
Lo:FUNCTION_TABLE_iiifiiii
r9i:__ZN6il2cpp2vm4Type14IsSystemDBNullEPK10Il2CppType
X6d:__ZThn128_N5physx7profile8ZoneImplINS_28PxProfileNameProviderForwardEED1Ev
l_:__ZN9ShaderLab19CommonPropertyNames13StaticCleanupEPv
y1:__Z31scripting_method_get_returntype18ScriptingMethodPtr
Tkk:__Z45RuntimeInvoker_Int64_t909078037_RuntimeObjectPFvvEPK10MethodInfoPvPS4_
_Oh:_ScrollRect_UpdateBounds_m3266596336
wCd:__ZN5physx2Sq17AABBTreeUpdateMap10invalidateEjjRNS0_8AABBTreeE
WYa:__ZN15SerializeTraitsI12LightmapDataE8TransferI24GenerateTypeTreeTransferEEvRS0_RT_
U0k:_Transform_INTERNAL_set_localScale_m1610244689
nKh:_LayoutUtility_GetFlexibleWidth_m1731978987
vZe:_ColorBlock_GetHashCode_m649325222
Uel:_glStencilOpSeparate__wrapper
Hbc:__ZN4Mesh5SetUvEiPKfjj
p$a:__ZN7Texture13SetAnisoLimitENS_20AnisotropicFilteringE
fcb:__ZN28LightProbeProxyVolumeManager25UpdateSHCoeffsTextureDataER21LightProbeProxyVolume
YCa:__Z18CreateDecompressor15CompressionType18MemLabelIdentifier
wO:__ZN11AudioModule16SetListenerPauseEb
oi:_emscripten_glCompressedTexSubImage2D
apa:__ZN13GfxDeviceGLES22MemoryBarrierImmediateEyN2gl17MemoryBarrierTypeE
m9:__ZZN18SpriteAtlasManagerC1EvEN46EarlyUpdateSpriteAtlasManagerUpdateRegistrator7ForwardEv
mm:_abort
ylj:__ZN6il2cpp6icalls8mscorlib6System4Type18internal_from_nameEP12Il2CppStringbb
Ima:__ZN6prcoreL26RemapGenericFloatToIntegerI18TexFormatARGBFloat17TexFormatARGB8888EEvPKNS_9InnerInfoE
pvj:__ZN6il2cpp6icalls8mscorlib6System10Reflection9MonoField16GetValueInternalEP21Il2CppReflectionFieldP12Il2CppObject
Jec:__Z46GetShaderModelNumericValueFromRequirementsMask18ShaderRequirements
Sne:_cff_ps_has_glyph_names
L$d:__ZN5physx15writeWordBufferEPKtjbRNS_14PxOutputStreamE
AXh:_Transform_1_EndInvoke_m1025924012_gshared
wLg:_ReadOnlyCollection_1_System_Collections_Generic_ICollectionU3CTU3E_get_IsReadOnly_m2873538493_gshared
Qri:_PatternCompiler_EmitPosition_m3013268572
a8g:_X509SubjectKeyIdentifierExtension__ctor_m1109455121
DEg:_Collection_1_SetItem_m2707773254_gshared
KNi:__ZL24UnresolvedVirtualCall_45P12Il2CppObject19DateTime_t693205669PK10MethodInfo
c2e:_Graphic_CreateColorFromAlpha_m2614574534
Enh:_UnicodeEncoding_GetHashCode_m2443440683
rqc:__Z44Register_UnityEngine_GUIStyle_SetDefaultFontv
ZCh:_GenericTypeParameterBuilder_GetPropertyImpl_m3566422383
gsj:__GLOBAL__sub_I_ThreadImpl_cpp
jyb:__Z18Transfer_BlittableI18StreamedBinaryReadILb1EELb1EiEvRK29SerializationCommandArgumentsR31RuntimeSerializationCommandInfo
LB:__ZN9BlobWrite8TransferI22OffsetPtrArrayTransferIKN4math7_float3EEEEvRT_PKc17TransferMetaFlags
XJe:_TripleDES_IsWeakKey_m483013953
p5g:_X509Certificate2_get_PrivateKey_m2662162956
JYh:_Enumerator__ctor_m3819430617_AdjustorThunk
$cj:__ZN15dense_hashtableINSt3__24pairIK10KeyWrapperINS1_IPK12PropertyInfoP11Il2CppClassEEEjEES9_17ReflectionMapHashIS8_EN14dense_hash_mapIS9_jSD_NS9_14EqualsComparerINS0_8equal_toIS8_EEEENS0_9allocatorISB_EEE9SelectKeyESI_SK_E12maybe_shrinkEv
awk:__Z75RuntimeInvoker_RuntimeObject_RuntimeObject_Single_t2076509932_RuntimeObjectPFvvEPK10MethodInfoPvPS4_
LUc:__ZN5physx2Sc7BodySim37checkSleepReadinessBesidesWakeCounterEv
Kyb:__Z18Transfer_BlittableI18StreamedBinaryReadILb1EELb1EsEvRK29SerializationCommandArgumentsR31RuntimeSerializationCommandInfo
aEk:__Z54RuntimeInvoker_Void_t1841601450_ColorBlock_t2652774230PFvvEPK10MethodInfoPvPS4_
wNe:_Single_System_IConvertible_ToSByte_m3757385387
L0k:_Vector3_get_forward_m1316319684
qag:_StreamAsyncResult_SetComplete_m2141125667
t$a:__ZL21SetAnisoLimitEnumImplN7Texture20AnisotropicFilteringEb
Mwe:__ZN22BaseUnityConnectClient17OnEnterStateReadyEv
xld:__ZNK5physx22NpParticleBaseTemplateINS_16PxParticleSystemENS_16NpParticleSystemEE15getMaxParticlesEv
u1d:__ZN15dense_hashtableINSt3__24pairIKiiEEi21InstanceIDHashFunctorN14dense_hash_mapIiiS4_NS0_8equal_toIiEE13stl_allocatorIS3_L18MemLabelIdentifier36ELi16EEE9SelectKeyES7_SA_E9copy_fromERKSD_j
p6c:__ZN5physx2Sc16ArticulationCore14setWakeCounterEf
Kqd:__ZN5physx2Sc10NPhaseCore24createTriggerInteractionERNS0_8ShapeSimES3_NS_7PxFlagsINS_10PxPairFlag4EnumEtEE
z$:__Z21GetManagerFromContexti
zKa:__ZN14GrowableBufferD2Ev
u3d:__ZN11JointLimits8TransferI14SafeBinaryReadEEvRT_
cjc:__Z29Input_CUSTOM_GetMouseButtonUpi
kCc:__ZN5physx2Gu12selectNormalEhff
W4i:__ZN6il2cpp6icalls8mscorlib6System8MonoType16InternalGetEventEP20Il2CppReflectionTypeP12Il2CppStringi
ovh:_UInt32_System_IConvertible_ToUInt32_m1257480358_AdjustorThunk
uKk:__Z55RuntimeInvoker_CustomAttributeTypedArgument_t1498197914PFvvEPK10MethodInfoPvPS4_
ePc:__ZN5physx3Ext5JointINS_15PxRevoluteJointENS_30PxRevoluteJointGeneratedValuesEE17setConstraintFlagENS_16PxConstraintFlag4EnumEb
Khe:_UNITY_tt_face_load_maxp
qjc:__Z46Input_CUSTOM_INTERNAL_set_compositionCursorPosRK13Vector2fIcall
au:__ZN7mecanim5human12FullBodyMaskEv
Zjd:__ZN5physx3Scb14ParticleSystem16releaseParticlesEjRKNS_16PxStrideIteratorIKjEE
VUj:__ZL98Activator_t1850728717_CustomAttributesCacheGenerator_Activator_CreateInstance_m1465989661____args1P21CustomAttributesCache
D0k:_Transform_set_position_m2942701431
_5a:__ZN19ShaderPropertySheet11ComputeHashEv
n$i:__ZN30dense_hashtable_const_iteratorI10KeyWrapperIPK19Il2CppGenericMethodES4_N6il2cpp8metadata23Il2CppGenericMethodHashEN14dense_hash_setIS4_S7_NS4_14EqualsComparerINS6_26Il2CppGenericMethodCompareEEENSt3__29allocatorIS4_EEE8IdentityESB_SE_EppEv
Jwd:__ZN5physx2Sc5Scene21processLostTouchPairsEv
Gzb:__ZN4PPtrI6ObjectE8TransferI18StreamedBinaryReadILb1EEEEvRT_
uT:__ZN11UnityEngine15CloudWebService20WebRequestRestClient6IsDoneEv
RZe:_ColorTween_get_tweenMode_m2919867230_AdjustorThunk
kj:_llvm_fabs_f32
zYe:_CanvasScaler_HandleScaleWithScreenSize_m80056230
mbk:__ZL51TileBase_t4130003429_CustomAttributesCacheGeneratorP21CustomAttributesCache
ZS:__ZN11UnityEngine15CloudWebService16SessionContainer16GetJsonDataBlockEjRKN4core12basic_stringIcNS2_20StringStorageDefaultIcEEEERS6_PjSA_
_ih:_SByte_System_IConvertible_ToUInt64_m2174352876_AdjustorThunk
C4d:__ZThn28_N14PhysicsManager7onSleepEPPN5physx7PxActorEj
kDh:_GenericTypeParameterBuilder_get_AssemblyQualifiedName_m902593295
Xej:__ZN15dense_hashtableINSt3__24pairIK10KeyWrapperIPK14Il2CppAssemblyEPK22Il2CppMonoAssemblyNameEES6_N6il2cpp5utils11PointerHashIS4_EEN14dense_hash_mapIS6_SA_SF_NS6_14EqualsComparerINS0_8equal_toIS5_EEEENS0_9allocatorISB_EEE9SelectKeyESK_SM_E13set_empty_keyERKSB_
_Kd:__ZN5physx22PxcContactConvexConvexERKNS_2Gu13GeometryUnionES3_RKNS_11PxTransformES6_RKfRNS_10PxcNpCacheERNS0_13ContactBufferE
boh:_UTF7Encoding_InternalGetBytes_m2772055844
P5h:_EqualityComparer_1__ctor_m831468288_gshared
CBc:__ZNK5physx2Gu11ConvexHullV12HillClimbingERKNS_6shdfnd3aos5Vec3VE
b$h:_Dictionary_2_System_Collections_IDictionary_set_Item_m2290664072_gshared
Dqd:__ZNK5physx2Sc17ParticleSystemSim7getCoreEv
Trk:__Z76RuntimeInvoker_Void_t1841601450_Int64_t909078037_ResourceInfoU26_t3126209420PFvvEPK10MethodInfoPvPS4_
qSf:_SimpleCollator__cctor_m2693747668
Svf:_Decimal_CompareTo_m2454501434_AdjustorThunk
D0:__ZN14SafeBinaryReadD2Ev
Xth:_UInt16_System_IConvertible_ToChar_m4055364664
Njd:__ZN5physx2Sc18ParticleSystemCore10setDampingEf
H2b:__Z13RegisterClassI7TextureEvv
evi:_ExpressionCollection_OnValidate_m1703610065
XQf:_Component_GetComponentInChildren_TisRuntimeObject_m2461586036_gshared
_zb:__ZN8Gradient8TransferI18StreamedBinaryReadILb1EEEEvRT_
YXh:_Enumerator_Dispose_m2369319718_AdjustorThunk
wWj:__ZL79Convert_t2607082565_CustomAttributesCacheGenerator_Convert_ToUInt16_m3991499696P21CustomAttributesCache
vRc:__ZN5physx2Sc10NPhaseCore16deleteFilterPairEPNS0_10FilterPairE
Cvh:_UInt32_ToString_m554020223_AdjustorThunk
Zxg:_Enumerator_Dispose_m1520016780_AdjustorThunk
zSk:_GameObject_SendMessage_m3423113156
Blj:__ZN6il2cpp6icalls8mscorlib6System4Type15MakeGenericTypeEP20Il2CppReflectionTypeP11Il2CppArray
Ydb:__ZN6ShaderD2Ev
Lj:_SDL_PauseAudio
t6i:_il2cpp_class_from_type
Oaf:_Array_Sort_m2323017822
CNh:_Scrollbar_UpdateDrag_m3839695926
vVc:__ZN5physx2Sc5Scene28addActiveBreakableConstraintEPNS0_13ConstraintSimE
k_:__ZN9ShaderLab19CommonPropertyNames16StaticInitializeEPv
t8c:__ZN5physx6shdfnd8PoolBaseINS_16NpParticleSystemENS0_19ReflectionAllocatorIS2_EEE15disposeElementsEv
bfg:_MissingMemberException__ctor_m3710131950
rdb:__ZN13MemoryManager31DisallowAllocationsOnThisThreadEv
OXk:_Ray_get_direction_m4136268940_AdjustorThunk
ND:__ZN7mecanim9animation18CreateAvatarOutputEPKNS0_14AvatarConstantEbbRNS_6memory9AllocatorE
r7d:__ZN5physx7profile11EventBufferINS_24PxDefaultContextProviderENS_6shdfnd6MutexTINS0_26WrapperReflectionAllocatorIhEEEENS0_14ScopedLockImplIS7_EENS_24PxProfileNullEventFilterEE10eventValueEtyx
Swk:__Z91RuntimeInvoker_Void_t1841601450_RuntimeObject_Int32_t2071877448_RuntimeObject_RuntimeObjectPFvvEPK10MethodInfoPvPS4_
Zjh:_CspParameters__ctor_m2546931874
v3d:__ZN5Unity10HingeJoint8TransferI24GenerateTypeTreeTransferEEvRT_
obc:__ZN7Texture11SetWrapModeE15TextureWrapMode
P1a:__ZN14Texture2DArray23VirtualRedirectTransferER14SafeBinaryRead
fRb:__ZNK6Camera21CalculateCanDoShadowsEv
ivd:__ZNK5physx2Sc5Scene17getBroadPhaseCapsERNS_16PxBroadPhaseCapsE
O1h:_Dictionary_2_make_pair_m2631942124_gshared
h5c:__ZN5physx9NpFactory14onActorReleaseEPNS_7PxActorE
g2e:_Graphic__cctor_m1643894470
muj:__ZN6il2cpp2os6Thread12SetStackSizeEj
mmk:__Z99RuntimeInvoker_Void_t1841601450_Int32_t2071877448_RuntimeObject_Int32_t2071877448_Int32_t2071877448PFvvEPK10MethodInfoPvPS4_
L5g:_X509ChainElementEnumerator_get_Current_m2232618221
xXc:__ZN5physx2Sc5Actor15onElementAttachERNS0_7ElementE
wQk:_DebugLogHandler_LogFormat_m2866699703
Nrk:__Z54RuntimeInvoker_CallingConventions_t1097349142_IntPtr_tPFvvEPK10MethodInfoPvPS4_
_zg:_Collection_1_Clear_m3860339101_gshared
XXe:_U3COnFinishSubmitU3Ec__Iterator0_Reset_m2080388334
hbc:__ZNK8Renderer16IsVisibleInSceneEv
UOh:_ScrollRect_set_onValueChanged_m3957749575
oY:__Z13VFormatBufferPciPKcz
yjd:__ZN5physx2Sc18ParticleSystemCore23setSimulationFilterDataERKNS_12PxFilterDataE
fBb:__Z18Transfer_BlittableI18StreamedBinaryReadILb0EELb1EhEvRK29SerializationCommandArgumentsR31RuntimeSerializationCommandInfo
NSi:_U3CCreateWhereIteratorU3Ec__Iterator1D_1_Dispose_m1879652802_gshared
WOj:__ZL90SafeHandle_t2733794115_CustomAttributesCacheGenerator_SafeHandle_get_IsInvalid_m3910183075P21CustomAttributesCache
$3e:_Image_GenerateSimpleSprite_m4275440988
Muh:_UInt16_ToString_m3280699191
Mma:__ZN6prcoreL27StretchGenericFloatBilinearI15TexFormatRFloatEEvPKNS_9InnerInfoE
qBd:__ZN5physx6shdfnd8internal8HashBaseINS0_4PairIKNS_2Sq13PrunerPayloadEjEES5_NS0_4HashIS5_EENS1_11HashMapBaseIS5_jS9_NS0_9AllocatorEE6GetKeyESB_Lb1EE15reserveInternalEj
uPj:__ZL56_PropertyInfo_t1567586598_CustomAttributesCacheGeneratorP21CustomAttributesCache
xEf:_Array_InternalArray__IEnumerable_GetEnumerator_TisBoolean_t3825574718_m798244337_gshared
Rtg:_List_1_CopyTo_m158925060_gshared
Rw:__Z24ProcessAnimationMixBeginP35AnimationPlayableEvaluationConstantP32AnimationPlayableEvaluationInputP33AnimationPlayableEvaluationOutput
xGf:_Array_IndexOf_TisCustomAttributeNamedArgument_t94157543_m745056346_gshared
Pja:__Z14PadImageBorderR14ImageReferenceii
Ebj:__ZN15dense_hashtableINSt3__24pairIK10KeyWrapperINS1_IPK10MethodInfoP11Il2CppClassEEEjEES9_17ReflectionMapHashIS8_EN14dense_hash_mapIS9_jSD_NS9_14EqualsComparerINS0_8equal_toIS8_EEEENS0_9allocatorISB_EEE9SelectKeyESI_SK_E4findERSA_
r2i:__ZN6il2cpp2vm13MetadataCache28GetFieldDefaultValueForFieldEPK9FieldInfo
a7h:_ArrayReadOnlyList_1_ReadOnlyError_m2289309720_gshared
tx:__ZN27AnimationLayerMixerPlayableD2Ev
i5i:__ZN6il2cpp2vm8basepathEPKc
bFd:__ZN5physx2Gu22gjkRelativePenetrationINS0_9TriangleVENS0_8CapsuleVEEEjRKT_RKT0_RKNS_6shdfnd3aos15PsMatTransformVERKNSB_6FloatVERNSB_5Vec3VESJ_SJ_RSF_PhSL_Rh
c1d:__ZN9Rigidbody14SetIsKinematicEb
z3h:_DefaultComparer_GetHashCode_m320514092_gshared
QRg:_PKCS1_Verify_v15_m478274703
L1j:__ZL99Input_t1785128008_CustomAttributesCacheGenerator_Input_INTERNAL_set_compositionCursorPos_m144787813P21CustomAttributesCache
xK:__ZN12AudioManager39HandlePendingAudioConfigurationCallbackEv
lpk:__Z119RuntimeInvoker_Int32_t2071877448_RuntimeObject_RuntimeObject_Int32_t2071877448_Int32_t2071877448_BooleanU26_t3168250738PFvvEPK10MethodInfoPvPS4_
BFj:__ZL79RuntimeObject_CustomAttributesCacheGenerator_Object_ReferenceEquals_m3900584722P21CustomAttributesCache
Ik:_emscripten_glIsFramebuffer
dHa:__ZN12_GLOBAL__N_16qAtan2Eff
Bbe:__Z13RegisterClassI9RigidbodyEvv
qqf:_Convert_ToInt64_m954367741
KPi:__ZL25UnresolvedVirtualCall_153P12Il2CppObject40CustomAttributeTypedArgument_t1498197914S1_PK10MethodInfo
Mk:_JS_Sound_SetLoopPoints
Nff:_ArrayList__ctor_m1467563650
XN:__ZN12AudioManager17ShouldSourcePauseEb
y0j:__ZL86GameObject_t1756533147_CustomAttributesCacheGenerator_GameObject_get_layer_m2724813841P21CustomAttributesCache
fCj:__ZN6il2cpp2vm26MetadataAllocGenericMethodEv
qsa:__ZN19ConstantBuffersGLES12RecordRenderEv
UAd:__ZN5physx13ActorAABBTaskD2Ev
Rtc:__ZN9JSONWrite8TransferI10RectOffsetEEvRT_PKc17TransferMetaFlags
uja:__ZN4crnd12symbol_codec11decode_bitsEj
Qzi:_X509Crl_get_Extensions_m1795830276
ome:_cf2_doFlex
JNf:_Array_Sort_TisRaycastResult_t21186376_TisRaycastResult_t21186376_m38820193_gshared
T8b:__ZN21FixedBehaviourManagerD0Ev
e1j:__ZL84RectOffset_t3387826427_CustomAttributesCacheGenerator_RectOffset_set_top_m1587840032P21CustomAttributesCache
_6j:__ZL55RaycastHit2D_t4063908774_CustomAttributesCacheGeneratorP21CustomAttributesCache
nPa:__ZN10Matrix3x4f8TransferI24GenerateTypeTreeTransferEEvRT_
z9f:_StreamReader__ctor_m3454466728
BK:__ZN4FMOD6System12createReverbEPPNS_6ReverbE
sZk:_RectTransform_get_anchorMin_m3466802567
kx:__ZN7mecanim19ValueArrayBlendNodeILb1EEEvRKNS_10ValueArrayERKNS_14ValueArrayMaskERS1_RS4_RNS_16ValueArrayWeightEf
tdb:__Z16MarkDependenciesR27GarbageCollectorThreadStatej
D7g:_X509ChainElementEnumerator_Reset_m3832280427
Eck:__ZL75EventSystem_t3466835263_CustomAttributesCacheGenerator_U3CU3Ef__mgU24cache0P21CustomAttributesCache
hhg:_MulticastDelegate_RemoveImpl_m2024746777
JYe:_CanvasUpdateRegistry_ParentCount_m2367607495
bhg:_MulticastDelegate_Equals_m3064081489
z$f:_Activator_CreateInstance_m1465989661
iaa:__ZNK9Transform11GetPositionEv
_7c:__ZN5physx12NpConstraint8requiresERNS_23PxProcessPxBaseCallbackE
oNa:__ZN23SharedMeshRenderingData18UnloadVertexStreamEi
wLc:__ZN5physx3Cct13HandleManager3AddEPv
j9b:__ZN31CanvasBatchIntermediateRenderer11AddSubBatchERK16DrawBuffersRangePK19ShaderPropertySheet
bek:__ZL104PointerEventData_t1599784723_CustomAttributesCacheGenerator_PointerEventData_set_scrollDelta_m4002219844P21CustomAttributesCache
R7b:__ZN19RenderEventsContextC2Ei
gR:__Z6simd4fRKf
UJf:_Array_InternalArray__ICollection_CopyTo_TisColor32_t874517518_m379086718_gshared
sRh:_Slider_ClampValue_m2851810895
ol:_emscripten_glEnable
bqj:__ZN6il2cpp2gc16GarbageCollector29RegisterFinalizerForNewObjectEP12Il2CppObject
GFa:__ZN10TagManager23VirtualRedirectTransferER14SafeBinaryRead
jWd:__ZNK5physx2Sc15ClothFabricCore9getNbSetsEv
ymi:_MarshalAsAttribute__ctor_m1892084128
ehe:_UNITY_FT_Init_Class_ft_grays_raster
Z6:__ZN14PlayableOutput26ClearInvalidSourcePlayableEv
UTb:__Z15InitLightMeshesv
RUj:__ZL97WaitHandle_t677569169_CustomAttributesCacheGenerator_WaitHandle_t677569169____Handle_PropertyInfoP21CustomAttributesCache
pud:__ZNK5physx7NpScene26getNbContactDataBlocksUsedEv
Big:_KeyValuePair_2_ToString_m1391611625_AdjustorThunk
ko:FUNCTION_TABLE_iifiii
cak:__ZL73g_UnityEngine_JSONSerializeModule_Assembly_CustomAttributesCacheGeneratorP21CustomAttributesCache
gHc:__ZN5physx2Gu29computeCapsule_HeightFieldMTDERKNS_21PxHeightFieldGeometryERKNS_11PxTransformERNS0_8CapsuleVEffbjRNS_10PxSweepHitE
jsg:_List_1_Sort_m4156683373_gshared
Opd:__ZNK5physx2Cm12DelegateTaskINS_7NpSceneEXadL_ZNS2_14executeCollideEPNS_10PxBaseTaskEEEE7getNameEv
CXd:__ZN5physx2Gu11HeightField15exportExtraDataERNS_22PxSerializationContextE
BPa:__Z13TransferArrayILi4Ei19StreamedBinaryWriteILb0EEEjRAT__T0_PKcRT1_
k$a:__ZN15QualitySettings8TransferI19StreamedBinaryWriteILb0EEEEvRT_
Hog:_List_1_System_Collections_Generic_IEnumerableU3CTU3E_GetEnumerator_m1503548298_gshared
wwb:__Z18Transfer_BlittableI19StreamedBinaryWriteILb0EELb1E8Vector2fEvRK29SerializationCommandArgumentsR31RuntimeSerializationCommandInfo
Wle:_cf2_arrstack_init
AOj:__ZL65ClassInterfaceAttribute_t910653559_CustomAttributesCacheGeneratorP21CustomAttributesCache
S9i:__ZN15dense_hashtableINSt3__24pairIK10KeyWrapperINS1_IPK14Il2CppAssemblyP11Il2CppClassEEEjEES9_17ReflectionMapHashIS8_EN14dense_hash_mapIS9_jSD_NS9_14EqualsComparerINS0_8equal_toIS8_EEEENS0_9allocatorISB_EEE9SelectKeyESI_SK_E15insert_noresizeERKSB_
fX:__Z15CleanLogHandler7LogTypePKcz
Khb:__ZN9ShaderLab19SerializedSubShader8TransferI19StreamedBinaryWriteILb0EEEEvRT_
uad:__ZN5physx10NpMaterialC2ERKNS_2Sc12MaterialCoreE
XJ:__ZN14AudioBehaviour15ThreadedCleanupEv
VNd:__ZN5physx9PxTaskMgr10resolveRowEjb
Inh:_UTF32Encoding_GetBytes_m2290150495
qEb:__ZN6Camera17RemoveImageFilterERK11ImageFilter
ooa:__ZNSt3__218__insertion_sort_3IR25ValueParameterArraySorterPN20GpuProgramParameters14ValueParameterEEEvT0_S6_T_
Cif:_CaseInsensitiveHashCodeProvider_AreEqual_m2456617355
zAk:__Z74RuntimeInvoker_Boolean_t3825574718_HitInfo_t1761367055_HitInfo_t1761367055PFvvEPK10MethodInfoPvPS4_
t3g:_WebHeaderCollection__ctor_m4088938710
hKh:_LayoutUtility_GetLayoutProperty_m4052007472
ira:__ZNSt3__214__split_bufferI20ComputeShaderVariantRNS_9allocatorIS1_EEED2Ev
C0d:__ZN8Collider12GetIsTriggerEv
fJi:_EqualityComparer_1_get_Default_m1806515335_gshared
IOi:__ZL24UnresolvedVirtualCall_97P12Il2CppObjectS0_iS0_iPK10MethodInfo
BBb:__Z18Transfer_BlittableI18StreamedBinaryReadILb0EELb1E9BoundsIntEvRK29SerializationCommandArgumentsR31RuntimeSerializationCommandInfo
qWg:_Context_set_WriteSequenceNumber_m3356252710
Xte:__ZN2UI26InitializeDeviceForOverlayEi
FVd:__ZNK5physx13NpClothFabric13getRestvaluesEPfj
eZ:__Z27LogRepeatingStringWithFlagsRKN4core12basic_stringIcNS_20StringStorageDefaultIcEEEE15LogMessageFlagsi
xEc:__ZN5physx2Gu16_gjkLocalRayCastINS0_9TriangleVENS0_11ConvexHullVEEEbRT_RT0_RKNS_6shdfnd3aos6FloatVERKNS9_5Vec3VESF_RSA_RSD_SH_f
qlg:_Enumerator_MoveNext_m3483405135_gshared
Cu:__ZN17AnimationPlayable28ComputeNeedsBindingRebuildedEv
It:__ZN17AnimationPlayable23RequestAllocateBindingsEv
GVc:__ZN5physx6shdfnd8PoolBaseINS_2Cm5BlockIPvLj32EEENS0_19ReflectionAllocatorIS5_EEE17releaseEmptySlabsEv
Mii:_DefaultComparer__ctor_m2859550749_gshared
AIf:_Array_InternalArray__ICollection_Add_TisMonoResource_t3127387157_m2070096275_gshared
gHd:__ZN5physx23PxsBroadPhaseContextSap21batchUpdateFewUpdatesEjRPNS_17PxcBroadPhasePairERjS4_
p3j:__ZL62PlayableOutputHandle_t551742311_CustomAttributesCacheGeneratorP21CustomAttributesCache
NHc:__ZN5physx3Cct17getSceneTimestampEPKNS0_30InternalCBData_FindTouchedGeomE
YMb:__ZNSt3__227__insertion_sort_incompleteIRPFbP10GUIElementS2_EPS2_EEbT0_S7_T_
l5g:_X509ExtensionCollection__ctor_m1324282194
Gze:__ZN18UnityConnectClient33OnPlayerSessionStateChangedStaticEPS_jyy
uKj:__ZL74CaseInsensitiveHashCodeProvider_t2307530285_CustomAttributesCacheGeneratorP21CustomAttributesCache
Dwh:_UIntPtr__ctor_m3900568171_AdjustorThunk
Lbk:__ZL103UISystemProfilerApi_t845863050_CustomAttributesCacheGenerator_UISystemProfilerApi_EndSample_m3264820872P21CustomAttributesCache
cU:__ZNK11UnityEngine15CloudWebService23WebRequestUploadHandler11GetProgressEv
d8h:_InternalEnumerator_1_get_Current_m1943362081_gshared
sga:__ZN7ApiGLES4LoadE16GfxDeviceLevelGL
iZa:__ZN18StreamedBinaryReadILb0EE21TransferSTLStyleArrayI13dynamic_arrayI31EnlightenSystemAtlasInformationLj8EEEEvRT_17TransferMetaFlags
D9c:__ZN5physx9NpPhysics15createAggregateEjb
nja:__ZN4crnd12crn_unpacker22decode_color_endpointsEv
ipj:__ZN15dense_hashtableI10KeyWrapperIP18Il2CppGenericClassES3_N6il2cpp8metadata22Il2CppGenericClassHashEN14dense_hash_setIS3_S6_NS3_14EqualsComparerINS5_25Il2CppGenericClassCompareEEENSt3__29allocatorIS3_EEE8IdentityESA_SD_E15insert_noresizeERKS3_
MIg:_ReadOnlyCollection_1_System_Collections_IList_Clear_m3006875897_gshared
n6b:__ZZL31RegisterOtherRendererPropertiesR22GenericPropertyBindingEN30Wrapper_RendererReceiveShadows13GetFloatValueEPv
c5d:__ZN9Rigidbody5ResetEv
_pk:__Z130RuntimeInvoker_Void_t1841601450_RuntimeObject_Int32U26_t455636984_ByteU26_t1147306860_Int32U26_t455636984_ByteU5BU5DU26_t790777611PFvvEPK10MethodInfoPvPS4_
Ilg:_Enumerator_System_Collections_IEnumerator_get_Current_m3866069145_gshared
DTf:_PreviousInfo_t581002487_marshal_pinvoke_cleanup
CHb:__ZN8Material11SetPassFastEPN9ShaderLab4PassER17ShaderPassContextP6Shaderib
Qcd:__ZNK5physx15NpActorTemplateINS_7PxClothEE7getNameEv
J$a:__ZNK13ScreenManager13GetLockCursorEv
Eze:__ZN11UnityEngine7Connect20BasePersistentValues10SaveValuesER9JSONWrite
mic:__Z31Renderer_Set_Custom_PropEnabledP12Il2CppObjecth
jMi:_AudioListener_AddExtension_m2954727157
KTe:_ExecuteEvents_get_pointerDownHandler_m1172742772
a6:__Z18GetITerrainManagerv
MNd:__ZN5physx9PxTaskMgr12addReferenceEj
f5:__ZN22VirtualJoystickManagerC2Ev
bOb:__Z12SetupLODFadeR9GfxDeviceR17ShaderPassContextf
wVa:__ZNK14PlayableOutput7GetTypeEv
rpk:__Z203RuntimeInvoker_Boolean_t3825574718_RuntimeObject_Int32U26_t455636984_Int32_t2071877448_Int32_t2071877448_RuntimeObject_SByte_t454417549_Int32_t2071877448_ContractionU26_t2019974048_ContextU26_t3131521781PFvvEPK10MethodInfoPvPS4_
Fyi:_X501_ToString_m3328169518
HTb:__ZL24CollectForwardObjectsJobP27CollectForwardObjectsHeader
s4f:_NumberFormatter_FormatCustom_m3288822873
K1i:__ZNK15dense_hashtableINSt3__24pairIK10KeyWrapperIPK11Il2CppClassEPKcEES6_N6il2cpp5utils11PointerHashIS3_EEN14dense_hash_mapIS6_S9_SE_NS6_14EqualsComparerINS0_8equal_toIS5_EEEENS0_9allocatorISA_EEE9SelectKeyESJ_SL_E12test_deletedERK24dense_hashtable_iteratorISA_S6_SE_SN_SJ_SL_E
cSj:__ZL53HMACSHA256_t2622794722_CustomAttributesCacheGeneratorP21CustomAttributesCache
eXb:__ZNK25CameraStackRenderingState24ResolveTempToEyeTexturesEv
EVb:__Z13IsNodeVisibleRK9SceneNodeRK4AABBRK22SceneCullingParameters
cGh:_EventInfo__ctor_m1190141300
U8h:_InternalEnumerator_1_MoveNext_m3585886944_gshared
Kve:__Z57RectTransformUtility_CUSTOM_INTERNAL_CALL_PixelAdjustRectP12Il2CppObjectS0_R5RectTIfE
CWb:__Z24ScheduleCullingAllGroupsR8JobFenceRK22SceneCullingParametersiRK13CullingOutputRK13dynamic_arrayIP12CullingGroupLj4EERKS_
Hfh:_DelayedFixupRecord_FixupImpl_m4249966635
Hkl:_emscripten_glStencilMask__wrapper
d$i:__ZN15dense_hashtableI10KeyWrapperIPK19Il2CppGenericMethodES4_N6il2cpp8metadata23Il2CppGenericMethodHashEN14dense_hash_setIS4_S7_NS4_14EqualsComparerINS6_26Il2CppGenericMethodCompareEEENSt3__29allocatorIS4_EEE8IdentityESB_SE_EC2ERKSH_j
D0i:__ZN15dense_hashtableINSt3__24pairIK10KeyWrapperIN6il2cpp5utils13dynamic_arrayIPK10Il2CppTypeLj4EEEEPFvvEEESA_NS3_8metadata19Il2CppSignatureHashEN14dense_hash_mapISA_SD_SG_NSA_14EqualsComparerINSF_22Il2CppSignatureCompareEEENS0_9allocatorISE_EEE9SelectKeyESK_SM_EC2EjRKSG_RKSK_RKSO_
aUf:_BigInteger_ToString_m3837784224
tKa:__ZN15RenderNodeQueue7CleanupEv
LAa:__ZNK17ArchiveFileSystem8PositionERK13FileEntryData
pOc:__ZN16NovodexAllocator8allocateEjPKcS1_i
cxf:_DllNotFoundException__ctor_m267198482
gTb:__Z17PrepareShadowMapsRK11CullResultsRK11ActiveLightRK10MinMaxAABB
Xgk:__ZL81U3CMouseDragOutsideRectU3Ec__Iterator1_t2599668326_CustomAttributesCacheGeneratorP21CustomAttributesCache
dph:_NativeEventCalls_CreateEvent_internal_m1605829321
eDi:_GUIUtility_EndGUIFromException_m3100752188
nng:_List_1_GetIndex_m3409004147_gshared
J4j:__ZL73RuntimePlatform_t1869584967_CustomAttributesCacheGenerator_MetroPlayerX64P21CustomAttributesCache
eNi:__ZL24UnresolvedVirtualCall_13P12Il2CppObjectaPK10MethodInfo
Mci:_InternalEnumerator_1_System_Collections_IEnumerator_get_Current_m3239681450_AdjustorThunk
zfb:__ZNSt3__26vectorIN9ShaderLab20SerializedSubProgram15VectorParameterENS_9allocatorIS3_EEEC2ERKS6_
ETb:__ZN9ShaderLab10GrabPassesD2Ev
_1a:__ZN14Texture2DArray13UploadTextureEv
KMe:_SecurityFrame_t1002202659_marshal_pinvoke
tje:_tt_cmap14_done
kbb:__ZN18AwakeFromLoadQueue25RegisterObjectInstanceIDsEv
H$j:__ZL75Camera_t189460977_CustomAttributesCacheGenerator_Camera_get_main_m881971336P21CustomAttributesCache
g0d:__ZN5physx21PxProfileNameProviderD2Ev
edf:_Buffer_BlockCopy_m1586717258
CRj:__ZL93X509Certificate_t283079845_CustomAttributesCacheGenerator_X509Certificate_GetName_m2354987368P21CustomAttributesCache
$bd:__ZNK5physx2Gu10ConvexMesh14debugVisualizeERNS_2Cm12RenderOutputERKNS2_8Matrix34ERKNS_9PxBounds3Eyfj
yx:__ZNK27AnimationLayerMixerPlayable11DerivesFromE17ScriptingClassPtr
l$k:_Sprite_get_pixelsPerUnit_m3861596790
Kde:__ZN20TextRenderingPrivate19NativeTextGenerator15InsertCharacterEiPj
avd:__ZN5physx2Sc5Scene22removeBroadPhaseRegionEj
Qai:_InternalEnumerator_1__ctor_m3589241961_AdjustorThunk
Hld:__ZN5physx16NpParticleSystem23setParticleReadDataFlagENS_22PxParticleReadDataFlag4EnumEb
OLc:__ZN5physx2Cm12RenderBuffer5clearEv
tAf:_CompareInfo_GetSortKey_m3691382873
Ogd:__ZNK5physx2Sc9ClothCore21getStiffnessFrequencyEv
d9h:_InternalEnumerator_1_MoveNext_m1791963761_AdjustorThunk
Muf:_DBNull_ToString_m3228904745
x3g:_WebHeaderCollection_AddWithoutValidate_m1479880592
yIe:_SHA1Managed_HashCore_m2658295635
rDd:__ZN5physx13PxsCCDContext14postCCDAdvanceEPNS_10PxBaseTaskE
fw:__ZN17AnimationPlayableD0Ev
fSg:_RC4_get_IV_m506011366
Nzi:_X509Crl__ctor_m2469408229
oxb:__Z18Transfer_BlittableI19StreamedBinaryWriteILb0EELb0EyEvRK29SerializationCommandArgumentsR31RuntimeSerializationCommandInfo
OOj:__ZL82SafeHandle_t2733794115_CustomAttributesCacheGenerator_SafeHandle_Close_m1146946803P21CustomAttributesCache
eUh:_Enumerator_get_CurrentValue_m3562053380_AdjustorThunk
lQi:__ZL25UnresolvedVirtualCall_182P12Il2CppObject6Guid_tPK10MethodInfo
g8g:_X509SubjectKeyIdentifierExtension_CopyFrom_m136762226
w6j:__ZL86Logger_t3328995178_CustomAttributesCacheGenerator_Logger_get_filterLogType_m3137240955P21CustomAttributesCache
Qjg:_Enumerator_System_Collections_IEnumerator_Reset_m610822832_AdjustorThunk
ykj:__ZN6il2cpp6icalls8mscorlib6System2IO6MonoIO20GetFileSystemEntriesEP12Il2CppStringS6_iiPi
Efe:__ZN20TextRenderingPrivate15DynamicFontData21GetFontMetricsForFaceERK13dynamic_arrayIN4core17string_with_labelILi35EEELj4EEiRKS1_I4PPtrIN13TextRendering4FontEELj4EEPfSF_
Eee:_UNITY_FT_Open_Face
hgl:_glGenRenderbuffers__wrapper
XUf:_BigInteger_op_Division_m1581119694
Vgh:_CallbackHandler_Invoke_m1498072969
VDe:_DSACryptoServiceProvider__ctor_m701823690
HJd:__ZNK5physx10BPWorkTask7getNameEv
$Ik:__Z74RuntimeInvoker_Void_t1841601450_Int32_t2071877448_ResourceInfo_t3933049236PFvvEPK10MethodInfoPvPS4_
rzh:_CustomAttributeData_GetCustomAttributes_m2421330738
P5c:__ZN5physx2Sc8ShapeSim16onResetFilteringEv
SRi:_TextGenerator_GetVerticesInternal_m514005870
Ynj:__ZN30dense_hashtable_const_iteratorINSt3__24pairIK10KeyWrapperINS1_IPKcS4_EEEiEES6_24NamespaceAndNamePairHashN14dense_hash_mapIS6_iS9_NS6_14EqualsComparerI26NamespaceAndNamePairEqualsEENS0_9allocatorIS8_EEE9SelectKeyESD_SF_EppEv
Hsh:_Type_get_IsEnum_m313908919
phc:__Z44Register_UnityEngine_Component_get_transformv
cug:_List_1_Reverse_m3395936565_gshared
gBg:_Collection_1_System_Collections_ICollection_CopyTo_m1335644572_gshared
PC:__ZN12_GLOBAL__N_120ProcessPlayableGraphERN8Animator11AnimatorJobER35AnimationPlayableEvaluationConstantR32AnimationPlayableEvaluationInputR33AnimationPlayableEvaluationOutputPFvS4_R17AnimationPlayableEPFvS4_S6_S8_EPFvS8_S4_S6_S8_fESE_MS9_FvPS3_PS5_PS7_E
Zrg:_List_1_CheckMatch_m2830747427_gshared
qVc:__ZN5physx2Sc16ActorInteractionD2Ev
OJb:__ZN17ArchiveFileSystem12MountArchiveEPKcS1_
Pwf:_StackFrame_GetMethod_m72881026
Wsc:__Z18Transfer_BlittableI9JSONWriteLb1E8Vector4fEvRK29SerializationCommandArgumentsR31RuntimeSerializationCommandInfo
fo:FUNCTION_TABLE_viififiii
xGa:__Z30GetScriptableCullingParametersR6CameraR27ScriptableCullingParameters
OUh:_Enumerator_System_Collections_IEnumerator_Reset_m70453843_gshared
QZa:__ZThn32_NK8Renderer14GetSubsetIndexEi
Yrk:__Z58RuntimeInvoker_Byte_t3683104436_IntPtr_t_Int32_t2071877448PFvvEPK10MethodInfoPvPS4_
v6c:__ZN5physx2Sc16ArticulationCore26setExternalDriveIterationsEj
TOf:_Dictionary_2_Do_CopyTo_TisKeyValuePair_2_t1174980068_TisRuntimeObject_m3279061992_gshared
rik:__ZL59Slider_t297367283_CustomAttributesCacheGenerator_m_MinValueP21CustomAttributesCache
_4b:__ZN13ProduceHelperI15ResourceManagerLb0EE7ProduceE18MemLabelIdentifier18ObjectCreationMode
tda:__ZN9GfxDevice15ImmediateVertexEfff
o2b:__Z13RegisterClassI8MaterialEvv
XSj:__ZL51Evidence_t1407710183_CustomAttributesCacheGeneratorP21CustomAttributesCache
xYa:__ZNK16LightmapSettings22GetTypeVirtualInternalEv
BBi:_WindowFunction_BeginInvoke_m87819360
YKa:__ZN16GraphicsSettings13AwakeFromLoadE17AwakeFromLoadMode
Azf:_FieldAccessException__ctor_m3893881490
Hjf:_Hashtable_TestPrime_m96697534
Sq:__ZN6Object13AwakeFromLoadE17AwakeFromLoadMode
Qaa:__ZN13GfxDeviceGLES15SetStencilStateEPK18DeviceStencilStatei
uzk:__Z107RuntimeInvoker_Void_t1841601450_Single_t2076509932_Single_t2076509932_Single_t2076509932_Single_t2076509932PFvvEPK10MethodInfoPvPS4_
X5k:_cycle
LHk:__Z57RuntimeInvoker_Int32_t2071877448_ContactPoint_t1376425630PFvvEPK10MethodInfoPvPS4_
zDj:__ZN6il2cpp2os9FastMutex4LockEv
SYj:__ZL72PKCS12_t1362584795_CustomAttributesCacheGenerator_U3CU3Ef__switchU24map5P21CustomAttributesCache
de:_emscripten_glUniform1iv
PSh:_Text_get_preferredHeight_m452532789
nWi:_AnimationOffsetPlayable_Equals_m1510591175
pOe:_String_System_IConvertible_ToDouble_m3860911722
Smb:__ZN16MemoryFileSystemD2Ev
mhi:_InternalEnumerator_1_get_Current_m3732458101_AdjustorThunk
Y$h:_Dictionary_2_System_Collections_Generic_ICollectionU3CSystem_Collections_Generic_KeyValuePairU3CTKeyU2CTValueU3EU3E_Contains_m842343255_gshared
zQg:_ARC4Managed__ctor_m2922048522
Vde:__Z17dynamic_pptr_castIP9Texture2D7TextureET_RK4PPtrIT0_E
zJg:_ReadOnlyCollection_1_System_Collections_IList_set_Item_m1272038804_gshared
e8h:_InternalEnumerator_1_System_Collections_IEnumerator_get_Current_m1931522460_AdjustorThunk
XKe:_SecurityPermission_IsEmpty_m1869313067
LNc:__ZThn12_N5physx3Ext7D6JointD1Ev
_gc:__Z37Register_UnityEngine_Camera_get_depthv
iYf:_EncryptedPrivateKeyInfo_get_Salt_m2734354394
P_k:_UsedByNativeCodeAttribute__ctor_m3185822159
vLg:_ReadOnlyCollection_1_System_Collections_Generic_IListU3CTU3E_set_Item_m1918537449_gshared
vAg:_Collection_1_System_Collections_ICollection_CopyTo_m3896480607_gshared
qUe:_PointerEventData_set_position_m794507622
OId:__ZNK5physx16PxsBroadPhaseMBP18getNumDeletedPairsEv
t6d:__ZN5physx7profile8ZoneImplINS_28PxProfileNameProviderForwardEE10startEventEty
QRk:_UnityEvent_GetDelegate_m1261032859
LDd:__ZN5physx10PxsCCDPair17sweepAdvanceToToiEfb
N1b:__ZN15ApplicationInfo16GetInstallerNameEv
X$b:__Z23ConvertIntegerToTypePtrItEbPvR14SafeBinaryRead
rD:__ZN7mecanim5human29HumanGetGoalOrientationOffsetENS0_4GoalE
ue:_emscripten_glStencilFunc
R4c:__ZN5physx6shdfnd8PoolBaseINS_2Cm5BlockIhLj384EEENS0_19ReflectionAllocatorIS4_EEE17releaseEmptySlabsEv
MTd:__ZN5physx16PxsIslandManager11freeBuffersEv
ZMi:__ZL23UnresolvedVirtualCall_6P12Il2CppObjectiPK10MethodInfo
z2h:_DefaultComparer_GetHashCode_m3315096533_gshared
IIh:_MonoMethod_MakeGenericMethod_impl_m2063853616
AZc:__ZN5physx2Cm12DelegateTaskINS_2Sc17ParticleSystemSimEXadL_ZNS3_21prepareCollisionInputEPNS_10PxBaseTaskEEEE11runInternalEv
LMe:__Z46il2cpp_codegen_get_marshal_directive_exceptionPKc
Vib:__ZN9ShaderLab20SerializedSubProgram14AddMatrixParamEPKcii15ShaderParamTypei
mPa:__ZN24GenerateTypeTreeTransfer8TransferI13dynamic_arrayI8Vector3fLj4EEEEvRT_PKc17TransferMetaFlags
Ae:_glGetActiveUniformBlockName
Dw:__ZN7mecanim13CopyValueMaskILb0EEEvPKNS_14ValueArrayMaskEPS1_
V0e:_FontData_set_verticalOverflow_m4211463083
z0f:_GregorianCalendar_GetDayOfWeek_m818246400
jg:_emscripten_glUniform1fv
L2f:_Guid_AppendByte_m2890893073
aEh:_MethodBuilder_Invoke_m1874904900
qef:_Char_System_IConvertible_ToType_m3106771703_AdjustorThunk
jah:_Interval_Intersects_m3480157390_AdjustorThunk
Jjc:__Z39Quaternion_CUSTOM_INTERNAL_CALL_InverseRK11QuaternionfRS_
imi:_GCHandle_Alloc_m1063472408
vL:__ZN4FMOD7Channel20set3DConeOrientationEP11FMOD_VECTOR
qek:__ZL86StandaloneInputModule_t70867863_CustomAttributesCacheGenerator_m_InputActionsPerSecondP21CustomAttributesCache
Xn:FUNCTION_TABLE_iiifii
M7j:__ZL54SkeletonBone_t345082847_CustomAttributesCacheGeneratorP21CustomAttributesCache
Mjh:_CryptoConfig_CreateFromName_m391442950
kVi:_RectTransformUtility_INTERNAL_CALL_PixelAdjustRect_m3338747528
mrj:__ZN6il2cpp2vm12GenericClass11SetupEventsEP11Il2CppClass
ope:_tt_delta_interpolate
mje:_tt_cmap12_get_info
mlf:_SortedList__ctor_m3698381356
Qmj:__ZN6il2cpp2vm15ReboxIReferenceEP14Il2CppIUnknownP11Il2CppClass
adg:_StreamWriter_LowLevelWrite_m4205372900
FVi:__ZN6il2cpp6icalls8mscorlib6System7Decimal14decimalCompareEP19il2cpp_decimal_reprS5_
pxj:__ZThn4_N6il2cpp2vm13CachedCCWBaseINS0_13ManagedObjectEE7ReleaseEv
Z$c:__ZN5physx26PxcFsComputeJointLoadsSimdERKNS_9PxcFsDataEPKNS_12PxcFsInertiaEPNS_6shdfnd3aos6Mat33VEPKfjjNS_21PxcFsScratchAllocatorE
XGh:_Module__ctor_m3853650010
Vif:_CollectionBase_System_Collections_IList_get_Item_m2370387510
Fpd:__ZN5physx6shdfnd8SyncImpl7getSizeEv
SQj:__ZL59RemotingException_t109604560_CustomAttributesCacheGeneratorP21CustomAttributesCache
PUa:__ZNSt3__26__treeINS_12__value_typeIN9ShaderLab16FastPropertyNameE10ColorRGBAfEENS_19__map_value_compareIS3_S5_NS_4lessIS3_EELb1EEENS_9allocatorIS5_EEE12__find_equalIS3_EERPNS_16__tree_node_baseIPvEENS_21__tree_const_iteratorIS5_PNS_11__tree_nodeIS5_SF_EEiEESI_RKT_
xhl:_glCopyTexImage2D__wrapper
E7e:_LayoutElement__ctor_m789941073
Sck:__ZL77ExecuteEvents_t1693084770_CustomAttributesCacheGenerator_U3CU3Ef__mgU24cache9P21CustomAttributesCache
dOj:__ZL68TargetInvocationException_t4098620458_CustomAttributesCacheGeneratorP21CustomAttributesCache
YXj:__ZL56RankException_t1539875949_CustomAttributesCacheGeneratorP21CustomAttributesCache
xJc:__ZN5physx11PxHitBufferINS_12PxRaycastHitEED0Ev
HX:__GLOBAL__sub_I_runtime_graphics_billboard_0_cpp
SNc:__ZN12_GLOBAL__N_116D6JointVisualizeERN5physx22PxConstraintVisualizerEPKvRKNS0_11PxTransformES7_j
JHb:__Z18ClearByDrawingQuad13GfxClearFlagsRK10ColorRGBAffjR17ShaderPassContext
Voi:_DynamicPropertyCollection_FindProperty_m1233265924
jma:__ZN6prcoreL17RemapGenericFloatI14TexFormatRHalf15TexFormatRFloatEEvPKNS_9InnerInfoE
SNb:__Z16ShouldUseShadowsb
S6:__ZN15DirectorManager21RebuildStageCallbacksEv
N$g:_TlsStream_SetLength_m1460039587
WHb:__ZN19RuntimeSceneManager9LoadSceneERKN4core12basic_stringIcNS0_20StringStorageDefaultIcEEEES6_S6_RK9UnityGUIDiNS_11LoadingModeE
wNi:__ZL24UnresolvedVirtualCall_31P12Il2CppObjectiS0_S0_PK10MethodInfo
Ubk:__ZL115CanvasRenderer_t261436805_CustomAttributesCacheGenerator_CanvasRenderer_INTERNAL_CALL_EnableRectClipping_m610385697P21CustomAttributesCache
tna:__ZN7ApiGLES10DrawArraysE16GfxPrimitiveTypejjj
Wyc:__ZN5physx3Cct13BoxController15getPxControllerEv
VI:__ZN10SampleClip13LoadBaseSoundEv
fFc:__ZN5physx2Gu22gjkRelativePenetrationINS0_17ShrunkConvexHullVES2_EEjRKT_RKT0_RKNS_6shdfnd3aos15PsMatTransformVERKNSA_6FloatVERNSA_5Vec3VESI_SI_RSE_PhSK_Rh
SF:__ZN18StreamedBinaryReadILb0EE21TransferSTLStyleArrayI22OffsetPtrArrayTransferIN7mecanim8skeleton4NodeEEEEvRT_17TransferMetaFlags
eZk:_RectOffset_get_left_m1496351507
ksk:__Z49RuntimeInvoker_TimeSpan_t3430258949_RuntimeObjectPFvvEPK10MethodInfoPvPS4_
pQ:__Z57AudioSource_CUSTOM_INTERNAL_CALL_ClearExtensionPropertiesP12Il2CppObjectRK12PropertyName
pqj:__ZN15dense_hashtableINSt3__24pairIK10KeyWrapperIP12Il2CppObjectEN6il2cpp2gc9CachedCCWEEES5_NS7_5utils11PointerHashIS3_EEN14dense_hash_mapIS5_S9_SD_NS5_14EqualsComparerINS0_8equal_toIS4_EEEENS0_9allocatorISA_EEE9SelectKeyESI_SK_E15insert_noresizeERKSA_
qEg:_Collection_1_Contains_m643401393_gshared
KUd:__ZN5physx2Sc19ParticlePacketShapeC2ERNS0_17ParticleSystemSimEjPNS_16PxvParticleShapeE
o4k:_Rigidbody_set_constraints_m607123132
TUa:__ZN22DeviceMVPMatricesStateC2ER9GfxDevice
d3j:__ZL111Object_t1021602117_CustomAttributesCacheGenerator_Object_DestroyImmediate_m3250094537____allowDestroyingAssets1P21CustomAttributesCache
Gti:_Regex_IsMatch_m1286520424
F9c:__ZN5physx9NpPhysics18createTriangleMeshERNS_13PxInputStreamE
lo:FUNCTION_TABLE_iiiiifiiiif
hOe:_String__ctor_m372528291
En:FUNCTION_TABLE_iifii
s0a:__ZNSt3__26vectorI13dynamic_arrayI8Vector2fLj4EENS_9allocatorIS3_EEE6assignINS_11__wrap_iterIPS3_EEEENS_9enable_ifIXaasr21__is_forward_iteratorIT_EE5valuesr16is_constructibleIS3_NS_15iterator_traitsISC_E9referenceEEE5valueEvE4typeESC_SC_
zJ:__GLOBAL__sub_I_runtime_video_0_cpp
FQd:__ZN5physx2Cm12DelegateTaskINS_2Sc5SceneEXadL_ZNS3_14updateDynamicsEPNS_10PxBaseTaskEEEED0Ev
zgj:__ZN6il2cpp2vm10Reflection12HasAttributeEP9FieldInfoP11Il2CppClass
vza:__ZNSt3__26__treeIiNS_4lessIiEE13stl_allocatorIiL18MemLabelIdentifier1ELi16EEE7destroyEPNS_11__tree_nodeIiPvEE
Gc:invoke_viiifi
Edk:__ZL104PointerEventData_t1599784723_CustomAttributesCacheGenerator_PointerEventData_get_pointerDrag_m2740415629P21CustomAttributesCache
l4j:__ZL139AttributeHelperEngine_t958797062_CustomAttributesCacheGenerator_AttributeHelperEngine_GetParentTypeDisallowingMultipleInclusion_m3087158272P21CustomAttributesCache
_fg:_LongComparer_Compare_m3981323622
e5i:__ZNSt3__214__split_bufferIP11Il2CppClassRNS_9allocatorIS2_EEEC2EjjS5_
yZe:_ContentSizeFitter_get_horizontalFit_m892469688
gkk:__ZL109LayoutUtility_t4076838048_CustomAttributesCacheGenerator_LayoutUtility_U3CGetFlexibleHeightU3Em__7_m947156537P21CustomAttributesCache
yXf:__ZN23InterfaceActionInvoker2IP8String_tP12Il2CppObjectE6InvokeEjP11Il2CppClassS3_S1_S3_
ERh:_Slider_FindSelectableOnUp_m15474611
wza:__ZNK11AssetBundle14GetPreloadDataEiR13dynamic_arrayIiLj4EE
qZf:_EncryptedData_get_EncryptedContent_m2732115576
Y1k:_Vector3__ctor_m2761639014
Kf:_JS_Sound_SetPosition
eti:_Assertion_set_FalseExpression_m1781616372
c8g:_X509SubjectKeyIdentifierExtension_FromHexChars_m2515150420
aRa:__ZN19RenderBufferManager13GetTempBufferEii17DepthBufferFormat19RenderTextureFormatj22RenderTextureReadWrite14VRTextureUsagei23RenderTextureMemoryless
T1i:__ZL13GetSharedInstPK17Il2CppGenericInst
gJj:__ZL51IReflect_t3412036974_CustomAttributesCacheGeneratorP21CustomAttributesCache
qWe:_StandaloneInputModule_SendSubmitEventToSelectedObject_m3421155293
dni:_AppDomainLevelActivator__ctor_m230071814
XZi:__ZNK15dense_hashtableINSt3__24pairIK10KeyWrapperIPKcEP11Il2CppClassEES5_N6il2cpp5utils11StringUtils12StringHasherIS4_EEN14dense_hash_mapIS5_S8_SE_NS5_14EqualsComparerINSB_13VmStringUtils21CaseSensitiveComparerEEENS0_9allocatorIS9_EEE9SelectKeyESJ_SL_E3endEv
wXk:_Quaternion_Equals_m798965363_AdjustorThunk
bVb:__Z17PrepareSceneNodesP11CullResults
lUi:_Canvas_get_sortingLayerID_m137448982
Hqi:_CallContextRemotingData_Clone_m2226242476
a0:__Z63ThreadAndSerializationSafeCheckSetMonoBehaviourBeingTransferredP13MonoBehaviour
bdd:__ZNK5physx7NpCloth14getNbParticlesEv
BRc:__ZN5physx2Sc10NPhaseCore24releaseShapeInstancePairEPNS0_19ShapeInstancePairLLEjj
iLj:__ZL78CultureInfo_t3500843524_CustomAttributesCacheGenerator_U3CU3Ef__switchU24map19P21CustomAttributesCache
KTb:__Z24SetupActiveLightsContextR21ActiveLightingContextRK12ActiveLightsRK11CullResultsP14ShadowMapCacheRK10MinMaxAABB
N0h:_Dictionary_2_System_Collections_Generic_ICollectionU3CSystem_Collections_Generic_KeyValuePairU3CTKeyU2CTValueU3EU3E_Contains_m3400497673_gshared
jlc:__Z38Sprite_CUSTOM_INTERNAL_get_textureRectP12Il2CppObjectP5RectTIfE
Juf:_DBNull_System_IConvertible_ToUInt32_m2681284284
lfj:__ZNK15dense_hashtableINSt3__24pairIK10KeyWrapperIPK22Il2CppGenericParameterEPK24MonoGenericParameterInfoEES6_N6il2cpp5utils11PointerHashIS4_EEN14dense_hash_mapIS6_SA_SF_NS6_14EqualsComparerINS0_8equal_toIS5_EEEENS0_9allocatorISB_EEE9SelectKeyESK_SM_E3endEv
Gec:__ZN9TextAsset7SetTextERKN4core12basic_stringIcNS0_20StringStorageDefaultIcEEEE
nJa:__ZN6Camera8TransferI24GenerateTypeTreeTransferEEvRT_
r5h:_EqualityComparer_1__cctor_m416314417_gshared
Ra:invoke_iiiiiiif
La:invoke_iiiiiiii
jHd:__ZN5physx21SapPostUpdateWorkTaskD0Ev
v6g:_X509ChainElementCollection_Contains_m3599995067
bXb:__ZN8Renderer17PendingAddToSceneEv
y5c:__ZN5physx7NpActor18releaseConstraintsERNS_12PxRigidActorE
ULc:__ZN5physx6shdfnd5ArrayINS_11PxDebugLineENS0_19ReflectionAllocatorIS2_EEE8recreateEj
mll:b125
lll:b124
oll:b127
nll:b126
qll:b129
zkc:__Z52Register_UnityEngine_RectTransform_INTERNAL_get_rectv
yld:__ZNK5physx22NpParticleBaseTemplateINS_16PxParticleSystemENS_16NpParticleSystemEE20getMaxMotionDistanceEv
T_:__Z21PostprocessStacktracePKcRN4core12basic_stringIcNS1_20StringStorageDefaultIcEEEE
itg:_List_1_ToArray_m2390522926_gshared
XOj:__ZL70TypeLibImportClassAttribute_t2390314680_CustomAttributesCacheGeneratorP21CustomAttributesCache
Y8a:__ZN18StreamedBinaryReadILb0EE21TransferSTLStyleArrayI13dynamic_arrayI16SplashScreenLogoLj4EEEEvRT_17TransferMetaFlags
qnd:__ZNK5physx14NpRigidDynamic25getContactReportThresholdEv
INe:_Single_CompareTo_m2081476257
qDf:_Array_InternalArray__ICollection_Remove_TisX509ChainStatus_t4278378721_m4127982424_gshared
ihc:__Z47Register_UnityEngine_Camera_get_allCamerasCountv
Hbk:__ZL92Canvas_t209405766_CustomAttributesCacheGenerator_Canvas_GetDefaultCanvasMaterial_m4265316988P21CustomAttributesCache
Jhd:__ZN5physx22NpParticleBaseTemplateINS_15PxParticleFluidENS_15NpParticleFluidEE16releaseParticlesEv
yvf:_Decimal_GetBits_m3520401316
Xwe:__ZN22BaseUnityConnectClient20StartEventDispatcherEv
Lbc:__ZNSt3__26vectorIj13stl_allocatorIjL18MemLabelIdentifier1ELi16EEE6assignIPKtEENS_9enable_ifIXaasr21__is_forward_iteratorIT_EE5valuesr16is_constructibleIjNS_15iterator_traitsIS9_E9referenceEEE5valueEvE4typeES9_S9_
fC:__ZN7mecanim9animation16EvaluateAvatarIKEPKNS0_14AvatarConstantEPKNS0_11AvatarInputEPNS0_12AvatarOutputEPNS0_12AvatarMemoryEPNS0_15AvatarWorkspaceEb
Tna:__ZL25ProgramUniformMatrix4x3fvPK7ApiGLESjiihPKv
o$b:__Z29StdTemplateConversionFunctionIsiEbPvR14SafeBinaryRead
mQd:__Z22updateIslandsToProcessRKN5physx2Cm10BitMapBaseINS_6shdfnd9AllocatorEEEPKjRKNS_11NodeManagerERS4_
C4h:_EqualityComparer_1_System_Collections_IEqualityComparer_Equals_m3376587337_gshared
aJj:__ZL68Type_t_CustomAttributesCacheGenerator_Type_GetConstructor_m835344477P21CustomAttributesCache
$Kb:__ZN12InputManager13InputEndFrameEv
Ukf:_SyncHashtable__ctor_m2029869827
r4i:__ZNSt3__26__treeIP11Il2CppClassNS_4lessIS2_EENS_9allocatorIS2_EEE25__emplace_unique_key_argsIS2_JRKS2_EEENS_4pairINS_15__tree_iteratorIS2_PNS_11__tree_nodeIS2_PvEEiEEbEERKT_DpOT0_
xij:__ZN6il2cpp2vm6Thread5SetupEP12Il2CppThread
O0d:__ZN8Collider30GetRelativePositionAndRotationERK9TransformR10Matrix4x4f
ZNc:__ZN5physx3Ext5joint16ConstraintHelper17prepareLockedAxesERKNS_6PxQuatES5_RKNS_6PxVec3Ejj
KMg:_ReadOnlyCollection_1_System_Collections_IList_Remove_m2200089035_gshared
nMc:__ZN5physx3Cct13BoxControllerC2ERKNS_16PxControllerDescERNS_9PxPhysicsEPNS_7PxSceneE
qAg:_Collection_1_CheckWritable_m2756357359_gshared
a7k:___munmap
Z4e:_InputField_get_characterLimit_m2386380888
cfk:__ZL68ColorBlock_t2652774230_CustomAttributesCacheGenerator_m_PressedColorP21CustomAttributesCache
cqf:_Convert_ToInt64_m1722087499
Bg:_localtime_r
cMb:__ZN22RenderingCommandBuffer13GetAndCheckRTE24BuiltinRenderTextureTypeRKN9ShaderLab16FastPropertyNameEPKcPP13RenderTexture
YUj:__ZL81AppDomain_t2719102437_CustomAttributesCacheGenerator_assembly_resolve_in_progressP21CustomAttributesCache
JOj:__ZL65InterfaceTypeAttribute_t4113096249_CustomAttributesCacheGeneratorP21CustomAttributesCache
Eg:_strftime
jqa:__ZN7Texture33SetStoredColorSpaceNoDirtyNoApplyE17TextureColorSpace
B3:__ZN12FileAccessorD2Ev
qJa:__ZN10ColorRGBAf8TransferI18StreamedBinaryReadILb0EEEEvRT_
CNa:__ZN14VertexDataInfoC2Ev
Btj:__ZN6il2cpp2gc16GarbageCollector14CollectALittleEv
vbi:_InternalEnumerator_1_get_Current_m2415979394_gshared
xzb:__ZL17Transfer_GUIStyleI18StreamedBinaryReadILb1EELb1EEvRK29SerializationCommandArgumentsR31RuntimeSerializationCommandInfo
EOh:_ScrollRect_SetDirtyCaching_m1491302821
M4i:__ZN6il2cpp6icalls8mscorlib6SystemL9IsPrivateEPK12PropertyInfo
XDd:__ZNK5physx18PxcConvexTriangles16getPolygonNormalEj
e8j:__ZL122AudioListener_t1996719162_CustomAttributesCacheGenerator_AudioListener_INTERNAL_CALL_ReadExtensionPropertyName_m3421262708P21CustomAttributesCache
tzh:_CustomAttributeData_GetCustomAttributes_m3258419955
qUk:_Matrix4x4_GetColumn_m83396621
h_:__ZN9shadertag10InitializeEv
dOb:__ZN13BatchRenderer20RenderSingleWithPassER17ShaderPassContextPK18SharedMaterialDataP6ShaderPN9ShaderLab4PassEiPKNS7_10GrabPassesEjib15BatchBreakCause
K7d:__ZN5physx24NpPtrTableStorageManager8canReuseEjj
Nkh:_EncoderFallback__ctor_m1639180960
Aii:_InternalEnumerator_1_MoveNext_m1441038493_gshared
h$a:__ZN15QualitySettings14QualitySetting8TransferI24GenerateTypeTreeTransferEEvRT_
HJf:_Array_InternalArray__ICollection_CopyTo_TisParameterModifier_t1820634920_m4127516211_gshared
Ckh:_DecoderReplacementFallback__ctor_m2344783488
qig:_OutOfMemoryException__ctor_m239206850
gsd:__ZN5physx2Sc27ConstraintProjectionManager33processConstraintForGroupBuildingEPNS0_13ConstraintSimERNS0_20ScratchAllocatorListIS3_Lj64EEE
j$k:_Sprite_get_rect_m3985037234
s1e:_GraphicRegistry_UnregisterGraphicForCanvas_m820096873
Kqe:__Z28Font_Get_Custom_PropMaterialP12Il2CppObject
Ick:__ZL65EventTrigger_t1967201810_CustomAttributesCacheGenerator_delegatesP21CustomAttributesCache
FBg:_Collection_1_Remove_m4136193368_gshared
YXd:__ZN5physx20InternalTriangleMesh17allocateTrianglesEjb
cTe:_EventTrigger_OnPointerUp_m2791622548
MJk:__Z60RuntimeInvoker_DictionaryEntry_t3048875398_Int32_t2071877448PFvvEPK10MethodInfoPvPS4_
NQh:_Shadow_set_useGraphicAlpha_m141905402
Lac:__ZN22BlockMemoryCacheWriter14LockCacheBlockEjPPhS1_
nuj:__ZN6il2cpp2os6Thread10RunWrapperEPv
Koc:__ZNSt3__218__insertion_sort_3IRPFbPKN5IMGUI9GUIWindowES4_EPPS2_EEvT0_SA_T_
CKi:_GenericEqualityComparer_1_Equals_m1109000020_gshared
wkd:__ZN5physx22NpParticleBaseTemplateINS_15PxParticleFluidENS_15NpParticleFluidEED2Ev
I9j:__ZL61GUISkin_t1436893342_CustomAttributesCacheGenerator_m_textAreaP21CustomAttributesCache
_Ch:_GenericTypeParameterBuilder_HasElementTypeImpl_m2592272488
lqd:__ZN5physx2Cm29ConstraintImmediateVisualizer19visualizeDoubleConeERKNS_11PxTransformEfb
Gwc:__Z22TransferField_NonArrayI8JSONRead27Converter_SimpleNativeClassI8GUIStyleEEvRK23StaticTransferFieldInfoR31RuntimeSerializationCommandInfoRT0_
Hzc:__ZN5physx6shdfnd5ArrayINS_13PxExtendedBoxENS0_19ReflectionAllocatorIS2_EEE8recreateEj
zJd:__ZN5physx20ProcessBPResultsTask11runInternalEv
LVc:__ZN5physx6shdfnd5ArrayIPvNS0_19ReflectionAllocatorINS_2Cm5BlockIS2_Lj16EEEEEE4copyINS0_15InlineAllocatorILj256ES7_EEEEvRKNS1_IS2_T_EE
ih:_llvm_eh_typeid_for
d2b:__Z13RegisterClassI10GameObjectEvv
k0i:__ZNK15dense_hashtableINSt3__24pairIK10KeyWrapperIN6il2cpp5utils13dynamic_arrayIPK10Il2CppTypeLj4EEEEPFvvEEESA_NS3_8metadata19Il2CppSignatureHashEN14dense_hash_mapISA_SD_SG_NSA_14EqualsComparerINSF_22Il2CppSignatureCompareEEENS0_9allocatorISE_EEE9SelectKeyESK_SM_E5beginEv
KKj:__ZL53HashValues_t2390200547_CustomAttributesCacheGeneratorP21CustomAttributesCache
f5g:_X509BasicConstraintsExtension_get_PathLengthConstraint_m3004531343
Sz:__ZNK23AnimationPlayableOutput7GetTypeEv
uMj:__ZL125GenericTypeParameterBuilder_t1370236603_CustomAttributesCacheGenerator_GenericTypeParameterBuilder_GetConstructors_m103067670P21CustomAttributesCache
Osd:__ZN5physx7NpScene19getActiveTransformsERjh
bDi:_GUIUtility_BeginGUI_m2381890998
CRc:__ZN5physx2Sc10NPhaseCore39pool_deleteParticleElementRbElementPairEPNS0_35ParticleElementRbElementInteractionEjj
hfg:_MissingMemberException__ctor_m4277447068
qT:__Z7ToUpperIN4core12basic_stringIcNS0_20StringStorageDefaultIcEEEEET_RKS5_
o1g:_NameValueCollection__ctor_m1767369537
MBb:__Z18Transfer_BlittableI18StreamedBinaryReadILb0EELb1E8Vector4fEvRK29SerializationCommandArgumentsR31RuntimeSerializationCommandInfo
KJi:_EqualityComparer_1__ctor_m3155445483_gshared
Lsj:__ZN6il2cpp2vm6Method8GetParamEPK10MethodInfoj
O6f:_Int64_CompareTo_m1953686218
ZJi:_GenericComparer_1__ctor_m221205314_gshared
RDk:__Z31RuntimeInvoker_Axis_t2427050347PFvvEPK10MethodInfoPvPS4_
hkl:_glBindVertexArray__wrapper
u$d:__ZN5physx6shdfnd5ArrayINS_11RTreeNodeNQENS0_19ReflectionAllocatorIS2_EEE19resizeUninitializedEj
xSc:__ZNK5physx2Sc16InteractionScene18getLLIslandManagerEv
IDe:_DSA_Create_m3450041777
fTa:__ZN8Material8TransferI14SafeBinaryReadEEvRT_
uDd:__ZN5physx17PxcNpMemBlockPool34acquireExceptionalConstraintMemoryEj
eWa:__ZN12CubemapArray17UploadToGfxDeviceEv
ePh:_ScrollRect_AdjustBounds_m1033723448
Ekg:_Enumerator_System_Collections_IEnumerator_Reset_m2200349770_gshared
mFg:_Collection_1_get_Item_m3791221403_gshared
W7i:_SessionStateChanged_EndInvoke_m2606584272
hij:__ZN24dense_hashtable_iteratorINSt3__24pairIK10KeyWrapperIP11Il2CppClassES4_EES5_N6il2cpp8metadata16SZArrayClassHashEN14dense_hash_mapIS5_S4_SA_NS5_14EqualsComparerINS9_19SZArrayClassCompareEEENS0_9allocatorIS7_EEE9SelectKeyESE_SG_E30advance_past_empty_and_deletedEv
lig:_OrdinalComparer__ctor_m2952942058
GEd:__ZN5physxL23PxcSweepConvexTrianglesERKNS_11PxsCCDShapeES2_RKNS_11PxTransformES5_S5_S5_fRNS_6PxVec3ES7_RNS_10PxcNpCacheERNS_18PxcNpThreadContextERKNS_2Cm23FastVertex2ShapeScalingERNS_2Gu9TriangleVEf
fbd:__ZNK5physx7NpShape16getPlaneGeometryERNS_15PxPlaneGeometryE
T5g:_X509Chain_CheckRevocationOnChain_m2441901351
ixj:__ZN6il2cpp2vm13ManagedObject14QueryInterfaceERK10Il2CppGuidPPv
E$d:__ZN5physx27InternalTriangleMeshBuilder14fillRemapTableEv
rJ:__ZN11AudioSource4StopEb
YZc:__ZN5physx6shdfnd8PoolBaseINS_13NpRigidStaticENS0_19ReflectionAllocatorIS2_EEE17releaseEmptySlabsEv
rrb:__ZN14SafeBinaryRead21TransferSTLStyleArrayI13dynamic_arrayI10Matrix4x4fLj4EEEEvRT_17TransferMetaFlags
rFg:_Collection_1_CheckWritable_m732350052_gshared
cKa:__ZN15LODGroupManager26CollectAllLODGroupManagersERK16CoreCameraValuesR13dynamic_arrayIPS_Lj4EEb
rdf:_Byte_System_IConvertible_ToDecimal_m1036493607
PUj:__ZL47Timer_t791717973_CustomAttributesCacheGeneratorP21CustomAttributesCache
rHb:__Z25GetSplashScreenBackgroundRK5RectTIfE
C9h:_InternalEnumerator_1_System_Collections_IEnumerator_get_Current_m1679297177_gshared
jgk:__ZL65Image_t2042527209_CustomAttributesCacheGenerator_m_PreserveAspectP21CustomAttributesCache
Yii:_DefaultComparer_Compare_m1247109616_gshared
Bki:_ResourceManager__ctor_m498829021
Zsa:__ZN18GlslGpuProgramGLESD2Ev
rZb:__ZN13RenderTexture14SetVolumeDepthEi
E6d:__ZThn116_NK5physx7profile8ZoneImplINS_28PxProfileNameProviderForwardEE10hasClientsEv
PMd:__ZN5physx2Gu20pcmContactCapsuleBoxERKNS0_13GeometryUnionES3_RKNS_11PxTransformES6_RKfRNS0_5CacheERNS0_13ContactBufferE
XGk:__Z88RuntimeInvoker_Int32_t2071877448_UIVertex_t1204258818_UIVertex_t1204258818_RuntimeObjectPFvvEPK10MethodInfoPvPS4_
Wgh:_SerializationCallbacks__ctor_m722356782
kxc:__ZN10Matrix4x4f8TransferI8JSONReadEEvRT_
Ice:__ZN14SafeBinaryRead21TransferSTLStyleArrayI13dynamic_arrayIN4core17string_with_labelILi35EEELj4EEEEvRT_17TransferMetaFlags
sYk:_Rect_set_width_m2294291744
KOj:__ZL49Marshal_t785896760_CustomAttributesCacheGeneratorP21CustomAttributesCache
Q$:__ZN17PersistentManager18ReadObjectThreadedEi
jfa:__ZN25TransformFeedbackSkinning31CleanupTransformFeedbackShadersEv
TJa:__Z22scripting_object_unbox18ScriptingObjectPtr
Mde:__ZNK20TextRenderingPrivate8FontImpl19GetCharacterAdvanceEjijfPj
nDj:__ZN6il2cpp6icalls8mscorlib4Mono8Security12Cryptography18KeyPairPersistence16_IsUserProtectedEP12Il2CppString
GKg:_ReadOnlyCollection_1_Contains_m3936562733_gshared
F1g:_DefaultUriParser__ctor_m4218024811
SAh:_DerivedType_GetField_m3960169619
jvf:_Decimal_System_IConvertible_ToInt16_m3159038792_AdjustorThunk
vlk:__Z59RuntimeInvoker_Int64_t909078037_RuntimeObject_RuntimeObjectPFvvEPK10MethodInfoPvPS4_
AKk:__Z41RuntimeInvoker_KeyValuePair_2_t3716250094PFvvEPK10MethodInfoPvPS4_
X0a:__ZN10VertexData8TransferI18StreamedBinaryReadILb0EEEEvRT_
MZc:__ZN5physx2Sc5Scene9addStaticERNS0_10StaticCoreEPKPvjj
VAk:__Z73RuntimeInvoker_Single_t2076509932_Vector4_t2243707581_Vector4_t2243707581PFvvEPK10MethodInfoPvPS4_
VZf:_PKCS12_GetExistingParameters_m2413397265
Qlk:__Z111RuntimeInvoker_Boolean_t3825574718_RuntimeObject_SByte_t454417549_SByteU26_t3920581883_ExceptionU26_t1467204777PFvvEPK10MethodInfoPvPS4_
EDg:_Collection_1_ClearItems_m4268731177_gshared
WF:__ZN6Avatar8TransferI19StreamedBinaryWriteILb0EEEEvRT_
Wab:__ZN14PreloadManager16UpdatePreloadingEv
hGa:__ZN12BaseRendererD2Ev
VOa:__ZN14SafeBinaryRead21TransferSTLStyleArrayI19StaticArrayTransferIiLi4EEEEvRT_17TransferMetaFlags
Cxi:_X509CertificateCollection__ctor_m858704242
Elg:_Enumerator__ctor_m425576865_AdjustorThunk
uzd:__ZN5physx2Sc5Scene9addShapesEPKPvjjRNS0_8RigidSimEPNS_12PxsRigidBodyERPNS0_8ShapeSimEPNS_9PxBounds3E
Hnj:__ZNK15dense_hashtableINSt3__24pairIK10KeyWrapperINS1_IPKcS4_EEEiEES6_24NamespaceAndNamePairHashN14dense_hash_mapIS6_iS9_NS6_14EqualsComparerI26NamespaceAndNamePairEqualsEENS0_9allocatorIS8_EEE9SelectKeyESD_SF_E10test_emptyEj
HMg:_ReadOnlyCollection_1_System_Collections_IList_Contains_m1545447998_gshared
Guj:__ZN14dense_hash_mapI10KeyWrapperIPK19Il2CppGenericMethodEP10MethodInfoN6il2cpp8metadata23Il2CppGenericMethodHashENS4_14EqualsComparerINS8_26Il2CppGenericMethodCompareEEENSt3__29allocatorINSD_4pairIKS4_S6_EEEEEC2EjRKS9_RKSC_
nPk:_Color32_op_Implicit_m3337994915
FLd:__ZN5physx23PxcPCMContactConvexMeshERKNS_2Gu13GeometryUnionES3_RKNS_11PxTransformES6_RKfRNS_10PxcNpCacheERNS0_13ContactBufferE
UV:__ZNK21UnityDefaultAllocatorI17LowLevelAllocatorE8ContainsEPKv
b3i:__ZNSt3__213__vector_baseI6pollfdNS_9allocatorIS1_EEED2Ev
NVg:_ClientSessionInfo_get_Id_m3046630969
KWj:__ZL78Convert_t2607082565_CustomAttributesCacheGenerator_Convert_ToUInt32_m759656532P21CustomAttributesCache
si:_emscripten_get_main_loop_timing
f9f:_DirectoryInfo__ctor_m3750996792
HXe:_BaseMeshEffect_ModifyMesh_m2134816219
MMf:_Array_qsort_TisVector2_t2243707579_m3527759534_gshared
g$a:__ZN24GenerateTypeTreeTransfer21TransferSTLStyleArrayINSt3__26vectorIN15QualitySettings14QualitySettingENS1_9allocatorIS4_EEEEEEvRT_17TransferMetaFlags
u_k:_ResourceRequest_t2560315377_marshal_pinvoke_cleanup
stg:_List_1_System_Collections_Generic_IEnumerableU3CTU3E_GetEnumerator_m166627113_gshared
a7a:__ZNSt3__26vectorI9InputAxisNS_9allocatorIS1_EEE6resizeEj
fGf:__ZN21InterfaceFuncInvoker2Ii19Vector2_t2243707579S0_E6InvokeEjP11Il2CppClassP12Il2CppObjectS0_S0_
kOb:__ZN13BatchRendererC2ER15RenderLoopStatsRK15RenderNodeQueuebbb
cLe:_SecurityElement_IsValidAttributeValue_m483287146
b$k:_FormerlySerializedAsAttribute__ctor_m3044655632
jkb:__ZNK2UI13RectTransform22GetTypeVirtualInternalEv
aVj:__ZL56AppDomainSetup_t611332832_CustomAttributesCacheGeneratorP21CustomAttributesCache
cq:getTempRet0
_Uk:_Mesh_get_uv_m1990385212
PLd:__ZN5physx2Gu33MultiplePersistentContactManifold24addManifoldContactPointsEPNS0_21MeshPersistentContactEjPPNS0_15PCMContactPatchEjRKNS_6shdfnd3aos6FloatVESB_h
LFk:__Z79RuntimeInvoker_Boolean_t3825574718_ContentTypeU26_t1802785839_Int32_t2071877448PFvvEPK10MethodInfoPvPS4_
Lyh:_AssemblyTitleAttribute__ctor_m1696431446
NFi:_UnityEvent_1_RemoveListener_m2146288709_gshared
h4e:_Image_AddQuad_m1603575622
kvj:__ZN24dense_hashtable_iteratorINSt3__24pairIK10KeyWrapperIPK19Il2CppGenericMethodEP10MethodInfoEES6_N6il2cpp8metadata23Il2CppGenericMethodHashEN14dense_hash_mapIS6_S9_SD_NS6_14EqualsComparerINSC_26Il2CppGenericMethodCompareEEENS0_9allocatorISA_EEE9SelectKeyESH_SJ_E30advance_past_empty_and_deletedEv
aSg:_PrivateKeyInfo_RemoveLeadingZero_m3396807048
_Gg:_ReadOnlyCollection_1_System_Collections_Generic_ICollectionU3CTU3E_get_IsReadOnly_m1251192075_gshared
cng:_List_1_GrowIfNeeded_m185971996_gshared
Wjj:__ZN6il2cpp6icalls8mscorlib6System9ThreadingL21lookup_cached_cultureEP12Il2CppThreadi
DUb:__ZN18DeferredRenderLoopD2Ev
XCh:_GenericTypeParameterBuilder_GetMethods_m1243855818
Ova:__ZNK16TypeTreeIterator4NameEv
DLi:_PCMReaderCallback_Invoke_m877950113
f6j:__ZL90PlayableBinding_t2498078091_CustomAttributesCacheGenerator_U3CstreamTypeU3Ek__BackingFieldP21CustomAttributesCache
$2:__ZN15FileSystemEntry3SetEPKc
ISd:__ZN5physx6shdfnd5ArrayIPNS_13PxcNpMemBlockENS0_19ReflectionAllocatorIS3_EEE6resizeEjRKS3_
$hi:_InternalEnumerator_1__ctor_m2808001655_gshared
CFe:_MACTripleDES__ctor_m884945242
q_k:_RenderTexture_get_height_m428170183
und:__ZN5physx14NpRigidDynamic8requiresERNS_23PxProcessPxBaseCallbackE
oCi:_GUILayoutGroup_SetHorizontal_m4089360220
eL:__ZN20SoundChannelInstance15ParameterBuffer5ApplyEPN4FMOD7ChannelE
Jde:__ZN20TextRenderingPrivate19NativeTextGenerator9InsertTabEv
uHj:__ZL73Enum_t2459695545_CustomAttributesCacheGenerator_Enum_ToObject_m1688724857P21CustomAttributesCache
fmg:_List_1_Add_m2241268440_gshared
k6d:__ZN5physx7profile8ZoneImplINS_28PxProfileNameProviderForwardEE21setProfileZoneManagerEPNS_20PxProfileZoneManagerE
wxe:__ZN11UnityEngine15PlatformWrapper24GetRuntimePlatformStringEv
bj:_glIsEnabled
Vdb:__ZN15CacheWriterBaseD2Ev
PJc:__ZN5physx3Cct17CapsuleController15setFootPositionERKNS_14PxExtendedVec3E
lHc:__ZN5physx2Gu33PCMCapsuleVsMeshContactGeneration13generateEEMTDERKNS_6shdfnd3aos5Vec3VES6_RKNS3_6FloatVES6_jS6_S6_PNS0_21MeshPersistentContactERj
hqb:__Z25scripting_class_get_image17ScriptingClassPtr
s7c:__ZN18MultiQueryCallbackIN5physx10PxSweepHitEED0Ev
uWk:_PlayableAsset_Internal_CreatePlayable_m2166162235
Eab:__ZNSt3__26vectorIN4core12basic_stringIcNS1_20StringStorageDefaultIcEEEE13stl_allocatorIS5_L18MemLabelIdentifier13ELi16EEEC2INS_11__wrap_iterIPS5_EEEET_SE_RKS8_PNS_9enable_ifIXaasr21__is_forward_iteratorISE_EE5valuesr16is_constructibleIS5_NS_15iterator_traitsISE_E9referenceEEE5valueEvE4typeE
fj:_emscripten_glDrawElementsInstanced
Iy:__ZN26AnimatorControllerPlayable27SetupStateMachineBehavioursEv
CQg:_ARC4Managed_Dispose_m4102232694
WQg:_HMAC_Initialize_m3052649104
JLa:__ZN18JobBatchDispatcherD2Ev
ekb:__ZN9Transform17MainThreadCleanupEv
U5j:__ZL143UnitySynchronizationContext_t1205147244_CustomAttributesCacheGenerator_UnitySynchronizationContext_InitializeSynchronizationContext_m2786500889P21CustomAttributesCache
Nzj:_GC_clear_hdr_marks
Rel:_glScissor__wrapper
dll:_emscripten_glCreateShader__wrapper
L4e:_InputField_get_caretSelectPositionInternal_m3523572533
Ale:_cff_fd_select_get
oOj:__ZL73CompilationRelaxationsAttribute_t238494011_CustomAttributesCacheGeneratorP21CustomAttributesCache
r2j:__ZL86Material_t193706927_CustomAttributesCacheGenerator_Material_GetTextureImpl_m2799453342P21CustomAttributesCache
Chh:_CallbackHandler_EndInvoke_m2406225629
OSh:_Text_get_minHeight_m1562513104
gJe:_SHA512Managed_processBlock_m3220567420
V0g:_NameObjectCollectionBase_get_Keys_m446053925
qj:_emscripten_glGetShaderiv
tXh:_Transform_1__ctor_m353209818_gshared
iEk:__Z30RuntimeInvoker_Axis_t375128448PFvvEPK10MethodInfoPvPS4_
eM:__ZN4FMOD6System10getVersionEPj
DTd:__ZN5physx2Sc7BodySim10sleepCheckEffb
pHf:_Array_InternalArray__IndexOf_TisSByte_t454417549_m1427585061_gshared
tre:__ZN2UI6Canvas23VirtualRedirectTransferER24GenerateTypeTreeTransfer
Zmf:_Decimal_u64_m3991988111
d3k:_YieldInstruction_t3462875981_marshal_pinvoke
uTi:_Predicate_1_BeginInvoke_m2959352225_gshared
Wxi:_X509Certificate_Parse_m1764345628
Ouc:__ZN9JSONWrite8TransferIN4math12int2_storageEEEvRT_PKc17TransferMetaFlags
uce:__ZN13TextRendering4Font13AwakeFromLoadE17AwakeFromLoadMode
_Tk:_Mathf_Pow_m1117712374
Dkl:_emscripten_glCullFace__wrapper
cBk:__Z70RuntimeInvoker_Void_t1841601450_Guid_t_RuntimeObject_Int32_t2071877448PFvvEPK10MethodInfoPvPS4_
_ba:__ZN9GfxDevice21ReleaseSharedMeshDataEP14SharedMeshData
h$f:_SmallXmlParser_Peek_m2814840810
m0j:__ZL87Display_t3666191348_CustomAttributesCacheGenerator_Display_GetSystemExtImpl_m4242640572P21CustomAttributesCache
R7a:__ZNSt3__27__sort5IRNS_6__lessINS_4pairIPKN5Unity4TypeE7Hash128EES8_EEPS8_EEjT0_SC_SC_SC_SC_T_
rlf:_Enumerator_Reset_m466659019
Uyj:_GC_unreachable_finalize_mark_proc
tui:_BalancingGroup_set_Balance_m3452171919
b3k:_WaitForSecondsRealtime_get_keepWaiting_m4138104467
zg:___syscall192
AEk:__Z70RuntimeInvoker_Single_t2076509932_Int32_t2071877448_Single_t2076509932PFvvEPK10MethodInfoPvPS4_
qAj:_maybe_finalize
yk:_emscripten_glGetProgramiv
rkc:__Z43RectTransform_CUSTOM_INTERNAL_get_anchorMaxP12Il2CppObjectP13Vector2fIcall
bnk:__Z50RuntimeInvoker_Void_t1841601450_Single_t2076509932PFvvEPK10MethodInfoPvPS4_
g6c:__ZN5physx14NpShapeManagerC2Ev
pYa:__ZN8Material28UpdateHashesOnPropertyChangeEN9ShaderLab16FastPropertyNameE
blc:__Z53Register_UnityEngine_SortingLayer_GetLayerValueFromIDv
B8f:_DirectoryInfo_get_Parent_m1198766078
k6h:_EqualityComparer_1_System_Collections_IEqualityComparer_Equals_m349194518_gshared
zif:_CaseInsensitiveComparer_Compare_m1192858479
$ob:__Z18Transfer_BlittableI14SafeBinaryReadLb1E8Vector4fEvRK29SerializationCommandArgumentsR31RuntimeSerializationCommandInfo
pcg:_StreamAsyncResult_set_Done_m4272090534
C8e:_LayoutRebuilder_Clear_m2390054824
KCg:_Collection_1_System_Collections_IList_Insert_m2968289909_gshared
kea:__ZN13GfxDeviceGLES20SetComputeBufferDataE15ComputeBufferIDPKvjj
dzh:_Default_SelectMethod_m622251293
rt:__ZN8Animator23VirtualRedirectTransferER19StreamedBinaryWriteILb0EE
nA:__ZN11UnityEngine9Animation32CreateAnimatorGenericBindingsOptERKNS0_20AnimationSetBindingsER9TransformPKN7mecanim9animation14AvatarConstantEPKNS0_21AvatarBindingConstantEbRNS6_6memory9AllocatorER8Animator
vnj:__ZN6il2cpp2vm5Image13ClassFromNameEPK11Il2CppImagePKcS6_
Jal:dynCall_vdddddd
Wgb:__ZN24GenerateTypeTreeTransfer21TransferSTLStyleArrayINSt3__26vectorIN9ShaderLab14SerializedPassENS1_9allocatorIS4_EEEEEEvRT_17TransferMetaFlags
cWc:__ZN5physx6shdfnd8internal8HashBaseIPNS_2Sc13ConstraintSimES5_NS0_4HashIS5_EENS1_11HashSetBaseIS5_S7_NS0_9AllocatorELb1EE6GetKeyES9_Lb1EE6createERKS5_Rb
H_:__ZL32MarkLevelGameManagerDependenciesR27GarbageCollectorThreadState
rea:__ZNK13GfxDeviceGLES26HasActiveRandomWriteTargetEv
T1c:__ZNK5physx15NpActorTemplateINS_18PxArticulationLinkEE7getNameEv
Ifl:_glGetActiveUniformsiv__wrapper
_kc:__Z43Register_UnityEngine_Material_EnableKeywordv
jzc:__ZNK5physx3Cct10Controller16getInternalStateERNS_17PxControllerStateE
Y0:__ZN13MonoBehaviour19SetupScriptingCacheE17ScriptingClassPtrP10MonoScript
u3i:__ZNSt3__214__split_bufferIP12Il2CppThreadRNS_9allocatorIS2_EEED2Ev
hs:__Z20AnimationEventToMonoRK14AnimationEventR18MonoAnimationEvent
B$:__ZNK15dense_hashtableINSt3__24pairIKiiEEi21InstanceIDHashFunctorN14dense_hash_mapIiiS4_NS0_8equal_toIiEE13stl_allocatorIS3_L18MemLabelIdentifier1ELi16EEE9SelectKeyES7_SA_E13find_positionERS2_
m0:__ZN17PersistentManager29ReadAndActivateObjectThreadedEiRK26SerializedObjectIdentifierP14SerializedFilebb
oWh:_ShimEnumerator_get_Current_m3610131784_gshared
uyd:__ZN5physx10PxsContext15setScratchBlockEPvj
M5j:__ZL74UnityEventBase_t828812576_CustomAttributesCacheGenerator_m_PersistentCallsP21CustomAttributesCache
t7:__ZZN15DirectorManager15InitializeClassEvEN52PreLateUpdateDirectorUpdateAnimationBeginRegistrator7ForwardEv
s2h:_DefaultComparer__ctor_m2265472997_gshared
Ulj:__ZN6il2cpp2vm13LivenessState18ShouldProcessValueEP12Il2CppObjectP11Il2CppClass
sxa:__ZN4PPtrI6SpriteE8TransferI14SafeBinaryReadEEvRT_
fMk:__Z49RuntimeInvoker_UIVertex_t1204258818_RuntimeObjectPFvvEPK10MethodInfoPvPS4_
esk:__Z52RuntimeInvoker_Void_t1841601450_TimeSpan_t3430258949PFvvEPK10MethodInfoPvPS4_
nhj:__ZN15dense_hashtableINSt3__24pairIK10KeyWrapperIP11Il2CppClassES4_EES5_N6il2cpp8metadata16SZArrayClassHashEN14dense_hash_mapIS5_S4_SA_NS5_14EqualsComparerINS9_19SZArrayClassCompareEEENS0_9allocatorIS7_EEE9SelectKeyESE_SG_E16reset_thresholdsEv
$Qc:__ZN5physx2Cm27getDynamicGlobalPoseAlignedERKNS_11PxTransformES3_S3_RS1_
pUk:_Matrix4x4_GetHashCode_m375571566
j$h:_Dictionary_2_System_Collections_Generic_ICollectionU3CSystem_Collections_Generic_KeyValuePairU3CTKeyU2CTValueU3EU3E_CopyTo_m3494157322_gshared
GDi:_InvokableCall_1__ctor_m1584932671_gshared
rgb:__ZNSt3__26vectorIN9ShaderLab14SerializedPassENS_9allocatorIS2_EEE8__appendEj
lZd:__ZN5physx6shdfnd5ArrayIPvNS0_19ReflectionAllocatorIN17PxcPoolMallocData10PoolData32EEEE15growAndPushBackERKS2_
Ifb:__ZNSt3__26vectorIN9ShaderLab20SerializedSubProgram13BufferBindingENS_9allocatorIS3_EEEC2INS_11__wrap_iterIPS3_EEEET_SB_RKS5_PNS_9enable_ifIXaasr21__is_forward_iteratorISB_EE5valuesr16is_constructibleIS3_NS_15iterator_traitsISB_E9referenceEEE5valueEvE4typeE
nWg:_Context_get_SupportedCiphers_m2172827298
r7b:__ZZL23RegisterLightPropertiesR22GenericPropertyBindingEN20Wrapper_LightColorb213GetFloatValueEPv
qOk:_Camera__ctor_m2624089815
X$a:__ZNK13ScreenManager21IsMultiDisplayEnabledEv
JEk:__Z133RuntimeInvoker_RuntimeObject_Vector2_t2243707579_Vector2_t2243707579_Single_t2076509932_Int32_t2071877448_RuntimeObject_RuntimeObjectPFvvEPK10MethodInfoPvPS4_
YXa:__ZN9Texture2D23VirtualRedirectTransferER18StreamedBinaryReadILb0EE
CWi:_Animator_get_hasBoundPlayables_m2257984562
Cxf:_Double_System_IConvertible_ToUInt16_m286326038_AdjustorThunk
cfh:_TypeInfo__ctor_m1475908211
$Zi:__ZN30dense_hashtable_const_iteratorINSt3__24pairIK10KeyWrapperIPKcEP11Il2CppClassEES5_N6il2cpp5utils11StringUtils12StringHasherIS4_EEN14dense_hash_mapIS5_S8_SE_NS5_14EqualsComparerINSB_13VmStringUtils21CaseSensitiveComparerEEENS0_9allocatorIS9_EEE9SelectKeyESJ_SL_E30advance_past_empty_and_deletedEv
$6j:__ZL73g_UnityEngine_TextRenderingModule_Assembly_CustomAttributesCacheGeneratorP21CustomAttributesCache
F1:__ZN16ScriptingManager27NativeTypeForScriptingClassE17ScriptingClassPtr
U5g:_X509Chain_WrapUp_m1072032285
pzi:_X509CertificateEnumerator_System_Collections_IEnumerator_MoveNext_m1448966539
Gie:_get_sfnt_table
cBg:_Collection_1_IsSynchronized_m3261594010_gshared
aNe:_SecuritySafeCriticalAttribute__ctor_m2508714287
l2b:__Z13RegisterClassI5LightEvv
sUe:_PointerEventData_set_pressPosition_m2094137883
DZa:__ZN8Renderer20RendererAddedToSceneEv
ikh:_DES_get_Key_m2584608215
YVb:__ZL22ScheduleSceneNodesJobsP25ScheduleSceneNodesJobDataj
ZGd:__ZN5physx22concludeContactCoulombERKNS_23PxcSolverConstraintDescERNS_16PxcSolverContextE
fl:_emscripten_set_canvas_size
S3g:_AsnEncodedData__ctor_m1611830939
sid:__ZNK5physx15NpParticleFluid12getStiffnessEv
Sjf:_Hashtable__ctor_m741952536
kki:_Comparer_1__cctor_m2253684996_gshared
_fb:__ZNSt3__26vectorIN9ShaderLab20SerializedSubProgramENS_9allocatorIS2_EEE8__appendEj
CW:__ZN20DynamicHeapAllocatorI17LowLevelAllocatorE8AllocateEji
LOb:__ZN20DynamicPropertySheet15SetVectorQueuedERKN9ShaderLab16FastPropertyNameERK8Vector4fN19ShaderPropertySheet8SetFlagsE
PPe:_String_Format_m1263743648
nIj:__ZL69RuntimeArray_CustomAttributesCacheGenerator_Array_Reverse_m3883292526P21CustomAttributesCache
sKg:_ReadOnlyCollection_1_System_Collections_IEnumerable_GetEnumerator_m4248982967_gshared
pB:__ZN7mecanim9animation22EvaluateAvatarRetargetEPKNS0_14AvatarConstantEPKNS0_11AvatarInputEPNS0_12AvatarOutputEPNS0_12AvatarMemoryEPNS0_15AvatarWorkspaceEb
N8e:_LayoutRebuilder_GetHashCode_m2745108660
aQa:__ZN14RenderSettings23VirtualRedirectTransferER19StreamedBinaryWriteILb0EE
ltc:__ZL26Transfer_SimpleNativeClassI9JSONWrite10RectOffsetLb0EEvRK29SerializationCommandArgumentsR31RuntimeSerializationCommandInfo
mzj:_GC_push_conditional
sia:__ZN17GenericDynamicVBO10AllocateVBEjR21DynamicVBOChunkHandle
Cog:_List_1_get_Item_m1547593893_gshared
Wvj:__ZN4utf88internal14get_sequence_4IPKcEENS0_9utf_errorERT_S5_Rj
S8f:_Path_GetPathRoot_m1269357080
dLd:__ZL27PxcTestFacesSepAxesBackfaceRKN5physx2Gu13PolygonalDataES3_RKNS_2Cm8Matrix34ES7_RKNS4_23FastVertex2ShapeScalingESA_S7_RKNS_6PxVec3ERfRSB_RjPjSG_fSD_
Woj:__ZN30dense_hashtable_const_iteratorI10KeyWrapperIP18Il2CppGenericClassES3_N6il2cpp8metadata22Il2CppGenericClassHashEN14dense_hash_setIS3_S6_NS3_14EqualsComparerINS5_25Il2CppGenericClassCompareEEENSt3__29allocatorIS3_EEE8IdentityESA_SD_EppEv
yjf:_KeyNotFoundException__ctor_m264393096
HSe:_EventSystem_SetSelectedGameObject_m2211816110
FXh:_Transform_1__ctor_m4161450529_gshared
El:_glMapBufferRange
QXa:__ZN9Texture2D8TransferI18StreamedBinaryReadILb0EEEEvRT_
bjc:__Z31Input_CUSTOM_GetMouseButtonDowni
Wwk:__Z41RuntimeInvoker_HandshakeState_t1820731088PFvvEPK10MethodInfoPvPS4_
mkc:__Z75Register_UnityEngine_Playables_PlayableHandle_INTERNAL_CALL_IsValidInternalv
E9b:__ZN13PlayableGraph4PlayEv
Fdd:__ZNK5physx7NpCloth23getExternalAccelerationEv
ZEa:__ZNK9Transform16GetLocalPositionEv
o9e:_Array_System_Collections_ICollection_get_Count_m2897196527
Sya:__ZN13LoadOperation19IntegrateTimeSlicedEi
P6h:_ArrayReadOnlyList_1_get_Item_m176001975_gshared
I9g:_InterpreterFactory__ctor_m3331468903
xId:__ZN5physx16PxsBroadPhaseMBP9updatePPUEPNS_10PxBaseTaskE
A_f:_X501__cctor_m3795360380
Cea:__ZN13GfxDeviceGLES22DispatchComputeProgramE12ObjectHandleI18ComputeProgram_TagPvE15ComputeBufferIDj
zJb:__ZN20DefaultGfxDeviceImpl32InitStereoGlobalsBuffersPlatformEiijPKv
Psk:__Z60RuntimeInvoker_Void_t1841601450_StreamingContext_t1417235061PFvvEPK10MethodInfoPvPS4_
Xpf:_Convert_ToInt32_m2297793940
tcb:__Z17TransformAABBSlowRK4AABBRK10Matrix4x4fRS_
hgj:__ZN13Il2CppHashMapINSt3__24pairIPK9FieldInfoP11Il2CppClassEEj17ReflectionMapHashIS7_ENS0_8equal_toIS7_EENS0_9allocatorINS1_IK10KeyWrapperIS7_EjEEEEEC2EjRKS9_RKSB_
Jeb:__ZN9ShaderLab21SerializedShaderState8TransferI14SafeBinaryReadEEvRT_
I7k:_ftruncate
fIe:_RSAPKCS1SignatureFormatter_SetKey_m2365816458
E3f:_Int16_GetHashCode_m304503362_AdjustorThunk
vme:_cf2_stack_pushInt
CE:__ZN7mecanim9animation20DestroyLayerConstantEPNS0_13LayerConstantERNS_6memory9AllocatorE
Bkd:__ZN5physx6shdfnd8PoolBaseINS_16NpParticleSystemENS0_19ReflectionAllocatorIS2_EEE12allocateSlabEv
OEf:_Array_InternalArray__IEnumerable_GetEnumerator_TisInt32_t2071877448_m372781915_gshared
UNd:__ZN5physx9PxTaskMgr12dispatchTaskEjb
aXk:_PropertyName__ctor_m4147171238_AdjustorThunk
Uoh:_CompressedStack__ctor_m276924800
WTe:_ExecuteEvents_get_cancelHandler_m1964324668
UTa:__ZN15SerializeTraitsINSt3__24pairIN4core12basic_stringIcNS2_20StringStorageDefaultIcEEEES6_EEE8TransferI24GenerateTypeTreeTransferEEvRS7_RT_
qhl:b89
phl:b88
STk:_Mathf_Sin_m712860563
V8j:__ZL70GUISettings_t622856320_CustomAttributesCacheGenerator_m_SelectionColorP21CustomAttributesCache
j2k:_Vector3_Dot_m827632793
fhl:b81
ehl:b80
zqa:__ZN7ApiGLES19CreateSparseTextureEjj14GraphicsFormatiiiiRiS1_S1_
p2:__ZN18ResourceImageGroup7CleanupEv
mhl:b85
PTc:__ZN5physx2Gu36closestPtPointTetrahedronTesselationEPNS_6shdfnd3aos5Vec3VES4_S4_RjRS3_S6_
ohl:b87
nhl:b86
yq:__ZN11Quaternionf8TransferI24GenerateTypeTreeTransferEEvRT_
sLd:__ZN5physx25PxcPCMContactSphereConvexERKNS_2Gu13GeometryUnionES3_RKNS_11PxTransformES6_RKfRNS_10PxcNpCacheERNS0_13ContactBufferE
_Sh:_ToggleGroup_RegisterToggle_m3118973598
Z6b:__ZN13ProduceHelperI4MeshLb0EE7ProduceE18MemLabelIdentifier18ObjectCreationMode
_Rg:_PrivateKeyInfo_Decode_m1053025782
y7g:_X509ChainElementCollection_System_Collections_ICollection_CopyTo_m1467895312
VUd:__ZN5physx2Cm18DelegateFanoutTaskINS_2Sc5SceneEXadL_ZNS3_20particlePostShapeGenEPNS_10PxBaseTaskEEEED0Ev
DZf:_PKCS12_Decrypt_m2457743414
kVa:__ZN8Playable19SetOutputConnectionEPS_i
qZi:__ZN15dense_hashtableINSt3__24pairIK10KeyWrapperIPK11Il2CppClassEPKcEES6_N6il2cpp5utils11PointerHashIS3_EEN14dense_hash_mapIS6_S9_SE_NS6_14EqualsComparerINS0_8equal_toIS5_EEEENS0_9allocatorISA_EEE9SelectKeyESJ_SL_EC2ERKSO_j
sm:_glDeleteShader
bL:__ZN11SoundHandle8Instance15UpdateLoadStateEv
$1j:__ZL88Mesh_t1356156583_CustomAttributesCacheGenerator_Mesh_Internal_Create_m384282753____mono0P21CustomAttributesCache
szf:_Exception_GetType_m3898489832
rma:__ZN6prcoreL17RemapGenericFloatI15TexFormatRGHalf16TexFormatRGFloatEEvPKNS_9InnerInfoE
x8c:__ZN5physx6shdfnd8PoolBaseINS_10NpMaterialENS0_19ReflectionAllocatorIS2_EEE15disposeElementsEv
hyg:_Stack_1_Peek_m1548778538_gshared
tGg:_Collection_1_System_Collections_IList_get_Item_m1995028750_gshared
mCi:_GUILayoutUtility_get_spaceStyle_m4248899869
KQh:_Shadow_set_effectColor_m3110056844
Nec:__Z27scripting_add_internal_callPKcPKv
YKf:_Array_InternalArray__Insert_TisUriScheme_t1876590943_m2728325409_gshared
N9j:__ZL72GUISkin_t1436893342_CustomAttributesCacheGenerator_m_verticalSliderThumbP21CustomAttributesCache
Tfj:__ZN13Il2CppHashMapINSt3__24pairIPK9EventInfoP11Il2CppClassEEj17ReflectionMapHashIS7_ENS0_8equal_toIS7_EENS0_9allocatorINS1_IK10KeyWrapperIS7_EjEEEEEC2EjRKS9_RKSB_
Apj:__GLOBAL__sub_I_GarbageCollector_cpp
pqa:__Z17GetPlayerSettingsv
CAc:__ZL21ContactReductionAllInRN5physx2Gu13ContactBufferEjjRKNS_7PxMat33EPKNS_6PxVec3EPKh
QB:__ZN34BlobWriteTransferSTLStyleArrayImplI22OffsetPtrArrayTransferIiEEclERS1_17TransferMetaFlagsR9BlobWrite
Czi:_X509Store_CheckStore_m1027496478
XPc:__ZThn12_N5physx3Ext5JointINS_15PxRevoluteJointENS_30PxRevoluteJointGeneratedValuesEE20getExternalReferenceERj
SMk:_AddComponentMenu__ctor_m686408932
KNj:__ZL82MethodBase_t904190842_CustomAttributesCacheGenerator_MethodBase_Invoke_m1075809207P21CustomAttributesCache
Lt:__ZN26AnimatorControllerPlayable18SetLayerAutoWeightEv
pwe:__Z44Register_UnityEngine_Canvas_get_pixelPerfectv
yPe:_String_Contains_m4017059963
iOf:_Array_swap_TisCustomAttributeNamedArgument_t94157543_TisCustomAttributeNamedArgument_t94157543_m3600072996_gshared
Eii:_DefaultComparer_Compare_m1606207039_gshared
Ite:__ZN2UI14CanvasRenderer12SyncMaterialENS0_8SyncFlagE
fDj:__ZN6il2cpp2vm9Parameter30GetDefaultParameterValueObjectEPK10MethodInfoPK13ParameterInfoPb
tIi:_Action_EndInvoke_m4281032350
MLf:_Array_InternalArray__set_Item_TisLabelData_t3712112744_m2253365137_gshared
oHh:_MonoCMethod_get_Attributes_m3914742834
vAh:_ConstructorBuilder_get_DeclaringType_m4264602248
Pvf:_Decimal_decimalDiv_m900036616
hdg:_StringReader__ctor_m643998729
w2g:_IPv6Address_TryParse_m2220524278
E2c:__ZN5physx19NpRigidBodyTemplateINS_18PxArticulationLinkEE16setRigidBodyFlagENS_15PxRigidBodyFlag4EnumEb
JLi:_PCMReaderCallback_EndInvoke_m4163012370
v8e:_U3CDelayedSetDirtyU3Ec__Iterator0_System_Collections_Generic_IEnumeratorU3CobjectU3E_get_Current_m2210283424
wie:_UNITY_tt_face_done_kern
Moi:_Context_get_DefaultContext_m2211922324
pzh:_CustomAttributeData_get_NamedArguments_m708818174
D3a:__ZN12BoneWeights48TransferI24GenerateTypeTreeTransferEEvRT_
pSg:_RSAManaged_GetPaddedValue_m2972141669
tPh:_ScrollRect_OnDrag_m1424848249
HXg:_TlsServerCertificate_ProcessAsSsl3_m277089231
gFf:_Array_InternalArray__IEnumerable_GetEnumerator_TisUInt16_t986882611_m3665860884_gshared
MGb:__Z19scripting_gc_enablev
gKb:__ZZ23InitPlayerLoopCallbacksvEN41InitializationPlayerUpdateTimeRegistrator7ForwardEv
Xti:_AnchorInfo__ctor_m617409099
t7d:__ZN5physx7profile11EventBufferINS_24PxDefaultContextProviderENS_6shdfnd6MutexTINS0_26WrapperReflectionAllocatorIhEEEENS0_14ScopedLockImplIS7_EENS_24PxProfileNullEventFilterEE9stopEventEty
T_b:__Z29StdTemplateConversionFunctionIihEbPvR14SafeBinaryRead
YCh:_GenericTypeParameterBuilder_GetMethodImpl_m528545634
qve:__Z55Register_UnityEngine_CanvasRenderer_DisableRectClippingv
nah:_Interval_CompareTo_m2909556284_AdjustorThunk
a3a:__ZN14SafeBinaryRead21TransferSTLStyleArrayI13dynamic_arrayI11ColorRGBA32Lj4EEEEvRT_17TransferMetaFlags
iua:__ZN9GfxDevice22UploadTextureCubeArrayE9TextureIDPKhjii14GraphicsFormati18TextureUploadFlags
VHj:__ZL87RuntimeArray_CustomAttributesCacheGenerator_Array_CreateInstance_m679102425____lengths1P21CustomAttributesCache
uLh:_Navigation_t1571958496_marshal_pinvoke
e9g:_Interpreter_GetLastDefined_m2450713313
oti:_Parser_ParseAssertionType_m3316669790
Eib:__ZN9ShaderLab7Program27CreateFromSerializedProgramERKNS_17SerializedProgramE10ShaderTypeiP16PropertyNamesSetPK6Shader
lQh:_Selectable_get_isPointerDown_m774209881
yHj:__ZL73Enum_t2459695545_CustomAttributesCacheGenerator_Enum_ToObject_m2460371738P21CustomAttributesCache
_jb:__ZNSt3__27__sort4IRNS_6__lessIN4core12basic_stringIcNS2_20StringStorageDefaultIcEEEES6_EEPS6_EEjT0_SA_SA_SA_T_
kbl:dynCall_viiiifii
vej:__ZN6il2cpp2gc19AppendOnlyGCHashMapINSt3__24pairIPK11Il2CppImageP11Il2CppClassEEP22Il2CppReflectionModule17ReflectionMapHashIS9_ENS2_8equal_toIS9_EEEC2Ev
N$:__Z20GetPersistentManagerv
Ape:_UNITY_TT_Set_Var_Design
Loi:_Context_Finalize_m1386439645
sY:__ZN21SystemInfoStringCache16StaticInitializeEPv
MTg:_TlsStream__ctor_m4117943603
RLf:_Array_InternalArray__set_Item_TisParameterModifier_t1820634920_m3126548327_gshared
uSc:__ZN5physx2Sc7BodySim18internalWakeUpBaseEf
Ltj:__ZN6il2cpp2gc16GarbageCollector23MakeDescriptorForObjectEPji
Hpj:__ZNK10KeyWrapperIP12Il2CppObjectE14EqualsComparerINSt3__28equal_toIS1_EEEclERKS2_S9_
NJh:_ParameterModifier_t1820634920_marshal_pinvoke
_Db:__ZNK13MonoBehaviour7GetNameEv
zdb:__ZN19ScriptingInvocation28AdjustArgumentsToMatchMethodEv
gpj:__ZN15dense_hashtableI10KeyWrapperIP18Il2CppGenericClassES3_N6il2cpp8metadata22Il2CppGenericClassHashEN14dense_hash_setIS3_S6_NS3_14EqualsComparerINS5_25Il2CppGenericClassCompareEEENSt3__29allocatorIS3_EEE8IdentityESA_SD_E6insertERKS3_
UI:__Z15_CheckFMODError11FMOD_RESULTPKciS1_
gRe:_AbstractEventData_Use_m1797212290
OMa:__Z20RenderMultipleMeshesRK15RenderNodeQueueRK18RenderMultipleData17ShaderChannelMask
Dfk:__ZL150U3CDelayedDestroyDropdownListU3Ec__Iterator0_t3461999471_CustomAttributesCacheGenerator_U3CDelayedDestroyDropdownListU3Ec__Iterator0_Reset_m3485957852P21CustomAttributesCache
e9i:__ZN6il2cpp2vm4Type19GetGenericParameterEPK10Il2CppType
U9h:_InternalEnumerator_1__ctor_m439810834_AdjustorThunk
Sue:__Z51Register_UnityEngine_CanvasGroup_get_blocksRaycastsv
Zgi:_InternalEnumerator_1_get_Current_m2826780083_gshared
Qod:__ZN5physx20NpRigidActorTemplateINS_13PxRigidStaticEE15exportExtraDataERNS_22PxSerializationContextE
eDf:_Array_InternalArray__ICollection_Remove_TisCustomAttributeNamedArgument_t94157543_m2838387005_gshared
dkk:__ZL105LayoutUtility_t4076838048_CustomAttributesCacheGenerator_LayoutUtility_U3CGetMinHeightU3Em__4_m1769295917P21CustomAttributesCache
CWd:__ZN5physx13BigConvexData5VLoadERNS_13PxInputStreamE
kii:_InternalEnumerator_1__ctor_m2782443954_AdjustorThunk
Td:_glBeginQuery
Zxh:_Assembly_GetCustomAttributes_m95309865
BMc:__ZN5physx3Ext7D6JointD2Ev
ELb:__ZN6Camera12RenderStereoENS_10RenderFlagE8CullFlagPNS_24PerformEyeRenderFunctionE
AQg:_RC4__ctor_m1585026462
nmb:__ZN20LocalFileSystemPosix10ToAbsoluteEPKc
BMa:__ZN20TierGraphicsSettings8TransferI19StreamedBinaryWriteILb0EEEEvRT_
Wdi:_InternalEnumerator_1_get_Current_m2286118957_AdjustorThunk
qHf:_Array_InternalArray__IndexOf_TisX509ChainStatus_t4278378721_m1338369069_gshared
NX:__GLOBAL__sub_I_runtime_input_0_cpp
Omf:_Convert_ToBoolean_m48997236
cud:__ZNK5physx7NpScene28getSceneQueryStaticTimestampEv
$m:f0
$wa:__ZN9BehaviourD0Ev
Fgf:_ArrayListWrapper_set_Capacity_m2792463350
YLa:__Z32TransferEnumWithNameForceIntSizeI14SafeBinaryRead7HDRModeEvRT_RT0_PKc17TransferMetaFlags
y6k:_getcwd
I4d:__ZNSt3__26vectorI9CollisionNS_9allocatorIS1_EEE21__push_back_slow_pathIKS1_EEvRT_
Yti:_AnchorInfo_get_Offset_m142119297
aya:__ZN25ThreadsafeLinearAllocatorD2Ev
cec:__ZL50GetAndClearChangedTransformsForMultilpleSystemsJobP45GetChangedTransformsForMultipleSystemsJobDatajPK23TransformAccessReadOnlyPKyj
dCd:__ZN5physx2Sq10AABBPruner11preallocateEj
Obb:__Z21SendMessageToEveryoneRK17MessageIdentifier11MessageData
_Ei:_UnityAction_1_EndInvoke_m902670333_gshared
w5:__ZN21BillboardBatchManager16StaticInitializeEPv
LZ:__ZN12_GLOBAL__N_138ArchiveRedirectFileSystemStaticDestroyEPv
jzf:_EventHandler_Invoke_m1137722757
Kxk:__Z70RuntimeInvoker_Boolean_t3825574718_Int32_t2071877448_Int16_t4041245914PFvvEPK10MethodInfoPvPS4_
bWa:__ZN12CubemapArray34UpdateFileTextureUploadInstructionEP26FileAssetUploadInstructionj
Drd:__ZN5physx2Sc19ShapeInstancePairLLC2ERNS0_8ShapeSimES3_RNS0_9ActorPairENS_7PxFlagsINS_10PxPairFlag4EnumEtEE
Egg:_MonoType_IsSubclassOf_m2211166238
$ij:__ZN6il2cpp6icalls8mscorlib6System5Array9GetLengthEP11Il2CppArrayi
dKh:_TypeFilter_EndInvoke_m997625354
TBg:_Collection_1_System_Collections_ICollection_CopyTo_m2859266050_gshared
yqa:__Z23CreateSparseTextureGLES9TextureIDii14GraphicsFormati
tji:_Comparer_1__ctor_m2876014041_gshared
Xzj:_GC_continue_reclaim
Dgf:_ArrayListWrapper_get_Count_m2207944952
z7g:_X509ChainElementCollection_System_Collections_IEnumerable_GetEnumerator_m2559704689
MYj:__ZL86BigInteger_t925946153_CustomAttributesCacheGenerator_BigInteger_op_Implicit_m622924526P21CustomAttributesCache
mfk:__ZL59Dropdown_t1985816271_CustomAttributesCacheGenerator_m_ValueP21CustomAttributesCache
M9g:_InterpreterFactory_set_Gap_m2761943153
P4g:_PublicKey_get_Key_m126090744
Cee:__ZNSt3__23mapIN20TextRenderingPrivate7FontRefEP11FT_FaceRec_NS_4lessIS2_EENS_9allocatorINS_4pairIKS2_S4_EEEEEixERS9_
pAa:__ZN17ArchiveFileSystem10AddStorageEP20ArchiveStorageReader
K2c:__ZN5physx19NpRigidBodyTemplateINS_18PxArticulationLinkEE27setMaxDepenetrationVelocityEf
POi:__ZL25UnresolvedVirtualCall_104P12Il2CppObjectS0_S0_S0_iPK10MethodInfo
ogd:__ZN5physx2Sc9ClothCore16setStretchConfigENS_22PxClothFabricPhaseType4EnumERKNS_20PxClothStretchConfigE
n9d:_PxCreateFoundation
t2i:__ZN6il2cpp2vm13MetadataCache37GetParameterDefaultValueDataFromIndexEi
r4h:_EqualityComparer_1_System_Collections_IEqualityComparer_GetHashCode_m1203798961_gshared
EXi:__ZN6il2cpp2vm5Class15GetEnumBaseTypeEP11Il2CppClass
c9f:_DirectoryNotFoundException__ctor_m3713860966
eXa:__ZNK9Texture2D16GetNpotTexelSizeEv
vai:_InternalEnumerator_1__ctor_m245588437_gshared
p8g:_Capture_get_Text_m3472127896
zKh:_Mask_get_rectTransform_m3304369086
P9d:__ZN13dynamic_arrayItLj2EE6insertEPtPKtS3_
q2h:_DefaultComparer_GetHashCode_m4073394827_gshared
Sbf:__ZN21InterfaceFuncInvoker1ItP12Il2CppObjectE6InvokeEjP11Il2CppClassS1_S1_
xia:__ZN9GfxDevice22GetDefaultVertexBufferE26GfxDefaultVertexBufferTypej
D1j:__ZL83Input_t1785128008_CustomAttributesCacheGenerator_Input_get_mousePresent_m1100327283P21CustomAttributesCache
PJg:_ReadOnlyCollection_1_System_Collections_ICollection_CopyTo_m1129689124_gshared
Q6k:___fseeko_unlocked
Hhl:_glGetActiveUniform__wrapper
I6k:_sscanf
bFg:_Collection_1_Contains_m1999290510_gshared
YLc:__ZN5physx3Cct17CapsuleControllerC2ERKNS_16PxControllerDescERNS_9PxPhysicsEPNS_7PxSceneE
p3a:__ZN14SafeBinaryRead21TransferSTLStyleArrayINSt3__26vectorI17BlendShapeChannelNS1_9allocatorIS3_EEEEEEvRT_17TransferMetaFlags
MHb:__Z17BeginSplashScreenv
Ihb:__ZN9ShaderLab16SerializedShader8TransferI19StreamedBinaryWriteILb0EEEEvRT_
Euh:_UInt32_Parse_m2400360707
KD:__ZN7mecanim9animation18CreateAvatarMemoryEPKNS0_14AvatarConstantERNS_6memory9AllocatorE
kmf:_Stack_Pop_m3788808882
hUh:_Enumerator_VerifyCurrent_m4246196125_AdjustorThunk
$0h:_Dictionary_2_pick_value_m3484897877_gshared
VQk:_ArgumentCache__ctor_m1191928438
Ktf:_DateTime_op_Equality_m1867073872
zC:__ZN7mecanim8skeleton16SkeletonPoseCopyIN4math4trsXENS2_7affineXEEEvPKNS0_13SkeletonPoseTIT_EEPNS5_IT0_EE
ixb:__Z18Transfer_BlittableI19StreamedBinaryWriteILb0EELb0EaEvRK29SerializationCommandArgumentsR31RuntimeSerializationCommandInfo
cia:__ZN18GfxFramebufferGLES18GetFramebufferNameERK20GfxRenderTargetSetup
t8i:__ZN6il2cpp2vm14TypeNameParser12ParseVersionERKNSt3__212basic_stringIcNS2_11char_traitsIcEENS2_9allocatorIcEEEERtSB_SB_SB_
ypc:__Z30Event_Get_Custom_PropCharacterP12Il2CppObject
O6:__ZN13PlayableGraph27SchedulePlayableDestructionERK9HPlayable
hIc:__ZN5physx6shdfnd5ArrayINS_12PxDebugPointENS0_19ReflectionAllocatorIS2_EEE15growAndPushBackERKS2_
Lel:_glGetFramebufferAttachmentParameteriv__wrapper
uBe:__Z13RegisterClassI20UnityConnectSettingsEvv
eqb:__Z22scripting_array_length17ScriptingArrayPtr
_Ke:_SecurityElement_GetAttribute_m4288291176
ghi:_InternalEnumerator_1_System_Collections_IEnumerator_get_Current_m2389982234_gshared
I1d:__ZN8Collider13AwakeFromLoadE17AwakeFromLoadMode
HGi:_IndexedSet_1_get_Count_m2839545138_gshared
pWa:__ZN14SafeBinaryRead20TransferTypelessDataEjPvi
$Ug:_RecordProtocol_SendAlert_m2529562669
u5a:__ZN14SpriteRenderer18UpdateCachedSpriteEb
Hdl:b34
Msg:_List_1_AddCollection_m3284813601_gshared
eke:_Horizontal_Sweep_Init
Lik:__ZL102ToggleGroup_t1030026315_CustomAttributesCacheGenerator_ToggleGroup_U3CActiveTogglesU3Em__1_m4052653494P21CustomAttributesCache
Zpa:__Z19GetActiveColorSpacev
K4h:_EqualityComparer_1__cctor_m1672307556_gshared
Adh:_SoapTypeAttribute_get_IsInteropXmlElement_m2941294827
Phe:_UNITY_tt_face_load_kern
mlg:_Enumerator_System_Collections_IEnumerator_get_Current_m3542273247_gshared
Wef:_Char_System_IConvertible_ToUInt32_m1557991717_AdjustorThunk
bmh:_Encoding_get_UTF8Unmarked_m628720656
G4f:_NumberFormatter_RoundBits_m1545255255
dZ:__Z6StrCmpPKcS0_
zsk:__Z119RuntimeInvoker_Void_t1841601450_RuntimeObject_Int64U26_t763825331_ObjectU26_t597476745_SerializationInfoU26_t4051840202PFvvEPK10MethodInfoPvPS4_
mjb:__Z21CheckGpuProgramUsable20ShaderGpuProgramType
Oyh:_Binder__cctor_m3736115807
Usj:__ZN6il2cpp2os9Directory20GetFileSystemEntriesERKNSt3__212basic_stringIcNS2_11char_traitsIcEENS2_9allocatorIcEEEESA_iiPi
TGk:__Z84RuntimeInvoker_Int32_t2071877448_Color32_t874517518_Color32_t874517518_RuntimeObjectPFvvEPK10MethodInfoPvPS4_
Y4c:__ZN5physx6shdfnd5ArrayIPvNS0_19ReflectionAllocatorINS_2Cm5BlockIhLj128EEEEEE4copyINS0_15InlineAllocatorILj256ES7_EEEEvRKNS1_IS2_T_EE
pbf:_Attribute_GetHashCode_m2653962112
Bde:__ZN20TextRenderingPrivate19NativeTextGenerator5SetupEv
zqi:_AsyncResult_GetReplyMessage_m262842621
jTb:__ZNK15SharedLightData24GetFinalShadowResolutionEv
Njg:_Enumerator__ctor_m3021143890_AdjustorThunk
D8c:__ZN5physx6shdfnd8PoolBaseINS_16NpConnectorArrayENS0_19ReflectionAllocatorIS2_EEE15disposeElementsEv
V8a:__ZN12AspectRatios8TransferI18StreamedBinaryReadILb0EEEEvRT_
hae:__ZN14PhysicsManager19CreatePvdConnectionEv
bKj:__ZL66X509ExtensionCollection_t1640144839_CustomAttributesCacheGeneratorP21CustomAttributesCache
b9b:__ZN10GameObject14CopyPropertiesERS_
YPi:__ZL25UnresolvedVirtualCall_167P12Il2CppObject19Vector3_t2243707580S1_PK10MethodInfo
mqc:__Z44Register_UnityEngine_GUIStyle_get_fixedWidthv
FHe:_RSACryptoServiceProvider_Common_m2581564813
cyi:_X509CertificateEnumerator_MoveNext_m4060814498
XZk:_Vector2_Scale_m2260641886
hbg:_MemoryStream_CheckIfClosedThrowDisposed_m2253054610
l7h:_ArrayReadOnlyList_1_GetEnumerator_m634288642_gshared
V$a:__ZNK13ScreenManager12IsFullScreenEv
j7k:_rand
mfl:_emscripten_glFramebufferRenderbuffer__wrapper
z0d:__ZNK8Collider16SupportsMaterialEv
S9h:_InternalEnumerator_1_get_Current_m2345377791_AdjustorThunk
M7c:__ZNK5physx12NpConstraint9getActorsERPNS_12PxRigidActorES3_
AAk:__Z72RuntimeInvoker_Boolean_t3825574718_Ray_t2469606224_SingleU26_t4173844468PFvvEPK10MethodInfoPvPS4_
ttj:__ZN6il2cpp5utils9PathUtils7CombineIcEENSt3__212basic_stringIT_NS3_11char_traitsIS5_EENS3_9allocatorIS5_EEEERKNS0_10StringViewIS5_EERKSA_
UMg:_ReadOnlyCollection_1_GetEnumerator_m2481390116_gshared
Tpk:__Z77RuntimeInvoker_Void_t1841601450_RuntimeObject_Int32_t2071877448_RuntimeObjectPFvvEPK10MethodInfoPvPS4_
arb:__ZN14SafeBinaryRead21TransferSTLStyleArrayINSt3__26vectorI17AnimationCurveTplIfE13stl_allocatorIS4_L18MemLabelIdentifier1ELi16EEEEEEvRT_17TransferMetaFlags
fZd:__ZN5physx6shdfnd8PoolBaseIN17PxcPoolMallocData10PoolData16ENS0_19ReflectionAllocatorIS3_EEE15disposeElementsEv
f1d:__ZN9Rigidbody23UpdateInterpolationNodeEv
Ccj:__ZN15dense_hashtableINSt3__24pairIK10KeyWrapperINS1_IPK11Il2CppImageP11Il2CppClassEEEjEES9_17ReflectionMapHashIS8_EN14dense_hash_mapIS9_jSD_NS9_14EqualsComparerINS0_8equal_toIS8_EEEENS0_9allocatorISB_EEE9SelectKeyESI_SK_E12expand_arrayEjN21dense_hash_map_traits17integral_constantIbLb0EEE
qgh:_ObjectManager_RegisterObject_m872610295
HVb:__Z22PrepareOptimizedPlanesPK5PlaneiPKN4math7_float4E
ZYk:_RectOffset_t3387826427_marshal_pinvoke
n1e:_Graphic_SetVerticesDirty_m1607014370
qV:__ZN11UnityEngine15CloudWebService17WebFileDownloaderINS0_20WebRequestRestClientENS0_23WebRequestRestHeaderMapEE10InitializeERKN4core12basic_stringIcNS5_20StringStorageDefaultIcEEEE
u5:__ZN17UniqueIDGenerator15CreatePureIndexEv
RIk:__Z58RuntimeInvoker_Void_t1841601450_Int32_t2071877448_IntPtr_tPFvvEPK10MethodInfoPvPS4_
ZQg:_MD2__ctor_m3133818738
ct:__ZN11UnityEngine9Animation28GenericAnimationBindingCache15DidReloadDomainEv
N$f:_AppDomain_InternalGetProcessGuid_m1278588156
C6e:_InputField_MoveRight_m386206014
Kkf:_HashValues_get_Count_m234926373
K9a:__ZNSt3__26vectorIN15ResourceManager10DependencyE13stl_allocatorIS2_L18MemLabelIdentifier52ELi16EEE6assignINS_11__wrap_iterIPS2_EEEENS_9enable_ifIXaasr21__is_forward_iteratorIT_EE5valuesr16is_constructibleIS2_NS_15iterator_traitsISC_E9referenceEEE5valueEvE4typeESC_SC_
xOh:_ScrollRect_set_inertia_m2575649134
i8f:_BinaryReader_ReadBoolean_m2892291883
UWi:__ZN15dense_hashtableINSt3__24pairIK10KeyWrapperIPK22Il2CppGenericParameterEP11Il2CppClassEES6_N6il2cpp5utils11PointerHashIS4_EEN14dense_hash_mapIS6_S9_SE_NS6_14EqualsComparerINS0_8equal_toIS5_EEEENS0_9allocatorISA_EEE9SelectKeyESJ_SL_E14squash_deletedEv
U6h:_ArrayReadOnlyList_1_Clear_m2539474626_gshared
Mjj:__ZN6il2cpp6icalls8mscorlib6System9Threading6Thread22CurrentThread_internalEv
Ebk:__ZL85Canvas_t209405766_CustomAttributesCacheGenerator_Canvas_get_sortingLayerID_m137448982P21CustomAttributesCache
jRd:__ZN21PxsParallelSolverTaskD0Ev
C7b:__ZZL23RegisterLightPropertiesR22GenericPropertyBindingEN18Wrapper_LightRange13SetFloatValueEPvf
JRj:__ZL73AsymmetricSignatureDeformatter_t3580832979_CustomAttributesCacheGeneratorP21CustomAttributesCache
Zna:__ZNSt3__26vectorI27ComputeShaderBuiltinSamplerNS_9allocatorIS1_EEE21__push_back_slow_pathIKS1_EEvRT_
qWi:_AnimatorControllerPlayable__ctor_m4080566273
KXg:_TlsServerCertificate_validateCertificates_m1988583701
Ovi:_Uri__ctor_m3927533881
rJj:__ZL61DllImportAttribute_t3000813225_CustomAttributesCacheGeneratorP21CustomAttributesCache
Lmk:__Z66RuntimeInvoker_Int32_t2071877448_RuntimeObject_Int32U26_t455636984PFvvEPK10MethodInfoPvPS4_
APi:__ZL25UnresolvedVirtualCall_143P12Il2CppObjectaaPK10MethodInfo
NGa:__ZNK9Transform18TransformDirectionERK8Vector3f
_Ud:__ZN5physx21PxsBodyTransformVault6updateEv
lBa:__ZNK17ArchiveFileSystem12GetAssetGUIDERK13FileEntryData
djb:__ZNSt3__26vectorIN9ShaderLab20SerializedSubProgram15MatrixParameterENS_9allocatorIS3_EEE21__push_back_slow_pathIKS3_EEvRT_
Fkl:_emscripten_glClearStencil__wrapper
bAc:__ZL29GeomMTDCallback_CapsuleConvexRN5physx6PxVec3ERfRKNS_10PxGeometryERKNS_11PxTransformES5_S8_
pIk:__Z60RuntimeInvoker_Void_t1841601450_ResourceCacheItem_t333236149PFvvEPK10MethodInfoPvPS4_
f5h:_EqualityComparer_1_get_Default_m1852501307_gshared
e1i:__ZN15dense_hashtableINSt3__24pairIK10KeyWrapperIPK11Il2CppClassEPKcEES6_N6il2cpp5utils11PointerHashIS3_EEN14dense_hash_mapIS6_S9_SE_NS6_14EqualsComparerINS0_8equal_toIS5_EEEENS0_9allocatorISA_EEE9SelectKeyESJ_SL_E12resize_deltaEjj
V8k:__ZNK10__cxxabiv120__si_class_type_info27has_unambiguous_public_baseEPNS_19__dynamic_cast_infoEPvi
c1f:_NumberFormatInfo_get_PercentNegativePattern_m1162448153
LKj:__ZL56SyncHashtable_t1343674558_CustomAttributesCacheGeneratorP21CustomAttributesCache
Xcl:_glTexSubImage3D__wrapper
BEg:_Collection_1_get_Item_m4215988522_gshared
B8g:_FactoryCache_Add_m2602974721
wia:__Z30AddDefaultStreamsToMeshBuffersR9GfxDeviceR11MeshBuffersj17ShaderChannelMaskS3_
nZ:__ZL16GetInterfaceImpl18UnityInterfaceGUID
p1f:_RegionInfo_construct_internal_region_from_name_m3316088619
XXi:__ZN6il2cpp2vmL17SetupFieldOffsetsENS0_15FieldLayoutKindEP11Il2CppClassjRKNSt3__26vectorIjNS4_9allocatorIjEEEE
dVj:__ZL60ArgumentException_t3259014390_CustomAttributesCacheGeneratorP21CustomAttributesCache
$mg:_List_1_System_Collections_IList_get_Item_m936612973_gshared
ewj:__ZN6il2cpp6icalls8mscorlib6System15MonoCustomAttrs27GetCustomAttributesInternalEP12Il2CppObjectP20Il2CppReflectionTypeb
Hpe:_UNITY_TT_Set_MM_Blend
bga:__Z24PluginsSetGraphicsDevicePvi18GfxDeviceEventType
QX:__GLOBAL__sub_I_runtime_math_random_0_cpp
Agh:_ObjectReader_ReadAssembly_m869834280
ryc:__ZNK5physx3Cct13BoxController11getPositionEv
pZk:_RectOffset_ToString_m132957684
XHb:__ZN14PreloadManager35WaitForAllAsyncOperationsToCompleteEv
Xld:__ZN5physx14NpRigidDynamicC2ERKNS_11PxTransformE
mMg:_ReadOnlyCollection_1_System_Collections_IList_get_Item_m1831743662_gshared
dGg:_Collection_1_IsSynchronized_m971497175_gshared
QDc:__Z27sweepCCTBox_HeightFieldGeomRKN5physx10PxGeometryERKNS_11PxTransformERKNS_2Gu3BoxERKNS_6PxVec3EfRNS_10PxSweepHitENS_7PxFlagsINS_9PxHitFlag4EnumEtEEf
X_:__ZNK18ScriptingObjectPtr17ToScriptingStringEv
GTe:_ExecuteEvents_Execute_m1617536317
ZRh:_Text_get_cachedTextGeneratorForLayout_m1357670532
zK:__ZL31InitializeAudioScriptingClassesv
V0j:__ZL75Screen_t786852042_CustomAttributesCacheGenerator_Screen_get_dpi_m2147924568P21CustomAttributesCache
UMb:__Z14SortGUIByDepthP10GUIElementS0_
i5f:_NumberFormatter_NumberToString_m126384393
Pgl:_emscripten_glVertexAttrib4fv__wrapper
KY:__ZN13RuntimeStaticI13dynamic_arrayIPK31TransferFunctionScriptingTraitsLj4EELb0EE16StaticInitializeEPv
dbh:_LogicalCallContext__ctor_m3173272863
I3k:_Physics_Raycast_m1646062349
hD:__ZN12_GLOBAL__N_120ProcessRootMotionMixER33AnimationPlayableEvaluationOutputR35AnimationPlayableEvaluationConstantR32AnimationPlayableEvaluationInputS1_f
Lzc:__ZN5physx3Cct9SweepTest18updateTouchedGeomsEPKNS0_30InternalCBData_FindTouchedGeomERKNS0_13UserObstaclesERKNS_17PxExtendedBounds3ERKNS_19PxControllerFiltersERKNS_6PxVec3E
pfg:_MonoCustomAttrs__cctor_m2608447972
Q3f:_Int32_FindSign_m3803672540
n1j:__ZL98TouchScreenKeyboard_t601950206_CustomAttributesCacheGenerator_TouchScreenKeyboard_Open_m4126304679P21CustomAttributesCache
A7d:_PxCloseExtensions
WEk:__Z95RuntimeInvoker_Void_t1841601450_ObjectU5BU5DU26_t3223402458_Int32_t2071877448_Int32_t2071877448PFvvEPK10MethodInfoPvPS4_
Pmb:__ZNK20LocalFileSystemPosix21GetAvailableDiskSpaceEPKcRy
wY:__ZNSt3__26__treeIiNS_4lessIiEENS_9allocatorIiEEE7destroyEPNS_11__tree_nodeIiPvEE
UTi:_Predicate_1__ctor_m2995226103_gshared
CTg:_CipherSuite_InitializeCipher_m229247572
i5g:_X509Certificate2__ctor_m1095336775
lba:__ZNK9GfxDevice14GetWorldMatrixEv
cJh:_MonoProperty_GetGetMethod_m1100580870
C0h:_Dictionary_2__ctor_m1950568359_gshared
$uj:__ZN15dense_hashtableINSt3__24pairIK10KeyWrapperIPK19Il2CppGenericMethodEP10MethodInfoEES6_N6il2cpp8metadata23Il2CppGenericMethodHashEN14dense_hash_mapIS6_S9_SD_NS6_14EqualsComparerINSC_26Il2CppGenericMethodCompareEEENS0_9allocatorISA_EEE9SelectKeyESH_SJ_E13set_empty_keyERKSA_
dlb:__Z19scripting_array_new17ScriptingClassPtrjj
XQk:_ArgumentCache_get_unityObjectArgumentAssemblyTypeName_m2336879664
Wrk:__Z90RuntimeInvoker_Void_t1841601450_IntPtr_t_Int32_t2071877448_RuntimeObject_Int32_t2071877448PFvvEPK10MethodInfoPvPS4_
GYa:__ZN14SafeBinaryRead21TransferSTLStyleArrayI13dynamic_arrayI12LightmapDataLj4EEEEvRT_17TransferMetaFlags
e0f:_ArgumentException__ctor_m3312963299
fgb:__ZNSt3__26vectorIN9ShaderLab20SerializedSubProgram16TextureParameterENS_9allocatorIS3_EEE6assignIPS3_EENS_9enable_ifIXaasr21__is_forward_iteratorIT_EE5valuesr16is_constructibleIS3_NS_15iterator_traitsISA_E9referenceEEE5valueEvE4typeESA_SA_
nLg:_ReadOnlyCollection_1_get_Item_m1696267180_gshared
K$i:__ZN13Il2CppHashMapIN6il2cpp5utils13dynamic_arrayIPK10Il2CppTypeLj4EEEPFvvENS0_8metadata19Il2CppSignatureHashENS9_22Il2CppSignatureCompareENSt3__29allocatorINSC_4pairIK10KeyWrapperIS6_ES8_EEEEEC2EjRKSA_RKSB_
MSi:_U3CCreateWhereIteratorU3Ec__Iterator1D_1_MoveNext_m3533253043_gshared
bfj:__ZN15dense_hashtableINSt3__24pairIK10KeyWrapperIPK22Il2CppGenericParameterEPK24MonoGenericParameterInfoEES6_N6il2cpp5utils11PointerHashIS4_EEN14dense_hash_mapIS6_SA_SF_NS6_14EqualsComparerINS0_8equal_toIS5_EEEENS0_9allocatorISB_EEE9SelectKeyESK_SM_E15set_deleted_keyERKSB_
jbi:_InternalEnumerator_1_System_Collections_IEnumerator_Reset_m2726857860_AdjustorThunk
a1b:__ZN6prcoreL11inner_clearILj2EEEvPhjjj
e8g:_X509SubjectKeyIdentifierExtension__ctor_m3887138480
Fjg:_Enumerator_System_Collections_IEnumerator_get_Current_m2853089017_AdjustorThunk
agd:__ZNK5physx2Sc9ClothCore20getNbCollisionPlanesEv
gh:_emscripten_exit_fullscreen
QHd:__ZNK5physx23PxsBroadPhaseContextSap7getTypeEv
eXd:__ZNK5physx13GuMeshFactory17getNbHeightFieldsEv
A4e:_InputField_get_mesh_m3276583786
lmi:_GCHandle_Free_m1639542352_AdjustorThunk
Fhe:_sfnt_done_face
csj:__ZN6il2cpp6icalls8mscorlib6System6String19InternalAllocateStrEi
Mxc:__Z29Transfer_Blittable_ArrayFieldI8JSONRead11QuaternionfEvRT_R9ArrayInfoRK23StaticTransferFieldInfo
xQj:__ZL65SoapParameterAttribute_t2780084514_CustomAttributesCacheGeneratorP21CustomAttributesCache
rCd:__ZNK5physx2Gu12OBBAABBTestsILb1EEclENS_6shdfnd3aos5Vec3VES5_
ehc:__Z45Register_UnityEngine_Camera_get_targetDisplayv
F6b:__ZNK24RendererAnimationBinding15GenerateBindingERKN4core12basic_stringIcNS0_20StringStorageDefaultIcEEEEbRN11UnityEngine9Animation14GenericBindingE
rLa:__Z15GetFlareManagerv
L1b:__ZN15ApplicationInfo24GetApplicationIdentifierEv
ezc:__ZN5physx3Cct9SweepTestD2Ev
nwa:__ZN9Behaviour8TransferI18StreamedBinaryReadILb0EEEEvRT_
ivi:_Literal__ctor_m3295919014
lA:__ZN8Animator13GetAvatarRootEv
$fi:_InternalEnumerator_1_System_Collections_IEnumerator_Reset_m2046302786_AdjustorThunk
sIc:__ZN26IntersectAnyVsMeshCallbackILi0ELb0EED2Ev
i5k:___toread
dGb:__ZNSt3__26vectorI10vector_mapIiiNS_4lessIiEE13stl_allocatorINS_4pairIiiEEL18MemLabelIdentifier38ELi16EEES4_IS9_LS7_38ELi16EEE26__swap_out_circular_bufferERNS_14__split_bufferIS9_RSA_EE
w9k:___cxa_is_pointer_type
QPe:_String_Concat_m56707527
jD:__ZN7mecanim9animation16EvaluateAvatarDXEPKNS0_14AvatarConstantEPKNS0_11AvatarInputEPNS0_12AvatarMemoryEPNS0_15AvatarWorkspaceEPNS0_12AvatarOutputE
npa:__ZN4gles20DestroyRenderSurfaceEP7ApiGLESP17RenderSurfaceGLES
Ejg:_Enumerator_System_Collections_IEnumerator_get_Current_m2853089017_gshared
nmc:__Z34Transform_CUSTOM_SetAsFirstSiblingP12Il2CppObject
X9i:__ZNK15dense_hashtableINSt3__24pairIK10KeyWrapperINS1_IPK14Il2CppAssemblyP11Il2CppClassEEEjEES9_17ReflectionMapHashIS8_EN14dense_hash_mapIS9_jSD_NS9_14EqualsComparerINS0_8equal_toIS8_EEEENS0_9allocatorISB_EEE9SelectKeyESI_SK_E10test_emptyEj
YCc:__ZN12_GLOBAL__N_141SphereMeshContactGenerationCallback_ScaleD0Ev
XJc:__ZN5physx3Cct17CapsuleController16setContactOffsetEf
Dlg:_Enumerator_get_Current_m827571811_AdjustorThunk
a7j:__ZL62Font_t4239498691_CustomAttributesCacheGenerator_textureRebuiltP21CustomAttributesCache
Cwa:__ZN17PersistentManager40GlobalToLocalSerializedFileIndexInternalERK26SerializedObjectIdentifier
rS:__ZN11UnityEngine15CloudWebService17SessionEventQueue14ParseEventDataERKN4core12basic_stringIcNS2_20StringStorageDefaultIcEEEE
qRe:_BaseEventData_get_selectedObject_m3551206992
O1:__ZNK14dense_hash_mapIPKcPK4RTTIN11TypeManager23ConstCharPtrHashFunctorENS5_19ConstCharPtrEqualToE13stl_allocatorINSt3__24pairIKS1_S4_EEL18MemLabelIdentifier7ELi16EEE5beginEv
f5j:__ZL47Rect_t3681755626_CustomAttributesCacheGeneratorP21CustomAttributesCache
Vzf:_CCGregorianCalendar_GetYear_m1289900195
m7c:__ZN12GeomQueryAnyIN5physx10PxSweepHitEE7geomHitERKNS0_2Sq17SceneQueryManagerERKNS0_15MultiQueryInputERKNS3_9ShapeDataERKNS0_10PxGeometryERKNS0_11PxTransformENS0_7PxFlagsINS0_9PxHitFlag4EnumEtEEjPS1_fbPNS0_9PxBounds3E
g5f:_Int16_ToString_m2592645088
_$j:__ZL90CullingGroup_t1091689465_CustomAttributesCacheGenerator_CullingGroup_SendEvents_m386073533P21CustomAttributesCache
uga:__ZN13TranslateGLES4InitERK12GraphicsCaps16GfxDeviceLevelGL
hDb:__Z29Transfer_Blittable_ArrayFieldI18StreamedBinaryReadILb0EE10ColorRGBAfEvRT_R9ArrayInfoRK23StaticTransferFieldInfo
gCc:__ZN43CapsuleHeightfieldContactGenerationCallback7onEventEjPj
h4d:__ZThn4_N12MemoryStream4readEPvj
Vhh:_SerializationInfoEnumerator_Reset_m2206466680
kfl:_emscripten_glGetShaderPrecisionFormat__wrapper
IKi:_GenericEqualityComparer_1_Equals_m1934771410_gshared
XKj:__ZL57DebuggingModes_t2073970606_CustomAttributesCacheGeneratorP21CustomAttributesCache
gDj:__ZN6il2cpp5utils9Exception26FormatInvalidCastExceptionEPK11Il2CppClassS4_
OCg:_Collection_1_System_Collections_IList_get_IsFixedSize_m993584401_gshared
w4b:__ZN13ProduceHelperI10TagManagerLb0EE7ProduceE18MemLabelIdentifier18ObjectCreationMode
Epd:__ZN5physx6shdfnd8internal8HashBaseIPNS_13NpVolumeCacheES4_NS0_4HashIS4_EENS1_11HashSetBaseIS4_S6_NS0_9AllocatorELb0EE6GetKeyES8_Lb0EE15reserveInternalEj
LDj:__ZN6il2cpp2os6Memory12AlignedAllocEjj
oad:__ZN5physx6shdfnd8internal8HashBaseIPKNS_6PxBaseES5_NS0_4HashIS5_EENS1_11HashSetBaseIS5_S7_NS0_9AllocatorELb0EE6GetKeyES9_Lb0EE6createERKS5_Rb
vGd:__ZN5physx28solveFrictionCoulombPreBlockEPKNS_23PxcSolverConstraintDescEjRNS_16PxcSolverContextE
Cxj:__ZN6il2cpp8metadataL7CompareEPK10Il2CppTypeS3_
$sb:__Z18Transfer_BlittableI17RemapPPtrTransferLb0E11ColorRGBA32EvRK29SerializationCommandArgumentsR31RuntimeSerializationCommandInfo
nAh:_TypeBuilder_get_is_created_m736553860
hSg:_RSAManaged__ctor_m1370411656
xBb:__Z18Transfer_BlittableI18StreamedBinaryReadILb0EELb1E10ColorRGBAfEvRK29SerializationCommandArgumentsR31RuntimeSerializationCommandInfo
VVa:__ZN12CubemapArray23VirtualRedirectTransferER17RemapPPtrTransfer
dXk:_PropertyName_op_Equality_m112228798
Tec:__ZL27GetComponentsImplementationILb0ELi0EEbR10GameObjectbRK17CompareParametersRK39GetComponentsImplementation_ReturnValue
LEb:__ZN9Scripting36IsSystemCollectionsGenericDictionaryE17ScriptingClassPtr
TMh:_Raycast3DCallback_EndInvoke_m3234280377
sui:_BalancingGroup__ctor_m2474435406
mWk:_PlayableHandle_op_Equality_m2854547329
Y5c:__ZN5physx12NpConstraint12actorDeletedEPNS_12PxRigidActorE
b_e:_ColorTweenCallback__ctor_m3619686788
V2:__ZL16ReadTypeTreeImplILb0EEbR8TypeTreeRK16TypeTreeIteratorRPKhS6_i
jz:__ZN27AnimationLayerMixerPlayable16SetLayerMaskCopyEjRKN7mecanim6bitsetILj70EEEPKNS0_8skeleton12SkeletonMaskE
IQc:__ZN5physx2Sc8ShapeSim18reinsertBroadPhaseEv
rQa:__ZNK22BuiltinResourceManager21GetResourceInstanceIDEPKN5Unity4TypeERKN4core12basic_stringIcNS4_20StringStorageDefaultIcEEEE
Uic:__Z42Register_UnityEngine_RectOffset_set_bottomv
y4k:_Mover_Start_m3361638920
Pgf:_ArrayListWrapper_IndexOf_m3574835167
Xpc:__Z28GUIStyleState_CUSTOM_CleanupP12Il2CppObject
ZOb:__ZN28LightProbeProxyVolumeContext8CopyFromERKS_
UXe:_U3COnFinishSubmitU3Ec__Iterator0_System_Collections_Generic_IEnumeratorU3CobjectU3E_get_Current_m1823105495
pFa:__ZN23TransformChangeDispatch32QueueTransformChangeIfHasChangedER18TransformHierarchy
yJe:_SymmetricAlgorithm_get_FeedbackSize_m544664262
opa:__ZN7ApiGLES18DeleteRenderbufferERj
sUc:__ZN5physx6shdfnd5ArrayIPvNS0_15InlineAllocatorILj256ENS0_19ReflectionAllocatorINS_16NpConnectorArrayEEEEEE15growAndPushBackERKS2_
Una:__ZL23ProgramUniformMatrix4fvPK7ApiGLESjiihPKv
Apa:__ZN7ApiGLES13CreateTextureEjj14GraphicsFormatiiiii
g7b:__ZN13ProduceHelperI11LightProbesLb0EE7ProduceE18MemLabelIdentifier18ObjectCreationMode
dEk:__Z41RuntimeInvoker_SelectionState_t3187567897PFvvEPK10MethodInfoPvPS4_
cKd:__ZN5physx14SingleAABBTaskC2Ev
Cfi:_InternalEnumerator_1_MoveNext_m3629145604_gshared
Pfb:__ZN9ShaderLab20SerializedSubProgram15MatrixParameter8TransferI14SafeBinaryReadEEvRT_
Rmk:__Z51RuntimeInvoker_Int32_t2071877448_Single_t2076509932PFvvEPK10MethodInfoPvPS4_
Cbf:_BitConverter_AmILittleEndian_m2716658112
Vec:__ZL27GetComponentsImplementationILb0ELi1EEbR10GameObjectbRK17CompareParametersRK39GetComponentsImplementation_ReturnValue
Ooe:_Round_Down_To_Grid
Moh:_UTF8Decoder__ctor_m1460357288
Afa:__ZN13RenderTexture7ReleaseEv
jvc:__Z18Transfer_BlittableI8JSONReadLb1EN4math12int3_storageEEvRK29SerializationCommandArgumentsR31RuntimeSerializationCommandInfo
y4a:__ZN10MeshFilter23VirtualRedirectTransferER14SafeBinaryRead
nsi:_PatternCompiler_EmitBranchEnd_m3390109636
dnf:_Convert_ToByte_m1201588964
I4a:__ZN12MeshRenderer17MainThreadCleanupEv
Lsa:__ZN22CreateGpuProgramOutput12CreateParamsEv
JL:__ZN10ObjectPoolIN4FMOD7ChannelENS0_8ChannelIEE7GetFreeEi
qMj:__ZL55EventBuilder_t2927243889_CustomAttributesCacheGeneratorP21CustomAttributesCache
qih:_RuntimeMethodHandle_GetHashCode_m2682236001_AdjustorThunk
P2c:__ZNK5physx18NpArticulationLink11getChildrenEPPNS_18PxArticulationLinkEj
ini:_ActivationServices_AllocateUninitializedClassInstance_m3410698501
u8i:__ZNSt3__26vectorIiNS_9allocatorIiEEE21__push_back_slow_pathIiEEvOT_
gDk:__Z45RuntimeInvoker_HorizontalWrapMode_t2027154177PFvvEPK10MethodInfoPvPS4_
kga:__ZNK14GfxContextGLES13GetDefaultFBOEv
pDf:_Array_InternalArray__ICollection_Remove_TisSByte_t454417549_m2474211570_gshared
vLe:_Evidence_get_IsSynchronized_m1427392003
xSd:__Z15atomIntegrationfPKPN5physx11PxsBodyCoreEPKPNS_12PxsRigidBodyEjPKNS_2Cm13SpatialVectorEPNS_13PxcSolverBodyEPNS_17PxcSolverBodyDataEPS9_RjSH_
yZk:_RectTransform_set_anchorMax_m1168582032
Jod:__ZN5physx13NpRigidStatic11createShapeERKNS_10PxGeometryEPKPNS_10PxMaterialEtNS_7PxFlagsINS_11PxShapeFlag4EnumEhEE
$ac:__Z13GetImagePixelI10ColorRGBAfET_PKhii13TextureFormat15TextureWrapModeS5_ii
w6i:_il2cpp_class_is_enum
Dij:__ZN6il2cpp2vm6Thread49CheckCurrentThreadForInterruptAndThrowIfNecessaryEv
xIa:__ZNSt3__23mapIN9ShaderLab16FastPropertyNameEN18UnityPropertySheet11UnityTexEnvENS_4lessIS2_EENS_9allocatorINS_4pairIKS2_S4_EEEEEixERS9_
Eoa:__ZNK13TranslateGLES25GetTextureTargetDimensionEj
ARf:_Locale_GetText_m1954433032
uYc:__ZN5physx11NpAggregate22removeActorAndReinsertERNS_7PxActorEb
ZZd:__ZZL19ExtractHullPolygonsRjRN5physx2Gu9ContainerERKNS0_17ConvexHullBuilderEPS2_S3_EN5Local9FloodFillES3_PKNS0_11AdjTriangleEjPb
rDg:_Collection_1_System_Collections_IList_Contains_m1897568526_gshared
CCh:_FieldBuilder_get_FieldType_m2267463269
Zaf:_SimpleEnumerator_Clone_m3032847657
hsi:_PatternCompiler_EmitInfo_m597931026
yPg:_ModulusRing_Multiply_m3113924743
Glc:__Z47Texture2D_CUSTOM_INTERNAL_CALL_GetPixelBilinearP12Il2CppObjectffR10ColorRGBAf
O_:__ZN9Scripting12LogExceptionE21ScriptingExceptionPtriPKcb
hWg:_Context_get_ServerSettings_m225713600
gj:_emscripten_glVertexAttrib4f
EHg:_ReadOnlyCollection_1_System_Collections_IEnumerable_GetEnumerator_m531171980_gshared
Jbe:__ZL28RegisterModuleICalls_Physicsv
W3a:__ZN10Matrix4x4f8TransferI19StreamedBinaryWriteILb0EEEEvRT_
cZk:_RectOffset__ctor_m976836251
TNf:_Array_Sort_TisUILineInfo_t3621277874_m3105833015_gshared
Fo:FUNCTION_TABLE_vf
Zgg:_MonoType_GetGenericArguments_m2708198481
jQb:__ZN11HaloManager21ReleaseGeometryJobMemEP25DynamicVBOGeometryJobData
fng:_List_1_AddEnumerable_m2489692396_gshared
c$c:__ZN5physx14NpArticulation26setMaxProjectionIterationsEj
nLc:__ZN5physx3Cct15ObstacleContext14removeObstacleEj
aKi:_GenericEqualityComparer_1_GetHashCode_m3450627064_gshared
cph:_WaitHandle__ctor_m1256161634
ky:__ZN7mecanim12statemachine24CreateStateMachineMemoryEPKNS0_20StateMachineConstantERNS_6memory9AllocatorE
lYh:_Enumerator_get_Current_m419581838_AdjustorThunk
Oda:__ZN9GfxDevice18SetGlobalDepthBiasEff
L3i:__ZN6il2cpp6icalls8mscorlib6System8MonoType12get_AssemblyEP20Il2CppReflectionType
PTg:_TlsStream_Write_m3425460533
_5h:_EqualityComparer_1__cctor_m3664711181_gshared
Q0e:_FontData_get_richText_m2013560754
EMe:_SecurityException_get_PermissionType_m3543350822
uj:_emscripten_glGetPointerv
imd:__ZNK5physx15NpActorTemplateINS_14PxRigidDynamicEE13getActorFlagsEv
LXk:_Ray_get_origin_m1676163607
ZC:__ZN8Animator22ApplyBuiltinRootMotionEv
Qoj:__ZN15dense_hashtableI10KeyWrapperIP18Il2CppGenericClassES3_N6il2cpp8metadata22Il2CppGenericClassHashEN14dense_hash_setIS3_S6_NS3_14EqualsComparerINS5_25Il2CppGenericClassCompareEEENSt3__29allocatorIS3_EEE8IdentityESA_SD_E5clearEv
DHb:__Z26ApplyMaterialPassWithCacheRK18SharedMaterialDataR17ShaderPassContextP6ShaderPN9ShaderLab4PassEibPKNS6_10GrabPassesEPNS6_11SubProgramsEPK22DeviceRenderStateBlock
f6d:__ZN5physx7profile8ZoneImplINS_28PxProfileNameProviderForwardEE17handleBufferFlushEPKhj
rYc:__ZN5physx2Sc5ActorC2ERNS0_16InteractionSceneEhNS0_14IslandNodeInfo4TypeE
X$c:__ZN5physx21PxcArticulationHelper16prepareDataBlockERNS_9PxcFsDataEPKNS_19PxsArticulationLinkEtPNS_11PxTransformEPNS_12PxcFsInertiaEPNS_30PxcArticulationJointTransformsEj
Bmj:__ZN30dense_hashtable_const_iteratorINSt3__24pairIK10KeyWrapperIP14Il2CppIUnknownEjEES5_N6il2cpp5utils11PointerHashIS3_EEN14dense_hash_mapIS5_jSB_NS5_14EqualsComparerINS0_8equal_toIS4_EEEENS0_9allocatorIS7_EEE9SelectKeyESG_SI_EppEv
$gd:__ZN5physx15NpActorTemplateINS_7PxClothEED2Ev
dMj:__ZL55StreamReader_t2360341767_CustomAttributesCacheGeneratorP21CustomAttributesCache
rBh:_DerivedType_get_UnderlyingSystemType_m3904230233
BUe:_PointerEventData_get_rawPointerPress_m448871540
Efd:__ZN5physx2Sc9ClothCore16setRestPositionsEPKNS_6PxVec4E
nNa:__Z27ConvertSubMeshesToTrianglesR13dynamic_arrayI7SubMeshLj4EERS_ItLj2EE
Soc:__ZN5IMGUI14GUIWindowStateD2Ev
p0b:__ZL13MotionHandleriPK27EmscriptenDeviceMotionEventPv
I6g:_X509Certificate2Collection__ctor_m819526826
fK:__ZN12AudioManager5ResetEv
JMk:__Z75RuntimeInvoker_RuntimeObject_Single_t2076509932_RuntimeObject_RuntimeObjectPFvvEPK10MethodInfoPvPS4_
LQg:_KeyBuilder_Key_m3814433741
f0f:_ArgumentException__ctor_m158205422
hGf:_Array_compare_TisVector3_t2243707580_m3709184876_gshared
d3e:_HorizontalLayoutGroup_SetLayoutHorizontal_m3237355818
JC:__ZN7mecanim5human14RetargetToTDoFEPKNS0_5HumanEPNS0_9HumanPoseEPNS_8skeleton13SkeletonPoseTIN4math4trsXEEESB_
Qej:__ZNK15dense_hashtableINSt3__24pairIK10KeyWrapperIPK14Il2CppAssemblyEPK22Il2CppMonoAssemblyNameEES6_N6il2cpp5utils11PointerHashIS4_EEN14dense_hash_mapIS6_SA_SF_NS6_14EqualsComparerINS0_8equal_toIS5_EEEENS0_9allocatorISB_EEE9SelectKeyESK_SM_E10test_emptyEj
qtj:__ZN6il2cpp6icalls8mscorlib6System11Environment20GetWindowsFolderPathEi
rfi:_InternalEnumerator_1_Dispose_m3642485841_AdjustorThunk
_w:__ZN7mecanim5human18HumanPoseBlendNodeERNS0_9HumanPoseEPS1_f
Sfe:_UNITY_FT_RoundFix
Wib:__ZN9ShaderLab20SerializedSubProgram15AddTextureParamEPKcii16TextureDimension
DR:__ZN23CloudWebServicesManager23VirtualRedirectTransferER17RemapPPtrTransfer
AHj:__ZL72Enum_t2459695545_CustomAttributesCacheGenerator_Enum_ToObject_m275924358P21CustomAttributesCache
zAg:__ZN21InterfaceFuncInvoker1Ib40CustomAttributeTypedArgument_t1498197914E6InvokeEjP11Il2CppClassP12Il2CppObjectS0_
ZDc:__ZNK5physx2Gu15HeightFieldUtil12traceSegmentI24ConvexVsHeightfieldSweepLb0ELb0ELb1EEEvRKNS_6PxVec3ES6_PT_PS5_
IWd:__ZNK5physx12PxConvexMesh19getConcreteTypeNameEv
K4a:__ZNK12MeshRenderer22GetTypeVirtualInternalEv
q3j:__ZL56PlayableOutput_t988259697_CustomAttributesCacheGeneratorP21CustomAttributesCache
yEc:__ZN5physx2Gu19gjkLocalPenetrationINS0_9TriangleVENS0_17ShrunkConvexHullVEEEjRKT_RKT0_RKNS_6shdfnd3aos6FloatVERNSB_5Vec3VESG_SG_RSC_PhSI_Rhb
g0k:_Touch_get_type_m1491424279_AdjustorThunk
MM:__ZN4FMOD6System17setSoftwareFormatEi17FMOD_SOUND_FORMATii18FMOD_DSP_RESAMPLER
eGc:__ZN5physx2Gu15GJKLocalRayCastERNS0_9TriangleVERNS0_4BoxVERKNS_6shdfnd3aos6FloatVERKNS6_5Vec3VESC_RS7_RSA_SE_fb
k_d:__ZN5physx18AdjacenciesBuilderC2Ev
x1h:_Dictionary_2_System_Collections_ICollection_get_IsSynchronized_m960517203_gshared
GQc:__ZN5physx2Sc13ShapeIterator4initERKNS0_8ActorSimE
gTa:__ZN14SafeBinaryRead19TransferSTLStyleMapINSt3__23mapIN4core12basic_stringIcNS3_20StringStorageDefaultIcEEEES7_NS1_4lessIS7_EE13stl_allocatorINS1_4pairIKS7_S7_EEL18MemLabelIdentifier1ELi16EEEEEEvRT_17TransferMetaFlags
Jth:_Type_MakeByRefType_m1323101575
kte:__ZN2UI6Canvas27UpdateEventIndexesRecursiveERi
Hv:__ZN7mecanim9animation18EvaluateRootMotionERKNS0_18ClipMuscleConstantERKNS0_15ClipMuscleInputEPKfS8_RNS0_12MotionOutputEb
xS:__ZN11UnityEngine15CloudWebService16SessionContainer21PrepareDataErrorEventERN4core12basic_stringIcNS2_20StringStorageDefaultIcEEEE
sge:_UNITY_FT_Outline_New
K8j:__ZL98Event_t3028476042_CustomAttributesCacheGenerator_Event_Internal_MakeMasterEventCurrent_m3691313142P21CustomAttributesCache
Zuj:__ZNSt3__218uninitialized_copyIPNS_4pairIK10KeyWrapperIPK19Il2CppGenericMethodEP10MethodInfoEESB_EET0_T_SD_SC_
Exb:__Z19TransferField_ArrayI19StreamedBinaryWriteILb0EE27Converter_SimpleNativeClassI8GUIStyleEEvRK23StaticTransferFieldInfoR31RuntimeSerializationCommandInfoRT0_
dOh:_Scrollbar_SetDirection_m3264558284
Ead:__ZN5physx14NpArticulationC2Ev
Bhl:_emscripten_glCopyTexSubImage2D__wrapper
P$a:__ZNK13ScreenManager12GetIsFocusedEv
EWk:_PlayableHandle_IsValidInternal_m3315870994
Teh:_RemotingServices_RegisterInternalChannels_m1827304423
Zuc:__Z35Transfer_Blittable_FixedBufferFieldI8JSONReadiEvRK29SerializationCommandArgumentsR31RuntimeSerializationCommandInfo
O2i:__ZNSt3__213__vector_baseIN6il2cpp2os19SocketHandleWrapperENS_9allocatorIS3_EEED2Ev
yVf:_ASN1_get_Length_m3359111015
Lzk:__Z66RuntimeInvoker_InternalShaderChannel_t3331827198_Int32_t2071877448PFvvEPK10MethodInfoPvPS4_
txk:__Z77RuntimeInvoker_RuntimeObject_Int32_t2071877448_RuntimeObject_SByte_t454417549PFvvEPK10MethodInfoPvPS4_
Cc:invoke_viiffi
n1f:_RegionInfo_GetByTerritory_m3452395101
g_b:__ZN13sorted_vectorINSt3__24pairIN4core12basic_stringIcNS2_20StringStorageDefaultIcEEEEPK17MessageIdentifierEEN10vector_mapIS6_S9_NS0_4lessIS6_EENS0_9allocatorISA_EEE13value_compareESF_E10insert_oneERKSA_
YC:__ZNSt3__227__insertion_sort_incompleteIRPFbPKN8Animator11AnimatorJobES4_EPS4_EEbT0_S9_T_
iS:__ZNSt3__26__treeINS_12__value_typeIN4core12basic_stringIcNS2_20StringStorageDefaultIcEEEEjEENS_19__map_value_compareIS6_S7_NS_4lessIS6_EELb1EEE13stl_allocatorIS7_L18MemLabelIdentifier88ELi16EEE4findIS6_EENS_15__tree_iteratorIS7_PNS_11__tree_nodeIS7_PvEEiEERKT_
Yph:_Thread_GetCachedCurrentUICulture_m5590127
Czk:__Z36RuntimeInvoker_Matrix4x4_t2933234003PFvvEPK10MethodInfoPvPS4_
SVa:__ZNK12CubemapArray20GetRuntimeMemorySizeEv
RBi:_GUILayoutEntry_get_margin_m3913640621
qua:__ZN9GfxDevice5FlushEv
fZe:_ColorBlock_set_pressedColor_m587704489_AdjustorThunk
Nvg:_List_1_CheckMatch_m4018158235_gshared
wsb:__Z18Transfer_BlittableI17RemapPPtrTransferLb0EN4math12int3_storageEEvRK29SerializationCommandArgumentsR31RuntimeSerializationCommandInfo
Srd:__ZN5physx6shdfnd8PoolBaseINS_2Sc9ActorPairENS0_19ReflectionAllocatorIS3_EEE12allocateSlabEv
O0i:__ZN6il2cpp2vm13MetadataCache38GetMethodInfoFromMethodDefinitionIndexEi
pdf:_Byte_System_IConvertible_ToDateTime_m1583041031
fOi:__ZL24UnresolvedVirtualCall_68P12Il2CppObjectS0_iS0_S0_S0_S0_S0_S0_PK10MethodInfo
O0a:__ZN10VertexData8TransferI24GenerateTypeTreeTransferEEvRT_
jck:__ZL100CanvasRenderer_t261436805_CustomAttributesCacheGenerator_CanvasRenderer_get_absoluteDepth_m606892957P21CustomAttributesCache
Euj:__ZN13Il2CppHashMapIPK19Il2CppGenericMethodP10MethodInfoN6il2cpp8metadata23Il2CppGenericMethodHashENS6_26Il2CppGenericMethodCompareENSt3__29allocatorINS9_4pairIK10KeyWrapperIS2_ES4_EEEEEC2EjRKS7_RKS8_
pZf:_EncryptedData_get_EncryptionAlgorithm_m1301274243
T3j:__ZL68DrivenTransformProperties_t2488747555_CustomAttributesCacheGeneratorP21CustomAttributesCache
cVb:__ZL10CullLightsRK22SceneCullingParametersR11CullResults
m0e:_Dropdown__cctor_m264401557
qaf:_Array_IndexOf_m2819632474
SXk:_Ray_GetPoint_m2427899009_AdjustorThunk
cki:_Comparer_1__cctor_m3996541505_gshared
fy:__ZN7mecanim12statemachine20GetBlendTreeConstantERKNS0_13StateConstantEi
t4k:_CameraController_FixedUpdate_m2304233
Vsd:__ZN5physx7NpScene21setDominanceGroupPairEhhRKNS_20PxDominanceGroupPairE
W0b:__Z40GetTemporaryCachePathApplicationSpecificv
Vba:__ZN9GfxDevice16EndAsyncJobFrameEv
l4e:_Image_get_minWidth_m1809071077
mdj:__ZNK15dense_hashtableINSt3__24pairIK10KeyWrapperINS1_IPK12PropertyInfoP11Il2CppClassEEEjEES9_17ReflectionMapHashIS8_EN14dense_hash_mapIS9_jSD_NS9_14EqualsComparerINS0_8equal_toIS8_EEEENS0_9allocatorISB_EEE9SelectKeyESI_SK_E10test_emptyERK30dense_hashtable_const_iteratorISB_S9_SD_SM_SI_SK_E
Ihe:_UNITY_tt_face_load_hhea
Lpi:_ContextAttribute_IsNewContextOK_m2186905629
Dmf:_Convert_ToBase64String_m1936815455
pl:___syscall3
Lkd:__ZNK5physx15NpActorTemplateINS_16PxParticleSystemEE7getNameEv
sl:___syscall6
pda:__ZN9GfxDevice15GetNextCPUFenceEv
ul:___syscall4
wT:__ZN11UnityEngine15CloudWebService20WebRequestRestClient17GetResponseStatusEv
iEg:_Collection_1_System_Collections_IList_get_IsFixedSize_m2204750039_gshared
Knb:__ZNSt3__26__treeINS_12__value_typeIN4core12basic_stringIcNS2_20StringStorageDefaultIcEEEEPN16MemoryFileSystem4NodeEEENS_19__map_value_compareIS6_SA_NS_4lessIS6_EELb1EEE13stl_allocatorISA_L18MemLabelIdentifier55ELi16EEE7destroyEPNS_11__tree_nodeISA_PvEE
SMc:__ZN5physx3Ext5JointINS_9PxD6JointENS_24PxD6JointGeneratedValuesEE19setInvInertiaScale0Ef
TXe:_ColorBlock_get_fadeDuration_m987725262
Zgk:__ZL195U3CMouseDragOutsideRectU3Ec__Iterator1_t2599668326_CustomAttributesCacheGenerator_U3CMouseDragOutsideRectU3Ec__Iterator1_System_Collections_Generic_IEnumeratorU3CobjectU3E_get_Current_m2602955272P21CustomAttributesCache
lqj:__ZN6il2cpp2vm3RCW14QueryInterfaceILb1EEEP14Il2CppIUnknownP15Il2CppComObjectRK10Il2CppGuid
Djh:_CryptographicException__ctor_m2415891459
gca:__ZN9GfxDevice27UpdateComputeSkinPoseBufferE15ComputeBufferIDP12SkinMeshInfo
Vpg:_List_1_AddCollection_m3266731889_gshared
DQj:__ZL59ITrackingHandler_t2759960940_CustomAttributesCacheGeneratorP21CustomAttributesCache
Jl:_emscripten_glShaderBinary
tqh:_DelegatePInvokeWrapper_ThreadStart_t3437517264
LMf:_Array_qsort_TisVector2_t2243707579_TisVector2_t2243707579_m3308480721_gshared
s9e:_Array_InternalArray__RemoveAt_m1126483634
Hmb:__ZNK20LocalFileSystemPosix6ExistsERK13FileEntryData
jci:_InternalEnumerator_1_Dispose_m4038440306_AdjustorThunk
Lvk:__Z21RuntimeInvoker_Guid_tPFvvEPK10MethodInfoPvPS4_
eBi:_GUI_CallWindowDelegate_m2603162942
xWc:__ZN5physx35NpArticulationJointGetBodiesFromScbERNS_3Scb17ArticulationJointERPNS0_4BodyES5_
fv:__ZN7mecanim5human19MaskHasLeftFootGoalERKNS_6bitsetILj70EEE
bWd:__ZNK5physx2Sc15ClothFabricCore16getTetherLengthsEPfj
dHk:__Z101RuntimeInvoker_Int32_t2071877448_RuntimeObject_Color32_t874517518_Int32_t2071877448_Int32_t2071877448PFvvEPK10MethodInfoPvPS4_
Irc:__Z23TransferScriptingObjectI8JSONReadEvRT_18ScriptingObjectPtr17ScriptingClassPtrPK15MonoScriptCache
Awe:__Z58Register_UnityEngine_Canvas_GetETC1SupportedCanvasMaterialv
bAb:__ZN17AnimationCurveTplIfE8TransferI18StreamedBinaryReadILb1EEEEvRT_
buf:_DateTimeOffset_GetHashCode_m3312197462_AdjustorThunk
Rye:__ZN18UnityConnectClientD2Ev
j3g:_ServicePoint_set_UseNagleAlgorithm_m2618011464
O5i:_il2cpp_set_data_dir
Kxd:__ZN5physx2Sc13ConstraintSim8getForceERNS_6PxVec3ES3_
iuk:__Z51RuntimeInvoker_Double_t4078015681_Int32_t2071877448PFvvEPK10MethodInfoPvPS4_
bwi:_Uri_get_IsUnc_m2111738174
VWj:__ZL79Convert_t2607082565_CustomAttributesCacheGenerator_Convert_ToUInt64_m1691869628P21CustomAttributesCache
ZDa:__ZN16LevelGameManager23VirtualRedirectTransferER19StreamedBinaryWriteILb0EE
J0a:__Z32TransferEnumWithNameForceIntSizeI14SafeBinaryRead16GfxPrimitiveTypeEvRT_RT0_PKc17TransferMetaFlags
Sii:_DefaultComparer__ctor_m1961329658_gshared
$Eh:_ParameterBuilder_get_Attributes_m2421099277
nFk:__Z66RuntimeInvoker_Void_t1841601450_ObjectU26_t597476745_RuntimeObjectPFvvEPK10MethodInfoPvPS4_
uF:__ZN7mecanim5human5HumanC2Ev
Nzc:__ZN5physx15PxGeometryQuery18computePenetrationERNS_6PxVec3ERfRKNS_10PxGeometryERKNS_11PxTransformES6_S9_
QFh:_TypeBuilder_IsValueTypeImpl_m1499671481
Vxe:__ZN11UnityEngine15PlatformWrapper30GetGraphicsDriverLibraryStringEv
$Vh:_Enumerator_VerifyState_m262343092_AdjustorThunk
Pae:__ZN5Unity12PhysicsQueryC2Ev
vqg:_List_1_get_Count_m1752597149_gshared
TRg:_EncryptedPrivateKeyInfo_Decode_m1706190306
f_h:_ValueCollection_GetEnumerator_m401908452_gshared
yBb:__Z18Transfer_BlittableI18StreamedBinaryReadILb0EELb0E4AABBEvRK29SerializationCommandArgumentsR31RuntimeSerializationCommandInfo
uMi:_AudioListener_ClearExtensionProperties_m2267088681
hG:__ZN16MecanimAnimation24DeleteAnimatedPropertiesERP26IAnimatedPropertyEvaluator
Tsk:__Z42RuntimeInvoker_CspProviderFlags_t105264000PFvvEPK10MethodInfoPvPS4_
r3k:_ControllerColliderHit_t4070855101_marshal_pinvoke
Xqf:_Convert_ToUInt16_m1665900934
AOg:_Converter_2_BeginInvoke_m898151494_gshared
m1f:_RegionInfo__ctor_m2058831971
lLb:__Z14DrawGUITextureRK5RectTIfEP7Texture11ColorRGBA32P8Materiali
eSh:_Text_get_supportRichText_m3291105891
MB:__ZN9BlobWrite8TransferI22OffsetPtrArrayTransferIKN4math7_float4EEEEvRT_PKc17TransferMetaFlags
G7e:_LayoutElement_set_ignoreLayout_m1530090081
XCi:_GUIUtility_set_systemCopyBuffer_m3458871692
ZRa:__ZN15TextureSettings8TransferI24GenerateTypeTreeTransferEEvRT_
rri:_MatchCollection_GetEnumerator_m3516985966
Iuc:__ZN9JSONWrite8TransferI4AABBEEvRT_PKc17TransferMetaFlags
$lh:_UTF7Encoding__ctor_m2365939916
ZBa:__ZN25MultiBlocksMemoryFileData9SetLengthEy
yWi:_Animator_SetTrigger_m2003713590
XPk:_DelegatePInvokeWrapper_StateChanged_t2480912210
QKh:_MatEntry__ctor_m3650167335
iTd:__ZNK18ScBeforeSolverTask7getNameEv
WWa:__ZNK9Texture2D20GetRuntimeMemorySizeEv
Pth:_TypeInitializationException__ctor_m2993591639
sGd:__ZN5physx14solve1D4_BlockEPKNS_23PxcSolverConstraintDescEjRNS_16PxcSolverContextE
YEf:_Array_InternalArray__IEnumerable_GetEnumerator_TisRefEmitPermissionSet_t2708608433_m3450905212_gshared
Oqc:__ZN5Unity9rapidjson13GenericReaderINS0_4UTF8IcEES3_13JSONAllocatorE9ParseTrueILj0ENS0_19GenericStringStreamIS3_EENS0_15GenericDocumentIS3_S4_S4_EEEEvRT0_RT1_
Sm:_emscripten_glUniform2iv
m$k:_Sprite_get_texture_m1594695778
SRj:__ZL46DES_t1353513560_CustomAttributesCacheGeneratorP21CustomAttributesCache
kAc:__ZL33GeomMTDCallback_ConvexHeightFieldRN5physx6PxVec3ERfRKNS_10PxGeometryERKNS_11PxTransformES5_S8_
kWj:__ZL79Convert_t2607082565_CustomAttributesCacheGenerator_Convert_ToSingle_m2156102599P21CustomAttributesCache
nee:_UNITY_FT_Outline_Transform
Alc:__Z60Register_UnityEngine_Sprites_DataUtility_Internal_GetMinSizev
jYi:__ZN6il2cpp2vm5Class10GetMethodsEP11Il2CppClassPPv
QBe:__ZNK25UnityWebRequestJavaScript17GetUploadProgressEv
TQb:__Z30AddDefaultStreamsToMeshBuffersR9GfxDeviceR11MeshBuffersRK16DrawBuffersRange17ShaderChannelMaskS6_
YGk:__Z86RuntimeInvoker_Int32_t2071877448_Vector2_t2243707579_Vector2_t2243707579_RuntimeObjectPFvvEPK10MethodInfoPvPS4_
Toa:__ZN7ApiGLES17DeleteFramebufferERN2gl6HandleILNS0_10ObjectTypeE9EEES3_
Ora:__ZN15UniformTFMethod13MapBoneBufferEj
eVg:_RecordProtocol_SendAlert_m2816808523
bse:__ZN2UI14CanvasRendererD2Ev
C6j:__ZL113PlayerConnection_t3517219175_CustomAttributesCacheGenerator_PlayerConnection_ConnectedCallbackInternal_m286884446P21CustomAttributesCache
zLd:__ZN5physx26PxcPCMContactCapsuleConvexERKNS_2Gu13GeometryUnionES3_RKNS_11PxTransformES6_RKfRNS_10PxcNpCacheERNS0_13ContactBufferE
ejj:__ZN6il2cpp6icalls8mscorlib6System5Array8SetValueEP11Il2CppArrayP12Il2CppObjectS5_
udg:_SynchronizedReader_Read_m1399666181
HHh:_MonoEvent_get_Name_m2796714646
Xfj:__ZN15dense_hashtableINSt3__24pairIK10KeyWrapperINS1_IPK9EventInfoP11Il2CppClassEEEjEES9_17ReflectionMapHashIS8_EN14dense_hash_mapIS9_jSD_NS9_14EqualsComparerINS0_8equal_toIS8_EEEENS0_9allocatorISB_EEE9SelectKeyESI_SK_E15set_deleted_keyERKSB_
xGb:__Z9SetupArgviPPKc
kWi:_AnimationOffsetPlayable__ctor_m1644499845
jIk:__Z53RuntimeInvoker_Void_t1841601450_LabelData_t3712112744PFvvEPK10MethodInfoPvPS4_
rFf:_Array_InternalArray__IEnumerable_GetEnumerator_TisHitInfo_t1761367055_m2486283755_gshared
QUe:_PointerEventData_set_worldNormal_m2025727441
jdf:_Convert_ToBoolean_m2032547942
_0k:_Transform_INTERNAL_get_worldToLocalMatrix_m2822011810
lWg:_Context_get_SentConnectionEnd_m3114190867
vZc:__ZN5physx10PxsContext17addParticleSystemEPNS_15PxsParticleDataERKNS_26PxvParticleSystemParameterEb
rXc:__ZN5physx3Scb5Scene13addRigidNoSimINS0_4BodyELb1ELb1EEEvRT_RNS0_13ObjectTrackerE
zwa:__ZN12ImmediatePtrI10GameObjectE8TransferI19StreamedBinaryWriteILb0EEEEvRT_
WVa:__ZN12CubemapArray23VirtualRedirectTransferER24GenerateTypeTreeTransfer
nNi:__ZL24UnresolvedVirtualCall_22P12Il2CppObjectS0_iS0_S0_S0_PK10MethodInfo
z3:__ZN12FileAccessor4OpenER15FileSystemEntry14FilePermission16FileAutoBehavior
fMa:__ZNSt3__26vectorI4PPtrI6ShaderE13stl_allocatorIS3_L18MemLabelIdentifier53ELi16EEE8__appendEj
RLi:_AudioSource_get_spatializeInternal_m4243931620
qMa:__ZN4PPtrI6ShaderE8TransferI18StreamedBinaryReadILb0EEEEvRT_
wFc:__ZL19sweepBoxVsTrianglesjPKN5physx10PxTriangleERKNS_2Gu3BoxERKNS_6PxVec3EfRNS_10PxSweepHitENS_7PxFlagsINS_9PxHitFlag4EnumEtEEbPKj
$Za:__ZN23TransformChangeDispatch32QueueTransformChangeIfHasChangedERK15TransformAccess
tUe:_PointerEventData_set_clickTime_m3931922487
E2:__ZN15dense_hashtableINSt3__24pairIKiP4RTTIEEiN11TypeManager27HashFunctorPersistentTypeIDEN14dense_hash_mapIiS4_S7_NS0_8equal_toIiEE13stl_allocatorIS5_L18MemLabelIdentifier7ELi16EEE9SelectKeyESA_SD_E12maybe_shrinkEv
y4f:_NumberFormatter_AppendNonNegativeNumber_m629862866
N5d:__ZN9Rigidbody18AddForceAtPositionERK8Vector3fS2_i
IBa:__ZN15ArchiveReadFile5WriteEyPKvPy
fli:_ResourceInfo__ctor_m2401359321_AdjustorThunk
mtj:__ZN6il2cpp2os26LibraryNamePrefixAndSuffixC2EPKcS3_
PLf:_Array_InternalArray__set_Item_TisMonoResource_t3127387157_m732733855_gshared
RFi:_UnityEvent_1_Invoke_m1599856953_gshared
Ljf:_Hashtable__ctor_m392789568
Ynh:_UTF7Encoding__cctor_m4192443836
B:tempValue
G$b:__Z29StdTemplateConversionFunctionIaiEbPvR14SafeBinaryRead
GQk:_Display_get_systemHeight_m3140485477
X9j:__ZL65GUISkin_t1436893342_CustomAttributesCacheGenerator_m_CustomStylesP21CustomAttributesCache
sng:_List_1_Insert_m4101600027_gshared
q3f:_Int16_System_IConvertible_ToSingle_m3277935657
q$:__Z29scripting_class_from_fullnamePKcS0_S0_
n2k:_Vector3_get_sqrMagnitude_m1445517847_AdjustorThunk
RMh:_Raycast3DCallback_Invoke_m2271859924
Gy:__ZN26AnimatorControllerPlayable18DeallocateBindingsEv
tAc:__ZN5physx2Gu29ConvexVsMeshContactGeneration20generateLastContactsEv
dUc:__ZNK5physx2Gu22SupportMapRelativeImplINS0_4BoxVEE14doSupportSweepERKNS_6shdfnd3aos5Vec3VE
vie:_UNITY_FT_Stream_ReadAt
Fid:__ZN5physx2Sc17ParticleSystemSim16getParticleStateEv
oSd:__ZN5physx6shdfnd5ArrayINS_25PxsCompoundContactManagerENS0_19ReflectionAllocatorIS2_EEE8recreateEj
DUh:_Enumerator_get_CurrentKey_m2387752419_AdjustorThunk
Z$i:__ZN15dense_hashtableINSt3__24pairIK10KeyWrapperIN6il2cpp5utils13dynamic_arrayIPK10Il2CppTypeLj4EEEEPFvvEEESA_NS3_8metadata19Il2CppSignatureHashEN14dense_hash_mapISA_SD_SG_NSA_14EqualsComparerINSF_22Il2CppSignatureCompareEEENS0_9allocatorISE_EEE9SelectKeyESK_SM_E9set_valueEPSE_RKSE_
c4k:_RaycastHit_get_point_m3350410423
DRk:_UnityEventBase_FindMethod_m2780816114
hJg:_ReadOnlyCollection_1_System_Collections_Generic_IListU3CTU3E_RemoveAt_m2137782652_gshared
o1f:_RegionInfo__ctor_m997788172
Nd:_glReadBuffer
Tth:_UInt16_System_IConvertible_ToBoolean_m887616848
kJd:__ZN5physx14PxsAABBManagerC2ERNS_2Cm13EventProfilerERNS_19PxcScratchAllocatorE
IO:__ZN11AudioModule22CreateAudioClipFromWWWEP10IWWWStreamPKcbbi
Nmh:_StringBuilder_set_Length_m3039225444
wLi:_AudioClipPlayable_Equals_m2652916719_AdjustorThunk
qEk:__Z37RuntimeInvoker_AspectMode_t1166448724PFvvEPK10MethodInfoPvPS4_
bEg:_Collection_1_System_Collections_IList_Contains_m3870109702_gshared
vCf:_Array_InternalArray__ICollection_Contains_TisRaycastResult_t21186376_m3188614988_gshared
d4i:__ZNK6il2cpp5utils10functional6FilterINSt3__212basic_stringIcNS3_11char_traitsIcEENS3_9allocatorIcEEEENS0_13VmStringUtils21CaseSensitiveComparerEEclIPKcEEbRKT_
Grf:_CultureAwareComparer_GetHashCode_m3681260951
Y_j:__ZL90Application_t354826772_CustomAttributesCacheGenerator_Application_get_platform_m1727035749P21CustomAttributesCache
WGi:_U3CStartU3Ec__Iterator0__ctor_m951808111_gshared
c1b:__ZN6prcoreL11inner_clearILj4EEEvPhjjj
_Mh:_Selectable__ctor_m1440593935
lSb:__ZN15SHConstantCacheC2ER13BatchRendererR15RenderLoopStats
Fcb:__ZN10UnityScene24ExtractLevelGameManagersER18AwakeFromLoadQueue
pPi:__ZL25UnresolvedVirtualCall_132P12Il2CppObject17Color_t2020392075faaaPK10MethodInfo
N6:__ZNK8Playable6HandleEv
t9k:___cxa_guard_abort
ZRb:__Z30SetupBakedOcclusionForGeometrybRK26SharedLightmapSettingsDataRK15LightmapIndicesR17ShaderPassContext
Kzh:_CustomAttributeTypedArgument_t1498197914_marshal_pinvoke_back
B1:__ZN14MessageHandler28MessageIDToMessageIdentifierEi
a2g:_HttpRequestCreator_Create_m3607509610
B9j:__ZL50GUISkin_t1436893342_CustomAttributesCacheGeneratorP21CustomAttributesCache
i1a:__ZNK11SpriteAtlas20GetRuntimeRenderDataEPK6Sprite
Owg:_List_1_Shift_m3824049528_gshared
zfh:_ArrayFixupRecord__ctor_m3659990982
xWg:_Context_get_RandomCS_m3946020109
eHj:__ZL72IntPtr_t_CustomAttributesCacheGenerator_IntPtr_op_Inequality_m3044532593P21CustomAttributesCache
y$e:_Dropdown_get_onValueChanged_m3334401942
IBj:__ZN6il2cpp2vm10WaitHandle19NewManualResetEventEb
TJg:_ReadOnlyCollection_1_System_Collections_IList_Contains_m3707723158_gshared
vee:__ZN20TextRenderingPrivate15DynamicFontData36GetFaceForCharacterIfAvailableInFontERKNS_7FontRefERK13dynamic_arrayI4PPtrIN13TextRendering4FontEELj4EEj
CMi:_AudioExtensionManager_GetReadyToPlay_m3272224102
Cw:__ZN7mecanim14ValueArrayCopyILb0EEEvPKNS_10ValueArrayEPS1_
CH:__Z51Register_UnityEngine_Animator_get_hasBoundPlayablesv
bTi:_Nullable_1_ToString_m1238126148_AdjustorThunk
b9j:__ZL87GUIStyle_t1799908754_CustomAttributesCacheGenerator_GUIStyle_get_fixedWidth_m2528231637P21CustomAttributesCache
ee:emscriptenWebGLGetUniform
mp:FUNCTION_TABLE_iiiiiiiiiii
AHc:__ZN5physx2Gu19sweepCapsuleCapsuleERKNS0_7CapsuleES3_RKNS_6PxVec3EfRfRS4_S8_jRt
MEd:__ZN5physx2Gu29EPASupportMapPairRelativeImplINS0_9TriangleVENS0_11ConvexHullVEED0Ev
mWa:__Z32TransferEnumWithNameForceIntSizeI14SafeBinaryRead13TextureFormatEvRT_RT0_PKc17TransferMetaFlags
zhk:__ZL86Scrollbar_t3248359358_CustomAttributesCacheGenerator_Scrollbar_ClickRepeat_m3403943364P21CustomAttributesCache
JWb:__ZL10CleanUpJobP20CullingGroupsJobData
$ef:_Char_CompareTo_m3044885427_AdjustorThunk
WPe:_String_Join_m1966872927
SQb:__Z20IsRunningNativeTestsv
Eei:_InternalEnumerator_1_System_Collections_IEnumerator_get_Current_m2035754659_AdjustorThunk
s7a:__ZN11TimeManager23VirtualRedirectTransferER17RemapPPtrTransfer
BWd:__ZN5physx13BigConvexData4LoadERNS_13PxInputStreamE
cLb:__ZN13RenderManager15BatchModeUpdateEv
zTi:_Predicate_1_EndInvoke_m973058386_gshared
M1j:__ZL52LayerMask_t3188175821_CustomAttributesCacheGeneratorP21CustomAttributesCache
q0a:__ZN14SafeBinaryRead21TransferSTLStyleArrayI13dynamic_arrayI8Vector2fLj4EEEEvRT_17TransferMetaFlags
Bwa:__ZN17PersistentManager51InstanceIDToLocalSerializedObjectIdentifierInternalEiR31LocalSerializedObjectIdentifier
RL:__ZL16FMOD_ErrorString11FMOD_RESULT_658
YJh:_StrongNameKeyPair_System_Runtime_Serialization_IDeserializationCallback_OnDeserialization_m2330221363
A4c:__ZN5physx2Sc8ActorSim24postDominanceGroupChangeEv
Qii:_DefaultComparer__ctor_m1661558765_gshared
Id:_glVertexAttribIPointer
rTk:_Logger_set_filterLogType_m3982626604
uuk:__Z48RuntimeInvoker_Int64_t909078037_Int64_t909078037PFvvEPK10MethodInfoPvPS4_
Twh:_UnhandledExceptionEventHandler_EndInvoke_m2207457167
p_h:_Dictionary_2_System_Collections_ICollection_get_IsSynchronized_m304009368_gshared
lbc:__ZNK6Sprite10GetPaddingE20SpriteRenderDataMode
s5c:__ZN5physx2Cm8PtrTable5clearERNS0_22PtrTableStorageManagerE
EBf:_Array_InternalArray__ICollection_Contains_TisTableRange_t2011406615_m605506746_gshared
L_h:_Dictionary_2_Add_m1296007576_gshared
Fqf:_Decimal_op_Explicit_m729046406
kLc:__ZN5physx3Cct15ObstacleContext7releaseEv
G1e:_Graphic_OnEnable_m2900261811
YFd:__ZN5physx27solveFrictionBlockWriteBackEPKNS_23PxcSolverConstraintDescEjRNS_16PxcSolverContextEPNS_25PxcThresholdStreamElementEjPi
Qjh:_CryptographicUnexpectedOperationException__ctor_m3552441227
OOb:__ZN14qsort_internal5QSortIP15RODataDepthPassi17ROSorterDepthPassEEvT_S4_T0_T1_
Lgf:_ArrayListWrapper_Clear_m321161741
G6e:_InputField_LineDownCharacterPosition_m2690468785
uie:_UNITY_ft_glyphslot_alloc_bitmap
XNf:_Array_Sort_TisVector2_t2243707579_TisVector2_t2243707579_m2582252549_gshared
Tvh:_UInt64_System_IConvertible_ToDouble_m2828923873
N_i:__ZN15dense_hashtableI10KeyWrapperIPK17Il2CppGenericInstES4_N6il2cpp8metadata21Il2CppGenericInstHashEN14dense_hash_setIS4_S7_NS4_14EqualsComparerINS6_24Il2CppGenericInstCompareEEENSt3__29allocatorIS4_EEE8IdentityESB_SE_E16reset_thresholdsEv
Mrg:_List_1_System_Collections_IList_set_Item_m1129584681_gshared
Eph:_SendOrPostCallback__ctor_m107067079
Rje:_ft_raster1_render
fnc:__Z47Register_UnityEngine_Mesh_RecalculateBoundsImplv
Dng:_List_1_set_Capacity_m491101164_gshared
d8k:__ZNKSt3__221__basic_string_commonILb1EE20__throw_length_errorEv
knh:_StringBuilder_Insert_m1733097906
Fj:_JS_SystemInfo_GetMemory
fki:_Comparer_1__ctor_m1157133632_gshared
U_g:_SslStreamBase_get_HashStrength_m480059173
Gpa:__ZN18GfxFramebufferGLES13ReadbackImageER14ImageReferenceiiiiii
qrc:__ZN5Unity9rapidjson6WriterI16TempBufferWriterNS0_4UTF8IcEES4_13JSONAllocatorE11WriteStringEPKcj
VYh:_ValueCollection_System_Collections_Generic_ICollectionU3CTValueU3E_Clear_m3271993638_gshared
vyk:__Z35RuntimeInvoker_Position_t3781184359PFvvEPK10MethodInfoPvPS4_
omf:_Enumerator_MoveNext_m1419609883
rL:__ZN4FMOD7Channel19setReverbPropertiesEPK29FMOD_REVERB_CHANNELPROPERTIES
$0:__ZN13MonoBehaviour22GetScriptFullClassNameEv
d7i:_il2cpp_object_get_class
vSd:__ZN5physx6shdfnd4sortIPNS_15PxsContactPatchENS_27SortBoundsPredicateManifoldENS0_19ReflectionAllocatorIS3_EEEEvPT_jRKT0_RKT1_j
pmi:_GuidAttribute__ctor_m1099153635
DXk:_RangeInt_get_end_m480861812
oMg:_ReadOnlyCollection_1_Contains_m1816350632_gshared
j2g:_ServicePointManager_FindServicePoint_m3137356168
uEb:__ZN13MonoBehaviour9CallAwakeEv
NRk:_UnityEvent__ctor_m3488719202
LQa:__ZN20SphericalHarmonicsL211AddWeightedERKS_f
Tdk:__ZL106PointerEventData_t1599784723_CustomAttributesCacheGenerator_PointerEventData_set_pressPosition_m2094137883P21CustomAttributesCache
Xrd:__ZN5physx2Sc24ElementInteractionMarker12onDeactivateEj
gVe:_PointerInputModule_GetPointerData_m1695674453
eNh:__Z14bankers_roundff
Wsk:__Z90RuntimeInvoker_Void_t1841601450_RuntimeObject_RuntimeObject_RuntimeObject_SByte_t454417549PFvvEPK10MethodInfoPvPS4_
Jtb:__Z19TransferField_ArrayI17RemapPPtrTransfer27Converter_SimpleNativeClassI8GUIStyleEEvRK23StaticTransferFieldInfoR31RuntimeSerializationCommandInfoRT0_
w_:__ZL22StaticInitializeShaderPv
Brf:_Convert_ToUInt64_m345450801
eTi:_Predicate_1_BeginInvoke_m2559992383_gshared
asc:__ZN9JSONWrite8TransferI10ColorRGBAfEEvRT_PKc17TransferMetaFlags
FKc:__ZN5physx3Cct26CharacterControllerManager16createControllerERKNS_16PxControllerDescE
v1:__Z25scripting_method_get_name18ScriptingMethodPtr
asb:__Z19TransferField_ArrayI14SafeBinaryRead16Converter_StringEvRK23StaticTransferFieldInfoR31RuntimeSerializationCommandInfoRT0_
z7k:_rename
hAj:_GC_exit_check
ohg:_NotSupportedException__ctor_m3232764727
C1g:_TypeConverterAttribute_Equals_m2330345916
Vxk:__Z90RuntimeInvoker_Boolean_t3825574718_Int32_t2071877448_Int32U26_t455636984_Int32_t2071877448PFvvEPK10MethodInfoPvPS4_
rQi:__ZL25UnresolvedVirtualCall_188P12Il2CppObjectiPK10MethodInfo
n5g:_X509Certificate2_get_NotAfter_m3430171627
W$:__Z20UnlockObjectCreationv
E1j:__ZL89Input_t1785128008_CustomAttributesCacheGenerator_Input_INTERNAL_CALL_GetTouch_m1374677231P21CustomAttributesCache
cdi:_InternalEnumerator_1_System_Collections_IEnumerator_get_Current_m1038263751_gshared
kzk:__Z54RuntimeInvoker_Int32_t2071877448_LayerMask_t3188175821PFvvEPK10MethodInfoPvPS4_
Etf:_DateTime_ToString_m1117481977
Eqb:__ZN15SerializeTraitsI13dynamic_arrayIyLj8EEE19ResizeSTLStyleArrayERS1_i
v_b:__ZNSt3__26vectorINS_4pairIN4core12basic_stringIcNS2_20StringStorageDefaultIcEEEES6_EE13stl_allocatorIS7_L18MemLabelIdentifier38ELi16EEE6insertENS_11__wrap_iterIPKS7_EERSD_
aGf:__ZN21InterfaceFuncInvoker2Ii22UILineInfo_t3621277874S0_E6InvokeEjP11Il2CppClassP12Il2CppObjectS0_S0_
DB:__ZN9BlobWrite8TransferI22OffsetPtrArrayTransferI9OffsetPtrIN7mecanim12statemachine18StateMachineMemoryEEEEEvRT_PKc17TransferMetaFlags
NCe:__ZNK14TransportProtoI12HeaderHelper15DownloadHandler13UploadHandler14ResponseHelperE13IsSynchronousEv
Ege:_UNITY_ft_smooth_renderer_class_pic_free
wug:_List_1_System_Collections_IList_Remove_m3763718607_gshared
Gf:_emscripten_glStencilOpSeparate
LOe:_String_Concat_m2000667605
pLk:__Z63RuntimeInvoker_KeyValuePair_2_t888819835_IntPtr_t_RuntimeObjectPFvvEPK10MethodInfoPvPS4_
wvj:__ZN6il2cpp2vm6String8NewUtf16EPKDsi
lbk:__ZL61Tile_t429716126_CustomAttributesCacheGenerator_m_ColliderTypeP21CustomAttributesCache
qsj:__ZN6il2cpp2os10ThreadImpl12QueueUserAPCEPFvPvES2_
kI:__Z32TransferEnumWithNameForceIntSizeI14SafeBinaryReadN10SampleClip17CompressionFormatEEvRT_RT0_PKc17TransferMetaFlags
Hye:__ZN22BaseUnityConnectClient10QueueEventERN11UnityEngine15CloudWebService17CloudServiceEventEPKcjb
lMc:__ZN5physx12PxControllerD2Ev
zRf:_ExecuteEvents_GetEventHandler_TisRuntimeObject_m3333041576_gshared
J7j:__ZL86Animator_t69676727_CustomAttributesCacheGenerator_Animator_SetTriggerString_m598103909P21CustomAttributesCache
Qrg:__ZN23InterfaceActionInvoker2IP28UICharInfoU5BU5D_t2749705857iE6InvokeEjP11Il2CppClassP12Il2CppObjectS1_i
D2k:_Vector4__ctor_m3879980823_AdjustorThunk
fHc:__ZNK5physx2Gu15HeightFieldUtil12traceSegmentI25CapsuleTraceSegmentReportLb0ELb0ELb1EEEvRKNS_6PxVec3ES6_PT_PS5_
Ulk:__Z50RuntimeInvoker_Int32_t2071877448_Int16_t4041245914PFvvEPK10MethodInfoPvPS4_
SJc:__ZN5physx3Cct17CapsuleController13setStepOffsetEf
Ufe:_UNITY_FT_Hypot
yKd:__ZN5physx10PxsContext23prepareCMDiscreteUpdateEPNS_10PxBaseTaskE
Fbf:_BitConverter_ToInt64_m1329623425
i4b:__ZN8RendererC2E12RendererType18MemLabelIdentifier18ObjectCreationMode
BTj:__ZL95ASCIIEncoding_t3022927988_CustomAttributesCacheGenerator_ASCIIEncoding_GetByteCount_m1396020051P21CustomAttributesCache
V4c:__ZN5physx6shdfnd5ArrayIPvNS0_19ReflectionAllocatorINS_2Cm5BlockIhLj256EEEEEE4copyINS0_15InlineAllocatorILj256ES7_EEEEvRKNS1_IS2_T_EE
idk:__ZL92PointerEventData_t1599784723_CustomAttributesCacheGenerator_U3CpointerDragU3Ek__BackingFieldP21CustomAttributesCache
Zf:_emscripten_glGetError
Gej:__ZN15dense_hashtableINSt3__24pairIK10KeyWrapperIPK14Il2CppAssemblyEPK22Il2CppMonoAssemblyNameEES6_N6il2cpp5utils11PointerHashIS4_EEN14dense_hash_mapIS6_SA_SF_NS6_14EqualsComparerINS0_8equal_toIS5_EEEENS0_9allocatorISB_EEE9SelectKeyESK_SM_E14squash_deletedEv
adi:_InternalEnumerator_1__ctor_m3726334735_AdjustorThunk
cM:__Z14FMOD_FILE_SeekPvjS_
Jbh:_MethodCall_get_Properties_m1893707917
vHj:__ZL72Enum_t2459695545_CustomAttributesCacheGenerator_Enum_ToObject_m604645223P21CustomAttributesCache
z8c:__ZN5physx6shdfnd8PoolBaseINS_11NpAggregateENS0_19ReflectionAllocatorIS2_EEE15disposeElementsEv
eWh:_ShimEnumerator_get_Entry_m2387156530_gshared
MHj:__ZL82RuntimeArray_CustomAttributesCacheGenerator_Array_SetValue_m2421438042____indices1P21CustomAttributesCache
x0i:__ZN14dense_hash_mapI10KeyWrapperIN6il2cpp5utils13dynamic_arrayIPK10Il2CppTypeLj4EEEEPFvvENS1_8metadata19Il2CppSignatureHashENS8_14EqualsComparerINSB_22Il2CppSignatureCompareEEENSt3__29allocatorINSG_4pairIKS8_SA_EEEEEC2EjRKSC_RKSF_
OYj:__ZL87BigInteger_t925946153_CustomAttributesCacheGenerator_BigInteger_op_Equality_m2683055762P21CustomAttributesCache
tGc:__ZThn4_N16RayRTreeCallbackILi1ELb1EE14processResultsEjPj
ZPi:__ZL25UnresolvedVirtualCall_168P12Il2CppObject19Vector3_t2243707580PK10MethodInfo
MXb:__ZNK13RenderTexture32CalculateNeedsInvertedProjectionEv
_Kc:__ZN5physx2Gu17RadixSortBuffered4SortEPKfj
fg:emscriptenWebGLGet
O3:__Z19CanReplaceComponentRN5Unity9ComponentEPKNS_4TypeEPN4core12basic_stringIcNS5_20StringStorageDefaultIcEEEE
LIj:__ZL77RuntimeArray_CustomAttributesCacheGenerator_Array_ConstrainedCopy_m1922927602P21CustomAttributesCache
J5b:__ZN12CubemapArray11InitTextureEiii13TextureFormatb
yla:__ZN6prcoreL18BlitIntegerToFloatERK14ImageReferenceRS0_
Fdc:__Z17GetSceneBuildInfoRKN4core12basic_stringIcNS_20StringStorageDefaultIcEEEEiR14SceneBuildInfo
bDa:__ZNK15Lz4Decompressor20DecompressStreamInitEPPv
ybj:__ZN24dense_hashtable_iteratorINSt3__24pairIK10KeyWrapperIPK10Il2CppTypeEjEES6_N6il2cpp8metadata14Il2CppTypeHashEN14dense_hash_mapIS6_jSB_NS6_14EqualsComparerINSA_26Il2CppTypeEqualityComparerEEENS0_9allocatorIS8_EEE9SelectKeyESF_SH_E30advance_past_empty_and_deletedEv
ZAg:_Collection_1_set_Item_m3803272710_gshared
PIh:_MonoMethodInfo_t3646562144_marshal_pinvoke_cleanup
s5g:_X509Certificate2_get_SignatureAlgorithm_m3069898012
$1g:_HttpRequestCreator__ctor_m2513916021
ETc:__ZN27ConvexVsMeshOverlapCallbackC2ERKN5physx2Gu10ConvexMeshERKNS0_11PxMeshScaleERKNS0_2Cm23FastVertex2ShapeScalingERKNS0_11PxTransformESE_bRKNS1_3BoxE
kC:__ZN7mecanim5human13HumanFixTwistEPKNS0_5HumanEPNS_8skeleton13SkeletonPoseTIN4math4trsXEEES9_iiRKf
DRb:__ZL24AssignProjectorQueuesJobP30AssignProjectorQueuesJobHeader
orh:_TimeSpan_get_Hours_m3804628138
P0e:_FontData_set_alignByGeometry_m2819509290
Asi:_Regex__ctor_m3250610064
d0i:__ZN15dense_hashtableINSt3__24pairIK10KeyWrapperIN6il2cpp5utils13dynamic_arrayIPK10Il2CppTypeLj4EEEEPFvvEEESA_NS3_8metadata19Il2CppSignatureHashEN14dense_hash_mapISA_SD_SG_NSA_14EqualsComparerINSF_22Il2CppSignatureCompareEEENS0_9allocatorISE_EEE9SelectKeyESK_SM_E4swapERSP_
Tib:__ZN9ShaderLab20SerializedSubProgram14SetConstBufferEPKci
i0f:_ArgumentNullException__ctor_m911049464
kHh:_TargetParameterCountException__ctor_m2760108938
Yae:__ZN13PhysicsModule17SetRigidBodyStateER9RigidbodyRKN8IPhysics14RigidBodyStateE
VNg:_Comparison_1_Invoke_m345024424_gshared
Mle:_cf2_getStdVW
$Kg:_ReadOnlyCollection_1_System_Collections_IList_Insert_m3936197025_gshared
kzf:_EventHandler_BeginInvoke_m3027583606
dX:__Z40DebugStringToFilePostprocessedStacktraceRK21DebugStringToFileData
ABd:__ZN5physx2Sq12BucketPruner11shiftOriginERKNS_6PxVec3E
Owc:__Z29Transfer_Blittable_ArrayFieldI8JSONReadjEvRT_R9ArrayInfoRK23StaticTransferFieldInfo
Wgi:_InternalEnumerator_1__ctor_m3220229132_AdjustorThunk
UWc:__ZN5physx6shdfnd5ArrayIPNS_2Sc16ArticulationCoreENS0_19ReflectionAllocatorIS4_EEE15growAndPushBackERKS4_
Epi:_ContextAttribute__ctor_m4006843177
eei:_InternalEnumerator_1_get_Current_m314017974_AdjustorThunk
Ng:__setLetterbox
vng:_List_1_RemoveAll_m1569860525_gshared
OUa:__ZNSt3__26__treeINS_12__value_typeIN9ShaderLab16FastPropertyNameEfEENS_19__map_value_compareIS3_S4_NS_4lessIS3_EELb1EEENS_9allocatorIS4_EEE12__find_equalIS3_EERPNS_16__tree_node_baseIPvEENS_21__tree_const_iteratorIS4_PNS_11__tree_nodeIS4_SE_EEiEESH_RKT_
WQd:__ZN5physx19normalizePartitionsERNS_6shdfnd5ArrayIjNS0_19ReflectionAllocatorIjEEEEPNS_23PxcSolverConstraintDescEPKNS_13PxcSolverBodyEjjS5_
vKj:__ZL57CollectionBase_t1101587467_CustomAttributesCacheGeneratorP21CustomAttributesCache
hCc:__ZN18ContactCapsuleMesh20processTriangleCacheILj16EEEbRN5physx2Gu13TriangleCacheIXT_EEE
u3a:__ZNSt3__26vectorI17BlendShapeChannelNS_9allocatorIS1_EEE6assignINS_11__wrap_iterIPS1_EEEENS_9enable_ifIXaasr21__is_forward_iteratorIT_EE5valuesr16is_constructibleIS1_NS_15iterator_traitsISA_E9referenceEEE5valueEvE4typeESA_SA_
P7e:_LayoutElement_set_preferredWidth_m3072758716
UIb:__Z12SetGfxDeviceP9GfxDevice
b4g:_AsnEncodedData_ToString_m724151831
hRk:_Object_CompareBaseObjects_m1461253683
x0b:__ZN11TimeManager11GetRealtimeEv
Uzg:_Collection_1_System_Collections_IList_get_IsFixedSize_m2408637569_gshared
Qoh:_UTF8Encoding_GetByteCount_m1469571127
BSc:__ZN5physx2Sc16InteractionScene25removeFromActiveActorListERNS0_5ActorE
wM:__ZN29AudioEffectInternalDefinitionC2EP26UnityAudioEffectDefinitionb
uHh:_MonoMethodInfo_GetDeclaringType_m4186531677
Cdh:_SoapTypeAttribute_SetReflectionObject_m1566293812
T2h:_DefaultComparer__ctor_m418731767_gshared
rE:__ZN4PPtrI6AvatarE8TransferI18StreamedBinaryReadILb0EEEEvRT_
hMc:__ZN5physx3Ext21InertiaTensorComputer6rotateERKNS_7PxMat33E
Nak:__ZL80Physics_t634932869_CustomAttributesCacheGenerator_Physics_RaycastAll_m2162315544P21CustomAttributesCache
OKi:_Enumerator_System_Collections_IEnumerator_Reset_m2573763156_AdjustorThunk
Xeh:_RemotingServices_CreateClientProxy_m1631035355
xwh:_UInt64_ToString_m2892887310
$Pd:__ZN5physx22PxcDiscreteNarrowPhaseERNS_18PxcNpThreadContextERNS_13PxcNpWorkUnitE
fka:_stbir_resize
Luj:__ZN15dense_hashtableINSt3__24pairIK10KeyWrapperIPK19Il2CppGenericMethodEP10MethodInfoEES6_N6il2cpp8metadata23Il2CppGenericMethodHashEN14dense_hash_mapIS6_S9_SD_NS6_14EqualsComparerINSC_26Il2CppGenericMethodCompareEEENS0_9allocatorISA_EEE9SelectKeyESH_SJ_EC2ERKSM_j
D4a:__ZN4PPtrI4MeshE8TransferI14SafeBinaryReadEEvRT_
yLd:__ZN5physx23PxcPCMContactCapsuleBoxERKNS_2Gu13GeometryUnionES3_RKNS_11PxTransformES6_RKfRNS_10PxcNpCacheERNS0_13ContactBufferE
dCa:__Z37ReadDirectoryInfo_UnityWebAndUnityRawR12FileAccessorRKN20ArchiveStorageHeader6HeaderERNS1_13DirectoryInfoE
PEf:_Array_InternalArray__IEnumerable_GetEnumerator_TisInt64_t909078037_m1219751804_gshared
f_:__ZNSt3__26__treeINS_12__value_typeIPKciEENS_19__map_value_compareIS3_S4_15compare_tstringIS3_ELb1EEENS_9allocatorIS4_EEE7destroyEPNS_11__tree_nodeIS4_PvEE
nJj:__ZL96RuntimeTypeHandle_t2330101084_CustomAttributesCacheGenerator_RuntimeTypeHandle_Equals_m452760426P21CustomAttributesCache
eJi:_EqualityComparer_1_System_Collections_IEqualityComparer_Equals_m1960102236_gshared
$1h:_Dictionary_2_ToTValue_m1381983709_gshared
ghg:_MulticastDelegate_KPM_m1592985119
TQi:__ZL25UnresolvedVirtualCall_216P12Il2CppObjectiPK10MethodInfo
lze:__ZN13dynamic_arrayIN4core12basic_stringIcNS0_20StringStorageDefaultIcEEEELj4EE6assignEPKS4_S7_
OGg:_Collection_1_ConvertItem_m3941916604_gshared
yAa:__ZN15dense_hashtableINSt3__24pairIKN4core12basic_stringIcNS2_20StringStorageDefaultIcEEEEP20ArchiveStorageReaderEES6_20StringHash32FunctionIS6_EN14dense_hash_mapIS6_S9_SC_NS0_8equal_toIS6_EE13stl_allocatorISA_L18MemLabelIdentifier55ELi16EEE9SelectKeyESF_SI_E5clearEv
Wse:__ZN2UI6Canvas26MarkAllNestedCanvasesDirtyEv
Pmj:__ZN6il2cpp2vm12ReboxIfBoxedEP14Il2CppIUnknownP11Il2CppClass
XFb:__ZN25PathNamePersistentManagerD2Ev
P$:__ZN17PersistentManager48IntegrateObjectAndUnlockIntegrationMutexInternalEi
JLg:_ReadOnlyCollection_1_System_Collections_IList_get_IsReadOnly_m3872065502_gshared
UMj:__ZL112TypeBuilder_t3308873219_CustomAttributesCacheGenerator_TypeBuilder_MakeGenericType_m4282022646____typeArguments0P21CustomAttributesCache
gaa:__ZZ29InitializeSortingGroupManagerPvEN44PostLateUpdateSortingGroupsUpdateRegistrator7ForwardEv
kq:__ZN6Object12SetHideFlagsENS_9HideFlagsE
i5d:__ZN9Rigidbody23VirtualRedirectTransferER14SafeBinaryRead
nfl:_emscripten_glGetFramebufferAttachmentParameteriv__wrapper
CLb:__ZN13RendererScene15InitializeUmbraEv
FOa:__Z28CalculateGlobalMatrixInverse23TransformAccessReadOnly
wJj:__ZL60SecurityAttribute_t2016950496_CustomAttributesCacheGeneratorP21CustomAttributesCache
bVe:_PointerEventData_ToString_m1218584363
wef:_Char_System_IConvertible_ToChar_m1489061093_AdjustorThunk
eoh:_UTF7Encoding_GetCharCount_m2589913583
Tid:__ZNK5physx15PxsParticleData15getWorldBoundsVEv
_1d:__ZN15CapsuleCollider13AwakeFromLoadE17AwakeFromLoadMode
R7i:_AnalyticsSessionInfo_CallSessionStateChanged_m2293069762
ubg:_MemoryStream_CalculateNewCapacity_m3533542025
dIc:__ZN12_GLOBAL__N_124HfTrianglesEntityReport27onEventEjPj
s0c:__ZNK5physx2Sc15ArticulationSim16createDriveCacheEfj
rld:__ZN5physx22NpParticleBaseTemplateINS_16PxParticleSystemENS_16NpParticleSystemEE17setStaticFrictionEf
ewi:_Uri_Reduce_m2577728307
Orh:_TimeSpan_Equals_m4102942751_AdjustorThunk
UYh:_ValueCollection_System_Collections_Generic_ICollectionU3CTValueU3E_Add_m1903672223_gshared
U3c:__ZN5physx17PxsContactManager16resetCachedStateEv
bCe:__ZN12HeaderHelper14SetUnvalidatedERKN4core12basic_stringIcNS0_20StringStorageDefaultIcEEEES6_b
xI:__ZN4FMOD6SoundI7releaseEv
Qnd:__ZN5physx20NpRigidActorTemplateINS_14PxRigidDynamicEE15setActorSimFlagEb
i5a:__ZN14SpriteRenderer13AwakeFromLoadE17AwakeFromLoadMode
CVe:_MouseButtonEventData__ctor_m618518000
Y5h:_EqualityComparer_1_get_Default_m3222318365_gshared
HCa:__ZN10MemoryFile9SetLengthEy
Juh:_UInt16_ToString_m2038947049_AdjustorThunk
Ovb:__ZN5RectTIiE8TransferI24GenerateTypeTreeTransferEEvRT_
DKc:__ZNK5physx3Cct26CharacterControllerManager16getNbControllersEv
WEb:__Z28scripting_class_is_interface17ScriptingClassPtr
bi:_glTexStorage2D
dLf:_Array_InternalArray__Insert_TisRaycastHit2D_t4063908774_m3174907903_gshared
KSa:__ZNK9ShaderLab10SubProgram14EnsureCompiledEv
Z_h:_Dictionary_2__ctor_m3517987906_gshared
thh:_ObjectManager_RecordFixup_m3572285566
nLj:__ZL55DaylightTime_t3800227331_CustomAttributesCacheGeneratorP21CustomAttributesCache
x7d:__ZN5physx7profile10DataBufferINS_6shdfnd6MutexTINS0_26WrapperReflectionAllocatorIhEEEENS0_14ScopedLockImplIS6_EEE17handleBufferFlushEPKhj
llf:_SortedList_InitTable_m460350503
l1:__Z18BuildScriptClassId17ScriptingClassPtr
Eai:_InternalEnumerator_1_get_Current_m4279678504_AdjustorThunk
nr:__ZNK16LevelGameManager7GetNameEv
Wzg:_Collection_1_System_Collections_IList_get_Item_m2415649949_gshared
QDh:_ILTokenInfo_t149559338_marshal_pinvoke_cleanup
NCi:_GUIStyle__cctor_m536279489
zBa:__ZL31DeleteLastPathNameComponentImplRKN4core12basic_stringIcNS_20StringStorageDefaultIcEEEEPKc
a2b:__Z13RegisterClassI18DelayedCallManagerEvv
Vye:__ZN18UnityConnectClient15GetCloudServiceEv
Xtb:__Z18Transfer_BlittableI24GenerateTypeTreeTransferLb0EiEvRK29SerializationCommandArgumentsR31RuntimeSerializationCommandInfo
HTd:__ZN5physx20PxsConstraintProjectEPKNS_13PxsConstraintEbf
zbd:__ZN5physx7NpShape7setFlagENS_11PxShapeFlag4EnumEb
I2i:__ZN6il2cpp2os19SocketHandleWrapperD2Ev
QEb:__ZL28SerializationCommandGroupForRK31TransferFunctionScriptingTraits17ScriptingClassPtr17ScriptingFieldPtrRK20CoreScriptingClasses
IFa:__ZN10TagManager32RegisterDefaultTagsAndLayerMasksEv
jHi:_TweenRunner_1_StopTween_m2135918118_gshared
UZh:_ValueCollection_get_Count_m4142113966_gshared
EPd:__ZN5physx2Sc35ParticleElementRbElementInteraction12onDeactivateEj
k1i:__ZN15dense_hashtableINSt3__24pairIK10KeyWrapperIPKcEP11Il2CppClassEES5_N6il2cpp5utils11StringUtils12StringHasherIS4_EEN14dense_hash_mapIS5_S8_SE_NS5_14EqualsComparerINSB_13VmStringUtils21CaseSensitiveComparerEEENS0_9allocatorIS9_EEE9SelectKeyESJ_SL_E15insert_noresizeERKS9_
Lph:_SynchronizationLockException__ctor_m549086841
hgf:_ArrayList_InsertRange_m1478230997
tga:__ZN4gles8InitCapsEP7ApiGLESP12GraphicsCapsR16GfxDeviceLevelGL
zka:__ZN6prcore14BlitImageFloatERK14ImageReferenceRS0_NS0_8BlitModeE
abf:_Swapper_EndInvoke_m677693941
RLa:__Z24CalculateVertexLightDataRK15SharedLightDataR14GfxVertexLight
iPk:_Color_get_black_m455352838
Li:_glEnable
jdb:__ZN15dense_hashtableINSt3__24pairIKiiEEi21InstanceIDHashFunctorN14dense_hash_mapIiiS4_NS0_8equal_toIiEE13stl_allocatorIS3_L18MemLabelIdentifier1ELi16EEE9SelectKeyES7_SA_E12maybe_shrinkEv
GSa:__ZNK9ShaderLab7Program28BeginReadUnsupportedVariantsEv
lNb:__ZNK25CameraStackRenderingState21GetImageEffectTextureEb
mih:_RuntimeMethodHandle__ctor_m2437574937_AdjustorThunk
wab:__ZNSt3__26vectorIN30RuntimeInitializeOnLoadManager9ClassInfoE13stl_allocatorIS2_L18MemLabelIdentifier13ELi16EEE7reserveEj
kxd:__ZN5physx2Sq8AABBTreeC2Ev
GHj:__ZL72RuntimeArray_CustomAttributesCacheGenerator_Array_get_Length_m1498215565P21CustomAttributesCache
nsc:__Z35Transfer_Blittable_FixedBufferFieldI9JSONWriteiEvRK29SerializationCommandArgumentsR31RuntimeSerializationCommandInfo
iuh:_UInt16_System_IConvertible_ToInt64_m2835280558_AdjustorThunk
xck:__ZL53g_UnityEngine_Assembly_CustomAttributesCacheGeneratorP21CustomAttributesCache
KTi:_Predicate_1_BeginInvoke_m3926587117_gshared
FG:__ZZN8Animator15InitializeClassEvEN31FunctorImpl_427kDidModifyAvatar4CallEPviR11MessageData
sJg:_ReadOnlyCollection_1_System_Collections_IList_Remove_m2779327941_gshared
yy:__ZN26AnimatorControllerPlayable17ProcessRootMotionEP35AnimationPlayableEvaluationConstantP32AnimationPlayableEvaluationInputP33AnimationPlayableEvaluationOutput
clk:__Z94RuntimeInvoker_Boolean_t3825574718_Int32_t2071877448_SByte_t454417549_ExceptionU26_t1467204777PFvvEPK10MethodInfoPvPS4_
R_e:_DefaultControls_CreateToggle_m1568873127
iwg:_List_1__cctor_m1022807427_gshared
jKj:__ZL63KeyNotFoundException_t1722175009_CustomAttributesCacheGeneratorP21CustomAttributesCache
M1h:_Dictionary_2_InitArrays_m2270022740_gshared
Qmf:_Convert_ToBoolean_m2188088811
vxe:__ZN11UnityEngine7Connect15DeviceInfoEvent16CollectExtraInfoEv
Rwj:__ZN6il2cpp2os11Environment22SetEnvironmentVariableERKNSt3__212basic_stringIcNS2_11char_traitsIcEENS2_9allocatorIcEEEESA_
JWd:__ZN5physx2Gu10ConvexMeshD2Ev
vnh:_UnicodeEncoding_GetChars_m3765282346
r7f:_IntPtr__ctor_m4104029105
bRj:__ZL114BinaryFormatter_t1866979105_CustomAttributesCacheGenerator_BinaryFormatter_get_DefaultSurrogateSelector_m219714691P21CustomAttributesCache
xej:__ZN6il2cpp2gc19AppendOnlyGCHashMapIPK10Il2CppTypeP20Il2CppReflectionTypeNS_8metadata14Il2CppTypeHashENS7_26Il2CppTypeEqualityComparerEEC2Ev
qfi:_InternalEnumerator_1_System_Collections_IEnumerator_get_Current_m771161214_AdjustorThunk
ggg:_MonoType_get_attributes_m1493788675
CDa:__ZN20ArchiveStorageReader10InitializeER15FileSystemEntryyb
C7k:_atol
ypf:_Convert_ToDouble_m4236754739
ZZg:_SslClientStream_get_PrivateKeyCertSelectionDelegate_m3715949545
f_i:__ZN15dense_hashtableINSt3__24pairIK10KeyWrapperIPKcEP11Il2CppClassEES5_N6il2cpp5utils11StringUtils12StringHasherIS4_EEN14dense_hash_mapIS5_S8_SE_NS5_14EqualsComparerINSB_13VmStringUtils21CaseSensitiveComparerEEENS0_9allocatorIS9_EEE9SelectKeyESJ_SL_EC2EjRKSE_RKSJ_RKSN_
f0e:_Dropdown_CreateItem_m2702141380
VMg:_ReadOnlyCollection_1_IndexOf_m224962127_gshared
SKj:__ZL48Stack_t1043988394_CustomAttributesCacheGeneratorP21CustomAttributesCache
rp:FUNCTION_TABLE_viifi
MQc:__ZNK5physx2Sc8ShapeSim10getBodySimEv
zGk:__Z59RuntimeInvoker_Boolean_t3825574718_ResourceInfo_t3933049236PFvvEPK10MethodInfoPvPS4_
EHh:_MonoEvent_GetAddMethod_m4289563120
YIj:__ZL37Type_t_CustomAttributesCacheGeneratorP21CustomAttributesCache
rpe:_UNITY_tt_face_free_hdmx
Qgj:__ZN15dense_hashtableINSt3__24pairIK10KeyWrapperINS1_IP11Il2CppClassjEEES4_EES6_N6il2cpp8metadata14ArrayClassHashEN14dense_hash_mapIS6_S4_SB_NS6_14EqualsComparerINSA_17ArrayClassCompareEEENS0_9allocatorIS8_EEE9SelectKeyESF_SH_E5clearEv
EZi:__ZNSt3__218uninitialized_copyIPNS_4pairIK10KeyWrapperIPK11Il2CppClassEPKcEESB_EET0_T_SD_SC_
c8i:__ZN6il2cpp2vm14TypeNameParser5ParseEb
xMh:_ReflectionMethodsCache__ctor_m1835220
uck:__ZL120AnalyticsSessionInfo_t3981085264_CustomAttributesCacheGenerator_AnalyticsSessionInfo_CallSessionStateChanged_m2293069762P21CustomAttributesCache
qKj:__ZL71SynchronizedArrayListWrapper_t3317806524_CustomAttributesCacheGeneratorP21CustomAttributesCache
Z4c:__ZN5physx6shdfnd5ArrayIPvNS0_19ReflectionAllocatorINS_2Cm5BlockIhLj128EEEEEE15growAndPushBackERKS2_
sBe:__ZN23UnityPurchasingSettingsC2Ev
Rxf:_Double_ToString_m1864290157
$4a:__ZNK9Transform13GetWorldScaleEv
Mdi:_InternalEnumerator_1_get_Current_m4154059426_AdjustorThunk
y4j:__ZL120NativeClassAttribute_t1576243993_CustomAttributesCacheGenerator_NativeClassAttribute_set_QualifiedNativeName_m4139686864P21CustomAttributesCache
$Vc:__ZN5physx2Sc11Interaction10onActivateEj
OGc:__ZNK5physx2Gu29EPASupportMapPairRelativeImplINS0_4BoxVENS0_11ConvexHullVEE6getDirEv
fcd:__ZN5physx14NpShapeManager15setupSceneQueryERNS_2Sq17SceneQueryManagerERKNS_12PxRigidActorERKNS_7NpShapeE
NXb:__ZL10RenderFaceR9GfxDeviceR18MaterialStateCacheP13RenderTextureiif
n1k:_SpriteAtlasManager__cctor_m453260161
lka:__ZL37stbir__resample_horizontal_downsampleP11stbir__infoiPf
kBg:__ZN21InterfaceFuncInvoker1Ib18Color32_t874517518E6InvokeEjP11Il2CppClassP12Il2CppObjectS0_
Edb:__ZNK5Unity9Component38MarkGameObjectAndComponentDependenciesER27GarbageCollectorThreadState
nY:__ZL16OutOfMemoryErrorjj18MemLabelIdentifieriPKc
vCe:__ZN20UnityWebRequestProtoI24UnityWebRequestTransport16AtomicRefCounter14RedirectHelper14ResponseHelper15DownloadHandler13UploadHandler12HeaderHelper14AsyncOperationED0Ev
KYc:__ZNK5physx2Sc9ClothCore23getExternalAccelerationEv
Lhf:_SynchronizedArrayListWrapper_Contains_m2259439339
kO:__ZNK7Texture21GetShadowSamplingModeEv
M1:__ZNK11TypeManager15ClassNameToRTTIEPKcb
SFc:__ZN5physx2Gu13coarseCullingERKNS_6PxVec3ES3_ffRKNS_10PxTriangleE
a0a:__ZN13ScreenManager21OnWindowRegainedFocusEv
nCb:__Z18Transfer_BlittableI18StreamedBinaryReadILb0EELb1EdEvRK29SerializationCommandArgumentsR31RuntimeSerializationCommandInfo
kQk:__ZN23InterfaceActionInvoker4IiP18Object_t1021602117P8String_tP24ObjectU5BU5D_t3614634134E6InvokeEjP11Il2CppClassP12Il2CppObjectiS1_S3_S5_
g2f:_Guid__ctor_m2599802704
W9f:_FileStream_get_CanRead_m4148920720
mDe:__ZN13RuntimeStaticINSt3__26vectorIPN5physx15PxVehicleWheelsENS0_9allocatorIS4_EEEELb0EE13StaticDestroyEPv
BKk:__Z31RuntimeInvoker_Link_t2723257478PFvvEPK10MethodInfoPvPS4_
eQd:__ZN5physx2Sc5Scene29processNarrowPhaseTouchEventsEv
rja:__ZN4crnd12symbol_codec32decode_receive_static_data_modelERNS_25static_huffman_data_modelE
V0b:__ZN18ScriptingArguments8AddFloatEf
x0f:_GregorianCalendar_set_CalendarType_m2438362222
l_e:_FloatTween_get_targetValue_m2120061648_AdjustorThunk
Aok:__Z44RuntimeInvoker_RuntimeTypeHandle_t2330101084PFvvEPK10MethodInfoPvPS4_
GCf:_Array_InternalArray__ICollection_Contains_TisVector2_t2243707579_m3625698589_gshared
lxe:__ZN11UnityEngine15PlatformWrapper16GetVRRenderScaleEv
N_c:__ZN5physx6shdfnd5ArrayIPvNS0_15InlineAllocatorILj256ENS0_19ReflectionAllocatorINS_18NpArticulationLinkEEEEEE15growAndPushBackERKS2_
ntc:__Z18Transfer_BlittableI9JSONWriteLb0EaEvRK29SerializationCommandArgumentsR31RuntimeSerializationCommandInfo
Ukk:__Z45RuntimeInvoker_SByte_t454417549_RuntimeObjectPFvvEPK10MethodInfoPvPS4_
TR:__ZN11UnityEngine15CloudWebService14DataDispatcher34OnSessionContainerArchivedAndReadyERNS0_16SessionContainerE
hVi:_RectTransformUtility_PixelAdjustPoint_m1375786599
i1f:_NumberFormatInfo_GetFormat_m3247563525
qLc:__ZNK5physx3Cct15ObstacleContext11getObstacleEj
XTg:_CipherSuiteCollection__ctor_m2154226461
zEi:_InvokableCall_3_Find_m1268604653_gshared
rwb:__Z18Transfer_BlittableI19StreamedBinaryWriteILb0EELb0E8Vector3fEvRK29SerializationCommandArgumentsR31RuntimeSerializationCommandInfo
Heb:__ZN14SafeBinaryRead19TransferSTLStyleMapINSt3__23mapIN4core12basic_stringIcNS3_20StringStorageDefaultIcEEEEiNS1_4lessIS7_EENS1_9allocatorINS1_4pairIKS7_iEEEEEEEEvRT_17TransferMetaFlags
ycj:__ZN15dense_hashtableINSt3__24pairIK10KeyWrapperINS1_IPK11Il2CppImageP11Il2CppClassEEEjEES9_17ReflectionMapHashIS8_EN14dense_hash_mapIS9_jSD_NS9_14EqualsComparerINS0_8equal_toIS8_EEEENS0_9allocatorISB_EEE9SelectKeyESI_SK_ED2Ev
lhe:_gray_move_to
iEe:_DSAParameters_t1872138834_marshal_pinvoke
hxk:__Z37RuntimeInvoker_ContentType_t859870085PFvvEPK10MethodInfoPvPS4_
iGg:_Collection_1_System_Collections_IEnumerable_GetEnumerator_m4174600764_gshared
Jqi:_ConstructionCall_InitDictionary_m4046452035
sdj:__ZN6il2cpp2vm10Reflection14GetEventObjectEP11Il2CppClassPK9EventInfo
oVg:_TlsStream_Write_m2271546135
Lfc:__Z30RegisterValidateMethodCallbackiPF18ScriptingMethodPtrS_17ScriptingClassPtrP6ObjectEPKc
cmb:__ZN20LocalFileSystemPosixD0Ev
LAf:_CultureInfo_ConstructInternalLocaleFromCurrentLocale_m1342751405
Bmh:_Latin1Encoding_GetString_m3553289597
KAd:__ZN5physx13IslandManager6resizeEj
JMh:_GetRayIntersectionAllNonAllocCallback_Invoke_m1247446986
Kie:_tt_cmap_init
Fxc:__ZN8JSONRead8TransferI9BoundsIntEEvRT_PKc17TransferMetaFlagsb
Sa:invoke_viidi
$Uh:_Enumerator_get_Current_m1020413567_AdjustorThunk
Vng:_List_1_System_Collections_IList_get_IsFixedSize_m1122077912_gshared
lpj:__ZN15dense_hashtableI10KeyWrapperIP18Il2CppGenericClassES3_N6il2cpp8metadata22Il2CppGenericClassHashEN14dense_hash_setIS3_S6_NS3_14EqualsComparerINS5_25Il2CppGenericClassCompareEEENSt3__29allocatorIS3_EEE8IdentityESA_SD_E12maybe_shrinkEv
Rzb:__Z29Transfer_Blittable_ArrayFieldI18StreamedBinaryReadILb1EEdEvRT_R9ArrayInfoRK23StaticTransferFieldInfo
FVc:__ZN5physx6shdfnd8PoolBaseINS_2Cm5BlockIPvLj16EEENS0_19ReflectionAllocatorIS5_EEE17releaseEmptySlabsEv
Pmg:_List_1_System_Collections_ICollection_CopyTo_m2020941110_gshared
XK:__ZN9AudioClip7CleanupEv
adj:__ZN15dense_hashtableINSt3__24pairIK10KeyWrapperINS1_IPK12PropertyInfoP11Il2CppClassEEEjEES9_17ReflectionMapHashIS8_EN14dense_hash_mapIS9_jSD_NS9_14EqualsComparerINS0_8equal_toIS8_EEEENS0_9allocatorISB_EEE9SelectKeyESI_SK_E8min_sizeEjj
UWj:__ZL79Convert_t2607082565_CustomAttributesCacheGenerator_Convert_ToUInt64_m2215781574P21CustomAttributesCache
H2k:_Vector4_set_Item_m1525226067_AdjustorThunk
hll:_emscripten_glCheckFramebufferStatus__wrapper
aij:__ZNK15dense_hashtableINSt3__24pairIK10KeyWrapperIP11Il2CppClassES4_EES5_N6il2cpp8metadata16SZArrayClassHashEN14dense_hash_mapIS5_S4_SA_NS5_14EqualsComparerINS9_19SZArrayClassCompareEEENS0_9allocatorIS7_EEE9SelectKeyESE_SG_E12test_deletedEj
aMc:__ZL20updateMassAndInertiabRN5physx11PxRigidBodyEPKfjPKNS_6PxVec3Eb
gwc:__Z18Transfer_BlittableI8JSONReadLb0EdEvRK29SerializationCommandArgumentsR31RuntimeSerializationCommandInfo
H7d:__ZN5physx24NpPtrTableStorageManagerC2Ev
Xfk:__ZL98Graphic_t2426225576_CustomAttributesCacheGenerator_Graphic_get_useLegacyMeshGeneration_m1366444625P21CustomAttributesCache
TFk:__Z83RuntimeInvoker_Boolean_t3825574718_NavigationU26_t3929175072_Navigation_t1571958496PFvvEPK10MethodInfoPvPS4_
uwe:__Z44Register_UnityEngine_Canvas_set_sortingOrderv
dqh:_Thread_ClrState_m822263449
$8j:__ZL81GUIStyle_t1799908754_CustomAttributesCacheGenerator_GUIStyle_get_name_m3609546529P21CustomAttributesCache
gTf:_SimpleCollator_LastIndexOfOrdinalIgnoreCase_m550798345
zRk:_PersistentCall_get_mode_m4087575475
mba:__ZNK9GfxDevice13GetViewMatrixEv
mOk:_Bounds_Encapsulate_m17114941
Btd:__ZN5physx7NpScene15flushSimulationEb
tad:__ZN5physx6shdfnd8PoolBaseINS_10NpMaterialENS0_19ReflectionAllocatorIS2_EEE12allocateSlabEv
O2:__ZN8TypeTree8BlobReadERPKhS1_ib
n_d:__ZN5physx18ReducedVertexCloudC2EPKNS_6PxVec3Ej
k$h:_Dictionary_2_System_Collections_Generic_ICollectionU3CSystem_Collections_Generic_KeyValuePairU3CTKeyU2CTValueU3EU3E_Remove_m3080541539_gshared
bbb:__ZN18LoadSceneOperation23GetAllowSceneActivationEv
QIa:__ZN6CameraD0Ev
sCi:_GUILayoutUtility_Begin_m659595645
HUf:_ModulusRing_Multiply_m386339435
k8:__ZN31CanvasBatchIntermediateRenderer16StaticInitializeEPv
x2e:_GraphicRaycaster_U3CRaycastU3Em__0_m3971200721
T6g:_X509CertificateCollection__ctor_m3709509050
tJg:_ReadOnlyCollection_1_System_Collections_IList_RemoveAt_m3004588099_gshared
Ox:__ZN7mecanim12AndValueMaskILb0EEEvPKNS_14ValueArrayMaskEPS1_
kab:__ZN14SafeBinaryRead21TransferSTLStyleArrayINSt3__26vectorIi13stl_allocatorIiL18MemLabelIdentifier13ELi16EEEEEEvRT_17TransferMetaFlags
epf:_Decimal_op_Implicit_m4246329390
SGk:__Z128RuntimeInvoker_Int32_t2071877448_CustomAttributeTypedArgument_t1498197914_CustomAttributeTypedArgument_t1498197914_RuntimeObjectPFvvEPK10MethodInfoPvPS4_
k0f:_ArgumentNullException__ctor_m2252076819
NYb:__ZN10GameObjectC2E18MemLabelIdentifier18ObjectCreationMode
Vpe:_raccess_guess_apple_double
hIk:__Z70RuntimeInvoker_Void_t1841601450_CustomAttributeNamedArgument_t94157543PFvvEPK10MethodInfoPvPS4_
E0g:_ListDictionary_GetEnumerator_m1511032609
EBh:_TypeBuilder_get_FullName_m1626507516
Rgh:_SerializationInfo__ctor_m4016423422
Ana:__ZL18ProgramUniform1uivPK7ApiGLESjiihPKv
T5b:__ZN14Texture2DArray13RebuildMipMapEv
eZi:__ZN13Il2CppHashSetIPK17Il2CppGenericInstN6il2cpp8metadata21Il2CppGenericInstHashENS4_24Il2CppGenericInstCompareENSt3__29allocatorI10KeyWrapperIS2_EEEEC2EjRKS5_RKS6_
tpb:__Z18Transfer_BlittableI14SafeBinaryReadLb1EaEvRK29SerializationCommandArgumentsR31RuntimeSerializationCommandInfo
Itj:__ZN6il2cpp2gc16GarbageCollector14RemoveWeakLinkEPPv
Uib:__ZN9ShaderLab20SerializedSubProgram14AddVectorParamEPKcii15ShaderParamTypei
yue:__ZN2UI14CanvasRenderer12CleanupClassEv
J2c:__ZNK5physx19NpRigidBodyTemplateINS_18PxArticulationLinkEE27getMinCCDAdvanceCoefficientEv
aMg:_ReadOnlyCollection_1_System_Collections_IEnumerable_GetEnumerator_m1734360860_gshared
v3h:_DefaultComparer__ctor_m1052417779_gshared
AMe:_SystemException__ctor_m2688248668
rli:_ResourceSet_ReadResources_m1669023823
w_f:_PKCS12_RemoveCertificate_m1590055870
Oij:__ZN6il2cpp2vm6Thread7SetNameEP12Il2CppThreadP12Il2CppString
dEj:__ZNSt3__214__split_bufferINS_12basic_stringIDsNS_11char_traitsIDsEENS_9allocatorIDsEEEERNS4_IS6_EEEC2EjjS8_
nq:__ZN6Object23VirtualRedirectTransferER19StreamedBinaryWriteILb1EE
dHb:__ZN13ScreenManager18SetAllowCursorLockEb
lT:__ZN11UnityEngine15CloudWebService10RestClientINS0_23WebRequestRestHeaderMapEE16SetRequestHeaderERKN4core12basic_stringIcNS4_20StringStorageDefaultIcEEEESA_
pab:__ZN30RuntimeInitializeOnLoadManager15ClassMethodInfo8TransferI14SafeBinaryReadEEvRT_
cZc:__ZNK5physx2Sc10ClothShape8isActiveEv
Uik:__ZL73CanvasScaler_t2574720772_CustomAttributesCacheGenerator_m_ScreenMatchModeP21CustomAttributesCache
LP:__ZL22InitializeModule_Audiov
nBd:__ZN5physx2Sq11PruningPoolD0Ev
onb:__ZN16MemoryFileSystem8IsLockedERK13FileEntryData
fJd:__ZN3MBP15removeBoxPrunerEj
wkj:__ZN6il2cpp6icalls8mscorlib6System2IO6MonoIO5WriteEiP11Il2CppArrayiiPi
Rgj:__ZN15dense_hashtableINSt3__24pairIK10KeyWrapperINS1_IP11Il2CppClassjEEES4_EES6_N6il2cpp8metadata14ArrayClassHashEN14dense_hash_mapIS6_S4_SB_NS6_14EqualsComparerINSA_17ArrayClassCompareEEENS0_9allocatorIS8_EEE9SelectKeyESF_SH_E8min_sizeEjj
mHh:_MonoCMethod_Invoke_m931478014
Cmk:__Z86RuntimeInvoker_Int32_t2071877448_Int16_t4041245914_Int32_t2071877448_Int32_t2071877448PFvvEPK10MethodInfoPvPS4_
yli:_SatelliteContractVersionAttribute__ctor_m2605651717
vl:_emscripten_glBindRenderbuffer
C4j:__ZL77RuntimePlatform_t1869584967_CustomAttributesCacheGenerator_OSXDashboardPlayerP21CustomAttributesCache
_Qe:_DecoderExceptionFallbackBuffer_GetNextChar_m1727394816
cAj:_GC_dirty_init
maf:_Array_Copy_m1969461849
jgh:_MessageFormatter_ReadMethodResponse_m4134629501
Kqj:__ZN6il2cpp2vm5Field14GetValueObjectEP9FieldInfoP12Il2CppObject
$te:__ZNK2UI6Canvas16GetTargetDisplayEv
Zyf:_Environment_get_OSVersion_m1247315981
qDc:__ZL15SweepBoxCapsulePKN5physx3Cct9SweepTestEPKNS0_11SweptVolumeEPKNS0_11TouchedGeomERKNS_14PxExtendedVec3ERKNS_6PxVec3ERNS0_12SweptContactE
b6:__ZN6Object17FindObjectsOfTypeEPKN5Unity4TypeER13dynamic_arrayIPS_Lj4EEb
iac:__ZNSt3__26vectorINS_4pairIiiEE13stl_allocatorIS2_L18MemLabelIdentifier1ELi16EEE21__push_back_slow_pathIKS2_EEvRT_
m8g:_Capture_get_Length_m1952322390
Vtc:__ZN9JSONWrite8TransferI4PPtrI9Texture2DEEEvRT_PKc17TransferMetaFlags
oEb:__ZN13MonoBehaviour17RemoveFromManagerEv
LUd:__ZN5physx2Sc19ParticlePacketShapeD2Ev
Hue:__ZL23RegisterModuleICalls_UIv
y$a:__ZL11DecodeValuePPKcS0_
gpk:__Z235RuntimeInvoker_Int32_t2071877448_RuntimeObject_Int32_t2071877448_Int32_t2071877448_RuntimeObject_Int32_t2071877448_Int32_t2071877448_BooleanU26_t3168250738_BooleanU26_t3168250738_SByte_t454417549_SByte_t454417549_ContextU26_t3131521781PFvvEPK10MethodInfoPvPS4_
FWh:_ShimEnumerator_MoveNext_m2013866013_gshared
sW:__ZN13MemoryManagerC2Ev
Xqa:__ZN12SkinMeshInfo10DeallocateEPS_
A7j:__ZL66AnimationOffsetPlayable_t1019600543_CustomAttributesCacheGeneratorP21CustomAttributesCache
WCa:__ZN20ArchiveStorageReader28AcquireAndPrefillUnusedBlockEjPNS_11CacheResultE
N5b:__Z12NHxRoughnessIA4_tEvP9Texture2DPT_iiii
QOi:__ZL25UnresolvedVirtualCall_105P12Il2CppObjecthPK10MethodInfo
ach:_MethodDictionary_get_SyncRoot_m673971424
x6:__ZN18AsyncUploadManagerD2Ev
Skb:__ZN9Transform5ResetEv
cwb:__Z22TransferField_NonArrayI24GenerateTypeTreeTransfer16Converter_StringEvRK23StaticTransferFieldInfoR31RuntimeSerializationCommandInfoRT0_
B$j:__ZL90Camera_t189460977_CustomAttributesCacheGenerator_Camera_INTERNAL_get_pixelRect_m4124985255P21CustomAttributesCache
Aie:_UNITY_FT_CMap_New
YGb:__Z17MainLoopKeepalivePv
wYc:__ZN5physx7NpScene16addActorInternalERNS_7PxActorE
jri:_MatchCollection__ctor_m1944681790
tFe:_HMACSHA512__ctor_m1667460019
R_i:__ZN15dense_hashtableI10KeyWrapperIPK17Il2CppGenericInstES4_N6il2cpp8metadata21Il2CppGenericInstHashEN14dense_hash_setIS4_S7_NS4_14EqualsComparerINS6_24Il2CppGenericInstCompareEEENSt3__29allocatorIS4_EEE8IdentityESB_SE_E12expand_arrayEjN21dense_hash_map_traits17integral_constantIbLb0EEE
t5k:_printf_core
Xqk:__Z136RuntimeInvoker_IntPtr_t_RuntimeObject_Int32_t2071877448_Int32_t2071877448_Int32_t2071877448_Int32_t2071877448_MonoIOErrorU26_t1029615899PFvvEPK10MethodInfoPvPS4_
mEi:_InvokableCall_1_Find_m1347741199_gshared
PJe:_ToBase64Transform_get_OutputBlockSize_m949275583
LGg:_Collection_1_set_Item_m3254085220_gshared
VVb:__Z14CalcHullBoundsPK8Vector3fPKhhRK5PlaneRK10Matrix4x4fR10MinMaxAABB
heh:_RealProxy__ctor_m2147093603
mug:_List_1__ctor_m3511181530_gshared
HOb:__Z19SetupLODFadeKeywordR17ShaderPassContexti
mie:_UNITY_FT_Stream_ReadFields
EJg:_ReadOnlyCollection_1_get_Count_m2180604490_gshared
Swb:__Z18Transfer_BlittableI19StreamedBinaryWriteILb0EELb0E5RectTIfEEvRK29SerializationCommandArgumentsR31RuntimeSerializationCommandInfo
Jik:__ZL75ToggleGroup_t1030026315_CustomAttributesCacheGenerator_U3CU3Ef__amU24cache1P21CustomAttributesCache
Aqa:__ZL25CheckCopyTextureArgumentsRK7ApiGLESP11GLESTextureS3_
Gbb:__ZN13dynamic_arrayI26EnlightenSystemInformationLj8EE6insertEPS0_PKS0_S4_
eie:_tt_name_entry_ascii_from_utf16
ihg:_MulticastNotSupportedException__ctor_m2164514827
$rf:_DateTime_System_IConvertible_ToChar_m2489529194_AdjustorThunk
Bvb:__Z29Transfer_Blittable_ArrayFieldI24GenerateTypeTreeTransferyEvRT_R9ArrayInfoRK23StaticTransferFieldInfo
IL:__ZN4FMOD7SystemI9playSoundE17FMOD_CHANNELINDEXPNS_5SoundEbPPNS_7ChannelE
iGi:_UnityEvent_1_GetDelegate_m1805195420_gshared
Xae:__ZN13PhysicsModule31GetColliderComponentsInChildrenERK10GameObjectbbR13dynamic_arrayIPN5Unity9ComponentELj4EE
$Hj:__ZL74RuntimeArray_CustomAttributesCacheGenerator_Array_BinarySearch_m1368352453P21CustomAttributesCache
Cti:_Regex_GetGroupIndex_m1686599756
j5j:__ZL68PreferBinarySerialization_t2472773525_CustomAttributesCacheGeneratorP21CustomAttributesCache
Tdd:__ZNK5physx7NpCloth16getStretchConfigENS_22PxClothFabricPhaseType4EnumE
Oqk:__Z66RuntimeInvoker_Int64_t909078037_Int64_t909078037_Int32_t2071877448PFvvEPK10MethodInfoPvPS4_
Nx:__ZN27AnimationLayerMixerPlayable17LayerMixerProcessEP35AnimationPlayableEvaluationConstantP32AnimationPlayableEvaluationInputP33AnimationPlayableEvaluationOutputM17AnimationPlayableFvS1_S3_S5_EMS_FvS1_S3_S5_ESA_MS_FvS5_S1_S3_S5_ifE
P7i:__ZN6il2cpp2os4File4ReadEPNS0_10FileHandleEPciPi
iK:__ZN12AudioManager23VirtualRedirectTransferER18StreamedBinaryReadILb0EE
ymg:_List_1_Remove_m2616693989_gshared
b3a:__ZN10VertexData13SwapEndianessEv
P7k:_realloc
vmc:__Z57Register_UnityEngine_Transform_INTERNAL_get_localRotationv
TPh:_ScrollRect_SetLayoutVertical_m1225848090
hWk:_Plane_ToString_m4267831659_AdjustorThunk
Esh:_Type_get_IsInterface_m3583817465
cab:__ZN30RuntimeInitializeOnLoadManager23VirtualRedirectTransferER17RemapPPtrTransfer
$bl:dynCall_viif
WHh:_MonoField_get_DeclaringType_m1591666235
S7h:_InternalEnumerator_1__ctor_m2111763266_AdjustorThunk
Hah:_Enumerator_MoveNext_m4234629003
ETd:__ZN5physx2Sc24ConstraintProjectionTree11projectPoseERNS0_19ConstraintGroupNodeE
htb:__ZL26Transfer_SimpleNativeClassI17RemapPPtrTransfer8GradientLb0EEvRK29SerializationCommandArgumentsR31RuntimeSerializationCommandInfo
xz:__ZN17AnimationPlayable26DisconnectNoTopologyChangeEPS_i
PHj:__ZL69RuntimeArray_CustomAttributesCacheGenerator_Array_GetValue_m518505780P21CustomAttributesCache
Vuk:__Z52RuntimeInvoker_UInt64_t2909196914_Single_t2076509932PFvvEPK10MethodInfoPvPS4_
M3i:__ZN6il2cpp6icalls8mscorlib6System8MonoType14get_attributesEP20Il2CppReflectionType
gWj:__ZL78Convert_t2607082565_CustomAttributesCacheGenerator_Convert_ToSByte_m1880147062P21CustomAttributesCache
dbe:__ZN13PhysicsModule29GetColliderMaterialInstanceIDER8Collider
hgg:_MonoType_GetDefaultConstructor_m925465120
l2c:__ZNK5physx20NpRigidActorTemplateINS_18PxArticulationLinkEE14getConstraintsEPPNS_12PxConstraintEjj
VT:__ZN13UploadHandlerD2Ev
hal:dynCall_viiiiiffi
Zc:_emscripten_glBlendFuncSeparate
vtg:_List_1_System_Collections_IList_Add_m3674406113_gshared
Y_:__Z20scripting_string_newPKc
Skc:__Z43Material_CUSTOM_Internal_CreateWithMaterialP12Il2CppObjectS0_
Q8f:_Directory_GetCurrentDirectory_m44486537
Gnj:__ZNK24NamespaceAndNamePairHashclERKNSt3__24pairIPKcS3_EE
o8j:__ZL105AudioSource_t1135106623_CustomAttributesCacheGenerator_AudioSource_ReadExtensionPropertyValue_m4251175592P21CustomAttributesCache
oyg:_Collection_1_System_Collections_ICollection_CopyTo_m1047946700_gshared
jGi:_UnityEvent_1_GetDelegate_m4072848279_gshared
Lrc:__ZN9JSONWrite12AppendToNodeEPN5Unity9rapidjson12GenericValueINS1_4UTF8IcEE13JSONAllocatorEEPKcRS6_
nqf:_Convert_ToInt64_m4057339019
L2c:__ZNK5physx19NpRigidBodyTemplateINS_18PxArticulationLinkEE27getMaxDepenetrationVelocityEv
i4g:_AsnEncodedData_Default_m4197142414
aF:__ZN6Avatar23VirtualRedirectTransferER17RemapPPtrTransfer
FXd:__ZThn8_N5physx2Gu11HeightFieldD1Ev
zhj:__ZNSt3__218uninitialized_copyIPNS_4pairIK10KeyWrapperIP11Il2CppClassES4_EES8_EET0_T_SA_S9_
cod:__ZN5physx19NpRigidBodyTemplateINS_14PxRigidDynamicEED0Ev
B0c:__ZNK5physx19PxArticulationJoint19getConcreteTypeNameEv
UC:__ZNSt3__26__sortIRPFbPKN8Animator11AnimatorJobES4_EPS4_EEvT0_S9_T_
pJ:__ZN17AudioCustomFilterD2Ev
npc:__ZN11IMGUIModule26SetDeveloperConsoleVisibleEb
Zkb:__ZN9Transform16ResetReplacementEv
kpa:__ZN18GfxFramebufferGLES18ReleaseFramebufferEP17RenderSurfaceBaseP14GfxContextGLES
Toi:_Context_GetDynamicPropertyCollection_m1987747444
v5g:_X509Certificate2_get_Version_m1927399907
A8b:__ZN13ProduceHelperI6CameraLb0EE7ProduceE18MemLabelIdentifier18ObjectCreationMode
d4e:_Image_RadialCut_m3229543088
rV:__ZN19CloudServiceHandler34HandleSaveFileWebRequestPlayerLoopEv
iz:__ZN7mecanim21ValueArrayReverseCopyEPKNS_18ValueArrayConstantEPKNS_10ValueArrayES2_PS3_PKi
ZI:__Z31GetParentSampleClipFromInstancePN11SoundHandle8InstanceE
G3b:__ZNK28RectTransformPropertyBinding13GetFloatValueERKN11UnityEngine9Animation10BoundCurveE
RIc:__ZN5physx11PxHitBufferINS_12PxOverlapHitEE14processTouchesEPKS1_j
iYb:__ZN6Camera22StandaloneCustomRenderENS_10RenderFlagEP6ShaderRKN4core12basic_stringIcNS3_20StringStorageDefaultIcEEEEPNS_21PerformRenderFunctionE
H9a:__ZNSt3__26vectorI4PPtrI6ObjectE13stl_allocatorIS3_L18MemLabelIdentifier52ELi16EEE6assignINS_11__wrap_iterIPS3_EEEENS_9enable_ifIXaasr21__is_forward_iteratorIT_EE5valuesr16is_constructibleIS3_NS_15iterator_traitsISD_E9referenceEEE5valueEvE4typeESD_SD_
ipd:__ZL22addOrRemoveRigidObjectILb0ELb0ELb0ELb1EN5physx3Scb11RigidStaticEEvRNS0_2Sc5SceneERT3_b
QEj:__ZN6il2cpp2os16ThreadLocalValue8GetValueEPPv
r1i:__ZN6il2cpp2vm13MetadataCache14GetGenericInstEPKPK10Il2CppTypej
QIe:_SHA384Managed_Initialize_m712692291
N8h:_InternalEnumerator_1__ctor_m2688327768_gshared
OP:__ZN13AudioListener17ReadExtensionNameEi
zd:_glUniform1uiv
yOj:__ZL60CallingConvention_t3354538265_CustomAttributesCacheGeneratorP21CustomAttributesCache
RTc:__ZNK5physx2Gu19SupportMapLocalImplINS0_11ConvexHullVEE18doWarmStartSupportEiRNS_6shdfnd3aos5Vec3VE
RVc:__ZN5physx6shdfnd4sortIPvNS0_4LessIS2_EENS0_19ReflectionAllocatorINS_2Cm5BlockIS2_Lj8EEEEEEEvPT_jRKT0_RKT1_j
aad:__ZNK5physx9NpPhysics11getNbShapesEv
aq:setThrew
F5b:__ZL21BuildEmptyCubeTexturePKci11ColorRGBA3217TextureColorSpace
DAi:_Event_get_modifiers_m3267430607
Keb:__ZN14SafeBinaryRead21TransferSTLStyleArrayINSt3__26vectorIN9ShaderLab20SerializedSubProgramENS1_9allocatorIS4_EEEEEEvRT_17TransferMetaFlags
wGk:__Z67RuntimeInvoker_Boolean_t3825574718_RefEmitPermissionSet_t2708608433PFvvEPK10MethodInfoPvPS4_
gWe:_StandaloneInputModule_set_cancelButton_m2642677329
fvc:__Z15Transfer_StringI8JSONReadLb1EEvRK29SerializationCommandArgumentsR31RuntimeSerializationCommandInfo
Vla:__ZN6prcoreL17RemapGenericFloatI17TexFormatRGBFloat15TexFormatRGHalfEEvPKNS_9InnerInfoE
ZPb:__Z25DoForwardShaderRenderLoopR17RenderLoopContextR13dynamic_arrayI16RenderObjectDataLj4EERK11CullResultsbbbN6Camera10RenderFlagE
aRf:_GameObject_GetComponent_TisRuntimeObject_m2812611596_gshared
Ehe:_sfnt_load_face
jee:_UNITY_FT_Render_Glyph_Internal
uoh:_UTF8Encoding_GetByteCount_m2372933408
Qoi:_Context_get_NeedsContextSink_m1907794755
vhe:_UNITY_ft_service_list_lookup
R0k:_Transform_get_localScale_m46214814
KQg:_ARC4Managed_GenerateKey_m716135508
atb:__Z18Transfer_BlittableI17RemapPPtrTransferLb1E11ColorRGBA32EvRK29SerializationCommandArgumentsR31RuntimeSerializationCommandInfo
Moc:__ZN5IMGUI21SelectReceivingWindowER8GUIStateb
iCc:__ZN5physx2Gu20intersectTriangleBoxERKNS_6PxVec3ES3_S3_S3_S3_
X8c:__ZN5physx10NpMaterial8setFlagsENS_7PxFlagsINS_14PxMaterialFlag4EnumEtEE
TV:__ZN13BaseAllocator13TryDeallocateEPv
fyb:__Z29Transfer_Blittable_ArrayFieldI19StreamedBinaryWriteILb0EEfEvRT_R9ArrayInfoRK23StaticTransferFieldInfo
Y9e:_Array_CreateInstance_m1054139389
VGi:_U3CStartU3Ec__Iterator0_Reset_m2580847683_gshared
q9h:_InternalEnumerator_1__ctor_m967618647_AdjustorThunk
Ymb:__ZN16MemoryFileSystem5WriteER13FileEntryDatayPvPy
WAk:__Z74RuntimeInvoker_Vector4_t2243707581_Vector4_t2243707581_Vector4_t2243707581PFvvEPK10MethodInfoPvPS4_
e$h:_Dictionary_2_System_Collections_ICollection_get_IsSynchronized_m1738433079_gshared
IKa:__ZNSt3__26vectorIN12FlareManager10FlareEntryENS_9allocatorIS2_EEE21__push_back_slow_pathIKS2_EEvRT_
fzh:_Default_check_arguments_with_score_m1714931543
oEe:_SHA1_Create_m4086509717
EIh:_MonoMethodInfo_GetMethodInfo_m3298558752
RJ:__ZN13AudioListener17RemoveFromManagerEv
Ud:_glAttachShader
j0e:_Dropdown_SetAlpha_m2769981009
$5d:__ZN5physx6shdfnd8internal8HashBaseINS0_4PairIKtPKcEEtNS0_4HashItEENS1_11HashMapBaseItS6_S9_NS_7profile26WrapperReflectionAllocatorIS6_EEE6GetKeyESD_Lb1EE6createERS4_Rb
fHa:__ZNK6Camera19GetProjectionMatrixEv
qTi:_Predicate_1_BeginInvoke_m1856151290_gshared
aVd:__ZNK5physx2Cm12DelegateTaskINS_2Sc5SceneEXadL_ZNS3_18clothPreprocessingEPNS_10PxBaseTaskEEEE7getNameEv
uud:__ZNK5physx7NpScene24getWakeCounterResetValueEv
tnd:__ZN5physx20NpRigidActorTemplateINS_14PxRigidDynamicEE17resolveReferencesERNS_24PxDeserializationContextE
vKg:_ReadOnlyCollection_1_System_Collections_IList_Contains_m673434054_gshared
Twf:_StackTrace__ctor_m2404985356
MLd:__ZN5physx2Gu32PCMConvexVsMeshContactGeneration20generateLastContactsEv
U0:__Z38PreallocateObjectFromPersistentManagerib
nsf:_DateTime_System_IConvertible_ToSingle_m3927769066
f9c:__ZThn12_N5physx10NpMaterialD0Ev
bXa:__ZNK9Texture2D20GetUnscaledTextureIDEv
yqf:_Convert_ToSByte_m883113940
fUi:_Canvas_get_renderOrder_m2592588836
o$d:__ZN5physx6shdfnd4sortIjNS_19SortBoundsPredicateENS0_19ReflectionAllocatorIjEEEEvPT_jRKT0_RKT1_j
e2j:__ZL77Mesh_t1356156583_CustomAttributesCacheGenerator_Mesh_GetIndicesImpl_m50468169P21CustomAttributesCache
_gg:_MonoType_get_ContainsGenericParameters_m3229732653
Fbd:__ZN5physx7NpShape14onRefCountZeroEv
Fxg:_Queue_1_Peek_m1463479953_gshared
zHf:_Array_InternalArray__IndexOf_TisContactPoint_t1376425630_m3651364246_gshared
rgk:__ZL53InputField_t1631627530_CustomAttributesCacheGeneratorP21CustomAttributesCache
N_d:__ZL15TestContainmentRKN5physx6PxVec3EPKfjPKNS_2Gu15HullPolygonDataE
WAi:_GUI_set_skin_m929513544
KXe:_ButtonClickedEvent__ctor_m938038541
gDb:__ZN18StreamedBinaryReadILb0EE21TransferSTLStyleArrayI13dynamic_arrayI4AABBLj4EEEEvRT_17TransferMetaFlags
vtk:__Z119RuntimeInvoker_Int32_t2071877448_RuntimeObject_Int32_t2071877448_Int32_t2071877448_CharU26_t1894467670_SByte_t454417549PFvvEPK10MethodInfoPvPS4_
cuh:_UInt16_System_IConvertible_ToDouble_m4100549304_AdjustorThunk
Tbb:__Z29ClearRepeatingLogMessageStatev
OXd:__ZN5physx2Gu11HeightField12loadFromDescERKNS_17PxHeightFieldDescEb
qNe:_Single_System_IConvertible_ToInt16_m962677079
Q5:__ZN21EnlightenSceneMappingaSERKS_
oFg:_Collection_1_SetItem_m546457615_gshared
gFj:__ZNK6il2cpp8metadata21Il2CppGenericInstHashclEPK17Il2CppGenericInst
ENe:_Single_System_IConvertible_ToUInt32_m2447833283
XKg:_ReadOnlyCollection_1_System_Collections_IList_Add_m3806843030_gshared
eva:__ZN7ApiGLESD2Ev
aFa:__ZN9Transform47ClearTransformHierarchyAndApplyToSerializedDataEv
sdi:_InternalEnumerator_1_get_Current_m4083613828_AdjustorThunk
Ard:__ZN5physx6shdfnd8PoolBaseINS_2Gu30LargePersistentContactManifoldENS0_19ReflectionAllocatorIS3_EEE12allocateSlabEv
uwc:__ZN8JSONRead21TransferSTLStyleArrayINSt3__26vectorI8MonoPPtr13stl_allocatorIS3_L18MemLabelIdentifier1ELi16EEEEEEvRT_17TransferMetaFlags
xGe:_RijndaelManaged_GenerateKey_m3366247933
w8f:_BinaryReader_ReadUInt64_m1893783375
WIa:__ZN6Camera23VirtualRedirectTransferER19StreamedBinaryWriteILb0EE
vcl:dynCall_fidi
xaj:__ZN15dense_hashtableINSt3__24pairIK10KeyWrapperINS1_IPK9FieldInfoP11Il2CppClassEEEjEES9_17ReflectionMapHashIS8_EN14dense_hash_mapIS9_jSD_NS9_14EqualsComparerINS0_8equal_toIS8_EEEENS0_9allocatorISB_EEE9SelectKeyESI_SK_E12resize_deltaEjj
QPd:__ZN5physx20getVertexEdgeIndicesERKNS_2Gu11HeightFieldEjjjPNS_8EdgeDataE
n4k:_Rigidbody_INTERNAL_set_velocity_m3237509370
tOh:_ScrollRect_set_movementType_m3292965850
jVj:__ZL59AttributeTargets_t1984597432_CustomAttributesCacheGeneratorP21CustomAttributesCache
Gwd:__ZN5physx6shdfnd5ArrayIPNS_2Sc8BodyCoreENS0_19ReflectionAllocatorIS4_EEE6resizeEjRKS4_
GKc:__ZN5physx3Cct26CharacterControllerManager16createControllerERNS_9PxPhysicsEPNS_7PxSceneERKNS_16PxControllerDescE
xU:__ZN11UnityEngine15CloudWebService14RestDownloaderD2Ev
a$b:__Z29StdTemplateConversionFunctionIjhEbPvR14SafeBinaryRead
GPi:__ZL25UnresolvedVirtualCall_149P12Il2CppObject23SpriteState_t1353336012S1_PK10MethodInfo
YHa:__ZN15dense_hashtableINSt3__24pairIKN9ShaderLab7Program23ShaderKeywordSetAndHashEPKNS2_10SubProgramEEES4_NS3_24ShaderKeywordHashFunctorEN14dense_hash_mapIS4_S8_SA_NS0_8equal_toIS4_EE13stl_allocatorIS9_L18MemLabelIdentifier67ELi16EEE9SelectKeyESD_SG_E15insert_noresizeERKS9_
gmg:_List_1_GrowIfNeeded_m2986672263_gshared
o7h:_ArrayReadOnlyList_1_Remove_m2325516426_gshared
Yjf:_Hashtable_get_Count_m830088216
nRa:__ZN13RenderTexture12SetDimensionE16TextureDimension
Ke:_SDL_FreeRW
Nzd:__ZN5physx6shdfnd8PoolBaseINS_2Cm5BlockIhLj128EEENS0_19ReflectionAllocatorIS4_EEE15disposeElementsEv
qIe:_SHA1Internal_FillBuff_m891541953
BYj:__ZL62ResolveEventHandler_t3842432458_CustomAttributesCacheGeneratorP21CustomAttributesCache
jve:__Z34CanvasRenderer_Get_Custom_PropCullP12Il2CppObject
Rjd:__ZN5physx3Scb14ParticleSystem14setRestOffsetsEjRKNS_16PxStrideIteratorIKjEERKNS2_IKfEE
W3d:__ZN12MeshCollider11CreateShapeEPvPK9RigidbodyRK8Vector3f
_N:__ZN20SoundChannelInstance8getDelayE14FMOD_DELAYTYPEPjS1_
WCj:__ZNSt3__26__treeINS_12__value_typeIPvxEENS_19__map_value_compareIS2_S3_NS_4lessIS2_EELb1EEENS_9allocatorIS3_EEE12__find_equalIS2_EERPNS_16__tree_node_baseIS2_EESF_RKT_
i5e:_InputField_set_customCaretColor_m3534590098
DOh:_ScrollRect_set_viewport_m323693490
ASj:__ZL66RijndaelManagedTransform_t135163252_CustomAttributesCacheGeneratorP21CustomAttributesCache
U4f:_NumberFormatter_FormatExponential_m3975285307
Yce:__ZNSt3__26vectorIN20TextRenderingPrivate8FontImpl13CharacterInfoE13stl_allocatorIS3_L18MemLabelIdentifier1ELi16EEE8__appendEj
v:tempBigInt
Se:_emscripten_glVertexAttrib1fv
LUk:_Mesh_CheckCanAccessSubmesh_m764012688
pfb:__ZNSt3__26vectorIN9ShaderLab20SerializedSubProgram12UAVParameterENS_9allocatorIS3_EEE7reserveEj
vQf:_Array_InternalArray__get_Item_TisTypeTag_t141209596_m1747911007_gshared
_8k:__ZSt11__terminatePFvvE
uvd:__ZN5physx13NpVolumeCacheC2EPNS_2Sq17SceneQueryManagerEjj
NWc:__ZThn24_N5physx2Sc20ArticulationJointSimD1Ev
U5e:_InputField_get_selectionAnchorPosition_m466595604
KUj:__ZL99Thread_t241561612_CustomAttributesCacheGenerator_Thread_t241561612____ExecutionContext_PropertyInfoP21CustomAttributesCache
gM:__ZN12AudioManager14systemCallbackEP11FMOD_SYSTEM24FMOD_SYSTEM_CALLBACKTYPEPvS3_
ekk:__ZL111LayoutUtility_t4076838048_CustomAttributesCacheGenerator_LayoutUtility_U3CGetPreferredHeightU3Em__5_m1524880643P21CustomAttributesCache
dcj:__ZN24dense_hashtable_iteratorINSt3__24pairIK10KeyWrapperINS1_IPK10MethodInfoP11Il2CppClassEEEjEES9_17ReflectionMapHashIS8_EN14dense_hash_mapIS9_jSD_NS9_14EqualsComparerINS0_8equal_toIS8_EEEENS0_9allocatorISB_EEE9SelectKeyESI_SK_E30advance_past_empty_and_deletedEv
Sjd:__ZN5physx2Sc18ParticleSystemCore14setRestOffsetsEjRKNS_16PxStrideIteratorIKjEERKNS2_IKfEE
zCc:__ZN5physx2Gu16testPolyDataAxisERKNS0_8CapsuleVERKNS0_13PolygonalDataEPNS0_12SupportLocalERKNS_6shdfnd3aos6FloatVERSB_RNSA_5Vec3VE
DQa:__ZN16ReflectionProbes16UpdateSampleDataEv
EZc:__ZN5physx2Sc17ParticleSystemSimD0Ev
$7j:__ZL107AudioClip_t1932558630_CustomAttributesCacheGenerator_AudioClip_InvokePCMReaderCallback_Internal_m4135619730P21CustomAttributesCache
a8j:__ZL112AudioClip_t1932558630_CustomAttributesCacheGenerator_AudioClip_InvokePCMSetPositionCallback_Internal_m1220105088P21CustomAttributesCache
OTh:_Enumerator_VerifyState_m2118679243_gshared
MFi:_UnityEvent_1_AddListener_m4113183338_gshared
Mmi:_SafeHandle_Finalize_m1839546519
I1a:__ZN14Texture2DArray5ResetEv
lhi:_InternalEnumerator_1_MoveNext_m252820768_AdjustorThunk
zpi:_Context_AllocateNamedDataSlot_m3200404053
tFa:__ZN14BatchAllocator6CommitE18MemLabelIdentifier
t4g:_X509EnhancedKeyUsageExtension_Decode_m3866320499
Q4f:_NumberFormatter_AppendIntegerStringWithGroupSeparator_m1401773574
Yug:_List_1_Remove_m1237648310_gshared
kTg:_CipherSuite_get_ServerHMAC_m3566778727
ZKj:__ZL64DebuggerBrowsableState_t944457511_CustomAttributesCacheGeneratorP21CustomAttributesCache
of:_JS_Sound_Play
dQi:__ZL25UnresolvedVirtualCall_174P12Il2CppObject23RaycastResult_t21186376S1_PK10MethodInfo
sye:__Z26GetUnityConnectSettingsPtrv
MDd:__ZN5physx6shdfnd5slerpEfRKNS_6PxQuatES3_
s4e:_Image_IsRaycastLocationValid_m864962354
Hpk:__Z181RuntimeInvoker_Void_t1841601450_RuntimeObject_Int32_t2071877448_Int32_t2071877448_RuntimeObject_Int32_t2071877448_Int32_t2071877448_RuntimeObject_Int32_t2071877448_Int32_t2071877448PFvvEPK10MethodInfoPvPS4_
leb:__ZN9ShaderLab16SerializedShader8TransferI14SafeBinaryReadEEvRT_
Zya:__ZN5Mutex7TryLockEv
QDi:_InvokableCall_1_remove_Delegate_m3013073467_gshared
B2j:__ZL99Sprite_t309593783_CustomAttributesCacheGenerator_Sprite_get_associatedAlphaSplitTexture_m1902878088P21CustomAttributesCache
mC:__ZN7mecanim8skeleton13SkeletonAlignEPKNS0_8SkeletonERKN4math7_float4ES7_i
x6b:__ZN19ShaderPropertySheet16SetVectorIndexedEN9ShaderLab16FastPropertyNameEifRK8Vector4fNS_8SetFlagsE
gr:__ZN14SafeBinaryRead21TransferSTLStyleArrayIN4core12basic_stringIcNS1_20StringStorageDefaultIcEEEEEEvRT_17TransferMetaFlags
Deh:_RemotingConfiguration_RegisterWellKnownServiceType_m2491506630
wMh:_RectMask2D_OnCanvasHierarchyChanged_m2610677147
wPj:__ZL55_TypeBuilder_t2783404358_CustomAttributesCacheGeneratorP21CustomAttributesCache
HQi:__ZL25UnresolvedVirtualCall_204P12Il2CppObjectPK10MethodInfo
E$b:__Z29StdTemplateConversionFunctionIayEbPvR14SafeBinaryRead
Pod:__ZNK5physx20NpRigidActorTemplateINS_13PxRigidStaticEE14getConstraintsEPPNS_12PxConstraintEjj
XEc:__ZN25MeshMTDGenerationCallbackD0Ev
B8e:_LayoutRebuilder_Initialize_m2671585490
Gqg:_List_1_System_Collections_IList_IndexOf_m4061554721_gshared
_U:__ZN11UnityEngine15CloudWebService14DataDispatcher4StopEv
rfb:__ZNSt3__26vectorIN9ShaderLab20SerializedSubProgram12UAVParameterENS_9allocatorIS3_EEE8__appendEj
PAg:_Collection_1_GetEnumerator_m434271983_gshared
Ydj:__ZNK15dense_hashtableINSt3__24pairIK10KeyWrapperINS1_IPK9EventInfoP11Il2CppClassEEEjEES9_17ReflectionMapHashIS8_EN14dense_hash_mapIS9_jSD_NS9_14EqualsComparerINS0_8equal_toIS8_EEEENS0_9allocatorISB_EEE9SelectKeyESI_SK_E12test_deletedERK24dense_hashtable_iteratorISB_S9_SD_SM_SI_SK_E
xKe:_X509Certificate_ToString_m1582581274
vYh:_Enumerator_get_Current_m2986380627_gshared
kAa:__ZN17ScriptingGCHandle7AcquireE18ScriptingObjectPtr25ScriptingGCHandleWeakness
Aoi:_LifetimeServices_set_LeaseTime_m1487876644
qAh:_ConstructorBuilder_not_supported_m3687319507
VIj:__ZL48IList_t3321498491_CustomAttributesCacheGeneratorP21CustomAttributesCache
lte:__ZN2UI14CanvasRenderer14AttachToCanvasER8JobFencePNS_6CanvasENS0_15InstructionTypeE
M3c:__ZN5physx12NpConstraint8comShiftEPNS_12PxRigidActorE
vNe:_Single_System_IConvertible_ToInt64_m3555853323_AdjustorThunk
eWj:__ZL78Convert_t2607082565_CustomAttributesCacheGenerator_Convert_ToSByte_m1570938941P21CustomAttributesCache
dbl:dynCall_iifiii
Vja:__Z21HasAlphaTextureFormat13TextureFormat
pP:__ZN12AudioManager6UpdateEv
Oja:__ZN14ImageReference9BlitImageERKS_NS_8BlitModeE
tIh:_MonoMethod_get_MethodHandle_m1882915015
yt:__ZN8Animator12AddToManagerEv
vNj:__ZL93ConstructorInfo_t2851816542_CustomAttributesCacheGenerator_ConstructorInfo_Invoke_m2144827141P21CustomAttributesCache
mWh:_ShimEnumerator_get_Key_m1171725158_gshared
zBc:__ZNK5physx2Gu16SupportLocalImplINS0_11ConvexHullVEE9doSupportERKNS_6shdfnd3aos5Vec3VERNS5_6FloatVESA_
hFb:__ZN23CachedSerializationDataD2Ev
iXb:__ZNK25CameraStackRenderingState31CalculateStereoCameraTargetTypeEv
uyc:__ZNK5physx3Cct13BoxController8getActorEv
eQa:__ZN14RenderSettings23VirtualRedirectTransferER14SafeBinaryRead
ysj:__ZN6il2cpp2os10ThreadImpl15CurrentThreadIdEv
WEg:_Collection_1_System_Collections_IList_get_IsReadOnly_m4005091053_gshared
tCf:_Array_InternalArray__ICollection_Contains_TisColor32_t874517518_m2818328910_gshared
nMa:__ZN17GlobalGameManager8TransferI17RemapPPtrTransferEEvRT_
FYd:__ZN5physx6shdfnd8internal8HashBaseIPNS_2Gu12TriangleMeshES5_NS0_4HashIS5_EENS1_11HashSetBaseIS5_S7_NS0_9AllocatorELb1EE6GetKeyES9_Lb1EE5eraseERKS5_
V$f:_AppDomainInitializer_EndInvoke_m4003801172
DIj:__ZL66RuntimeArray_CustomAttributesCacheGenerator_Array_Sort_m2544329074P21CustomAttributesCache
VLi:_AudioExtensionManager_WriteExtensionProperties_m4015275001
MPa:__ZN16LevelGameManager8TransferI18StreamedBinaryReadILb0EEEEvRT_
wpe:_UNITY_tt_face_load_fpgm
REa:__Z17IsObjectAvailablei
I6a:__ZN12InputManagerD0Ev
B9i:_RaycastHit2D_get_point_m2962370910
eDj:__ZN6il2cpp6icalls8mscorlib6System11Diagnostics10StackTrace9get_traceEP15Il2CppExceptionib
D_e:_DefaultControls_CreateUIObject_m2810394112
LIa:__ZNK16LightmapSettings14GetLightProbesEv
AOh:_ScrollRect_get_scrollSensitivity_m1160815603
pnh:_UnicodeEncoding_GetBytes_m1337660232
i4c:__ZN5physx2Sc9RigidCore20removeShapeFromSceneERNS0_9ShapeCoreEb
JBb:__Z18Transfer_BlittableI18StreamedBinaryReadILb0EELb1EtEvRK29SerializationCommandArgumentsR31RuntimeSerializationCommandInfo
U7k:_posix_memalign
N6b:__ZN13ProduceHelperI12MeshRendererLb0EE7ProduceE18MemLabelIdentifier18ObjectCreationMode
j$d:__ZN5physx11RTreeCooker18buildFromTrianglesERNS_2Gu5RTreeEPKNS_6PxVec3EjPKtPKjjRNS_6shdfnd5ArrayIjNSB_19ReflectionAllocatorIjEEEEPNS0_13RemapCallbackEfNS_17PxMeshCookingHint4EnumE
t_c:__ZN5physx6shdfnd5ArrayIPvNS0_15InlineAllocatorILj256ENS0_19ReflectionAllocatorINS_14NpArticulationEEEEEE15growAndPushBackERKS2_
axg:_List_1_get_Count_m1249351212_gshared
sii:_InternalEnumerator_1_get_Current_m747506907_AdjustorThunk
TRd:__ZN29PxsCreateFinalizeContactsTaskD0Ev
gNk:_LogCallback_Invoke_m115567905
ftk:__Z38RuntimeInvoker_PaddingMode_t3032142640PFvvEPK10MethodInfoPvPS4_
cTg:_CertificateValidationCallback2_BeginInvoke_m3996282202
XZg:_SslClientStream_get_ClientCertSelectionDelegate_m2316959461
Ihf:_SynchronizedArrayListWrapper_get_SyncRoot_m1466044127
X0:__ZNK15MonoScriptCache7ReleaseEv
VXi:__ZN6il2cpp2vm5Class13HasReferencesEP11Il2CppClass
qNd:__ZN5physx9PxTaskMgrC2EPNS_15PxCpuDispatcherEPNS_15PxGpuDispatcherEPNS_15PxSpuDispatcherE
Cg:_glBindTexture
MAg:_Collection_1_ClearItems_m3585785594_gshared
h6k:_snprintf
jjk:__ZL84HorizontalOrVerticalLayoutGroup_t1968298610_CustomAttributesCacheGenerator_m_SpacingP21CustomAttributesCache
Nyh:_Binder__ctor_m1361613966
R5e:_InputField_set_caretPosition_m888572237
HDh:_ILGenerator__cctor_m3943061018
Zgf:_ArrayListWrapper_Clone_m1506311066
_Ui:_CanvasRenderer_CreateUIVertexStream_m2882962535
qdb:__Z36scripting_liveness_calculation_begin17ScriptingClassPtriPFvPP12Il2CppObjectiPvES3_PFvvES7_
wHi:_ListPool_1_Get_m4215629480_gshared
Msa:__ZN16UniformCacheGLES6CreateERK20GpuProgramParameters
Doh:_UTF8Encoding_Fallback_m811555654
kwh:_UInt64_CompareTo_m3513742483
CHf:_Array_InternalArray__IndexOf_TisPlayableBinding_t2498078091_m398853908_gshared
K_k:_ScriptableObject_t1975622470_marshal_pinvoke_cleanup
fmh:_Encoding_GetString_m1894033578
SJg:_ReadOnlyCollection_1_System_Collections_IList_Clear_m1918003010_gshared
IRi:_TextGenerator_t647235000_marshal_pinvoke_cleanup
VSi:_Nullable_1_Equals_m3860982732_gshared
lfl:_emscripten_glGetProgramInfoLog__wrapper
T0k:_Transform_set_localScale_m1442831667
lG:__ZN25AnimatedPropertyEvaluator29BindCurveToScriptingObjectPtrERKN13AnimationClip10FloatCurveEj18ScriptingObjectPtrb
Hoh:_UTF8Encoding_InternalGetChars_m373801468
f2:__ZN17PersistentManager23DestroyFromFileInternalEi
mQb:__Z19SetupMotionMatricesR6CameraR18RPDataMotionVector
Ryf:_Enum_ToString_m2112979707
WQj:__ZL55SoapServices_t3397513225_CustomAttributesCacheGeneratorP21CustomAttributesCache
G4k:_RotationScript__ctor_m1788527176
pch:_MonoMethodMessage_get_MethodName_m3580519713
BD:__ZN26AnimatorControllerPlayable18PrepareForPlaybackERN7mecanim6memory9AllocatorE
yDd:__ZN5physx19PxsMaterialCombiner24combineIsotropicFrictionERKNS_15PxsMaterialDataES3_
_xf:_Enum_t2459695545_marshal_pinvoke_cleanup
CCi:_GUISkin_get_font_m1049472739
sGf:_Array_FindLastIndex_TisRuntimeObject_m986818300_gshared
yoh:_UTF8Encoding_GetBytes_m4170182058
gqg:_List_1_IndexOf_m2418862432_gshared
Ykd:__ZN5physx22NpParticleBaseTemplateINS_16PxParticleSystemENS_16NpParticleSystemEE20lockParticleReadDataEv
iIa:__ZN22CreateGpuProgramOutputC2Ev
d7g:_X509Chain__ctor_m2242540866
gbg:_MemoryStream_InternalConstructor_m2423667240
Gui:_CapturingGroup_set_Index_m2175936006
kdh:_SoapMethodAttribute_SetReflectionObject_m3431595769
rZd:__ZN5physx7Cooking16cookTriangleMeshERKNS_18PxTriangleMeshDescERNS_14PxOutputStreamE
dRh:_Slider_set_maxValue_m2951480075
L9d:__ZN14CompletionTask4InitEPN5physx7PxSceneE
tZk:_RectTransform_INTERNAL_get_anchorMin_m3722367822
FXc:__ZN5physx2Sc7ElementD0Ev
Q$d:__ZN5physx6shdfnd10Foundation7releaseEv
UXi:__ZN6il2cpp2vm5Class4InitEP11Il2CppClass
Tc:invoke_vidi
fcc:__ZNK15GUIEventManager15GetEventAtIndexEi
Cte:__ZN2UI14CanvasRenderer17SyncDirtyElementsER8JobFence
FBb:__Z18Transfer_BlittableI18StreamedBinaryReadILb0EELb0ExEvRK29SerializationCommandArgumentsR31RuntimeSerializationCommandInfo
uZe:_ColorBlock_op_Inequality_m1517672458
Zvj:__ZN6il2cpp5utils11StringUtils15StringDuplicateEPKc
DYb:__Z15CanAddComponentR10GameObjectPKN5Unity4TypeE
zHa:__ZNK9ShaderLab21ShaderRasterStateDesc16ToGfxRasterStateEPK19ShaderPropertySheetS3_R14GfxRasterState
RW:_tlsf_memalign
Yjh:_CspParameters__ctor_m2480441577
XEj:__ZN6il2cpp2os9EventImplC2Ebb
api:_DynamicPropertyCollection_NotifyMessage_m840388347
Qvi:_Uri_ParseUri_m5711497
TE:__ZN4PPtrI13MonoBehaviourE8TransferI19StreamedBinaryWriteILb0EEEEvRT_
Nyk:__Z98RuntimeInvoker_RuntimeObject_RuntimeObject_RayU26_t3651946800_Single_t2076509932_Int32_t2071877448PFvvEPK10MethodInfoPvPS4_
EZ:__Z20IsMatrixBuiltinParamPKcPi
hhk:__ZL108MaskableGraphic_t540192618_CustomAttributesCacheGenerator_MaskableGraphic_ParentMaskStateChanged_m3643747340P21CustomAttributesCache
Ubj:__ZN15dense_hashtableINSt3__24pairIK10KeyWrapperINS1_IPK10MethodInfoP11Il2CppClassEEEjEES9_17ReflectionMapHashIS8_EN14dense_hash_mapIS9_jSD_NS9_14EqualsComparerINS0_8equal_toIS8_EEEENS0_9allocatorISB_EEE9SelectKeyESI_SK_E16reset_thresholdsEv
e6b:__ZN8Renderer19PostInitializeClassEv
v0k:_TrackedReference_t1045890189_marshal_pinvoke_back
i8h:_InternalEnumerator_1_get_Current_m1943362081_AdjustorThunk
mBj:__ZN6il2cpp6icalls8mscorlib6System8Delegate23CreateDelegate_internalEP20Il2CppReflectionTypeP12Il2CppObjectP22Il2CppReflectionMethodb
XHj:__ZL82RuntimeArray_CustomAttributesCacheGenerator_Array_GetValue_m1507415734____indices0P21CustomAttributesCache
$yh:_Default_check_type_m2363631305
CEb:__ZN18DelayedCallManager18CancelCallDelayed2E4PPtrI6ObjectEPF15CallObjectStatePS1_PvES7_
Aqg:_List_1__cctor_m911493842_gshared
dya:__ZN25ThreadsafeLinearAllocator10ReallocateEPvji
Kob:__Z18Transfer_BlittableI14SafeBinaryReadLb1E11QuaternionfEvRK29SerializationCommandArgumentsR31RuntimeSerializationCommandInfo
P1c:__ZNK5physx18PxArticulationLink8isKindOfEPKc
daa:__ZN18SpriteAtlasManagerD0Ev
EHf:_Array_InternalArray__IndexOf_TisRaycastHit2D_t4063908774_m3739817942_gshared
bJh:_MonoProperty_GetAccessors_m3704698731
j1:__ZNSt3__23mapIiP15MonoScriptCacheNS_4lessIiEE13stl_allocatorINS_4pairIKiS2_EEL18MemLabelIdentifier78ELi16EEEixERS7_
eae:__Z25CreatePxMeshFromUnityMeshP4MeshbbRK10Matrix4x4f13TransformTypef
PAj:_GC_disable
m3a:__ZN10Matrix4x4f8TransferI14SafeBinaryReadEEvRT_
en:FUNCTION_TABLE_vifiiiiiiiiiiiiiiiiii
xeg:_UnmanagedMemoryStream_ReadByte_m2501145010
q1h:_Dictionary_2__ctor_m406310120_gshared
tgh:_ObjectRecord_UnchainFixup_m3025030310
yD:__ZN14AvatarPlayback8StopTimeEv
q4:__Z6AppendRKN4core12basic_stringIcNS_20StringStorageDefaultIcEEEEPKc
lHj:__ZL60MulticastDelegate_t3201952435_CustomAttributesCacheGeneratorP21CustomAttributesCache
pdb:__ZL14OnWorldStoppedv
tyb:__Z18Transfer_BlittableI18StreamedBinaryReadILb1EELb0E8Vector3fEvRK29SerializationCommandArgumentsR31RuntimeSerializationCommandInfo
Myk:__Z81RuntimeInvoker_RuntimeObject_Ray_t2469606224_Single_t2076509932_Int32_t2071877448PFvvEPK10MethodInfoPvPS4_
thf:_ReadOnlyArrayListWrapper_Sort_m2056228524
kgk:__ZL61Image_t2042527209_CustomAttributesCacheGenerator_m_FillCenterP21CustomAttributesCache
ZOk:_Color_ToString_m55788918_AdjustorThunk
lha:__ZN7ApiGLES18ClearBufferSubDataEjN2gl12BufferTargetEll
Ugc:__Z37Camera_Get_Custom_PropAllCamerasCountv
b2a:__ZN14Texture2DArray8TransferI18StreamedBinaryReadILb0EEEEvRT_
j5c:__ZN5physx15NpActorTemplateINS_18PxArticulationLinkEED2Ev
tUb:__Z18ApplyOcclusionMaskR19ProbeOcclusionCacheRK17LightProbeContextRK10RenderNodeb
Bag:_FileStreamAsyncResult__ctor_m1096228032
lke:_Split_Cubic
B1d:__ZN11BoxCollider8TransferI18StreamedBinaryReadILb0EEEEvRT_
Fuf:_DBNull_System_IConvertible_ToSByte_m1228193074
tAg:_Collection_1__ctor_m2818834331_gshared
Sxk:__Z68RuntimeInvoker_UInt16_t986882611_UInt16_t986882611_UInt16_t986882611PFvvEPK10MethodInfoPvPS4_
N9d:__Z19ExtractDataFromMeshR4MeshR13dynamic_arrayI8Vector3fLj4EERS1_ItLj2EES6_
YEi:_UnityAction_1_Invoke_m3979091955_gshared
ZCg:_Collection_1_Insert_m3041550124_gshared
B6c:__ZN5physx2Sc16ArticulationCore26setMaxProjectionIterationsEj
bag:_FileStream_FlushBuffer_m2594140542
BIc:__ZN26IntersectAnyVsMeshCallbackILi1ELb0EED2Ev
Zje:_ft_black_render
Mwj:__ZN6il2cpp2vm8Profiler12GCHeapResizeEx
Bcl:dynCall_viiifi
Ooa:__ZN18GfxFramebufferGLES20ActiveContextChangedEPP17RenderSurfaceBaseS2_
gYj:__ZL51TimeSpan_t3430258949_CustomAttributesCacheGeneratorP21CustomAttributesCache
Boa:__Z19PluginsRenderMarkeri
PG:__ZN10HumanTrait18InitializeBoneNameEv
U3j:__ZL130DrivenRectTransformTracker_t154385424_CustomAttributesCacheGenerator_DrivenRectTransformTracker_Clear_m4190599786____revertValues0P21CustomAttributesCache
g2h:_DefaultComparer__ctor_m899694595_gshared
Avi:__ZN23InterfaceActionInvoker1ItE6InvokeEjP11Il2CppClassP12Il2CppObjectt
zqf:_Convert_ToSByte_m1570938941
FCb:__Z29Transfer_Blittable_ArrayFieldI18StreamedBinaryReadILb0EEyEvRT_R9ArrayInfoRK23StaticTransferFieldInfo
ayi:_X509CertificateEnumerator_get_Current_m3129374511
y4h:_EqualityComparer_1_get_Default_m875724809_gshared
Aoj:__ZNSt3__214__split_bufferIN6il2cpp2vm5Image20EmbeddedResourceDataERNS_9allocatorIS4_EEEC2EjjS7_
h3e:_HorizontalOrVerticalLayoutGroup_get_spacing_m2859152439
EOj:__ZL57DispIdAttribute_t607560947_CustomAttributesCacheGeneratorP21CustomAttributesCache
xJ:__ZN12AudioManager17RemoveAudioSourceEP11AudioSource
tG:__ZN6Avatar15InitializeClassEv
Izk:__Z150RuntimeInvoker_Single_t2076509932_Single_t2076509932_Single_t2076509932_SingleU26_t4173844468_Single_t2076509932_Single_t2076509932_Single_t2076509932PFvvEPK10MethodInfoPvPS4_
MIj:__ZL83RuntimeArray_CustomAttributesCacheGenerator_RuntimeArray____LongLength_PropertyInfoP21CustomAttributesCache
jtk:__Z151RuntimeInvoker_Int32_t2071877448_RuntimeObject_Int32_t2071877448_Int32_t2071877448_RuntimeObject_Int32_t2071877448_DecoderFallbackBufferU26_t3597875002PFvvEPK10MethodInfoPvPS4_
RWd:__ZNK5physx2Gu10ConvexMesh17getReferenceCountEv
DQf:_Array_InternalArray__get_Item_TisUInt64_t2909196914_m2580870875_gshared
Ngj:__ZN15dense_hashtableINSt3__24pairIK10KeyWrapperINS1_IP11Il2CppClassjEEES4_EES6_N6il2cpp8metadata14ArrayClassHashEN14dense_hash_mapIS6_S4_SB_NS6_14EqualsComparerINSA_17ArrayClassCompareEEENS0_9allocatorIS8_EEE9SelectKeyESF_SH_E4swapERSK_
Sud:__ZN5physx2Sc5Scene22setNbContactDataBlocksEj
z4b:__ZN13ProduceHelperI14SpriteRendererLb0EE7ProduceE18MemLabelIdentifier18ObjectCreationMode
PQ:__ZN5physx14PxLightCpuTask12addReferenceEv
mZa:__ZN21EnlightenSceneMapping8TransferI19StreamedBinaryWriteILb0EEEEvRT_
$pj:__ZN6il2cpp2gc16GarbageCollector19InitializeFinalizerEv
KMc:__ZNK5physx3Ext5JointINS_9PxD6JointENS_24PxD6JointGeneratedValuesEE26getRelativeAngularVelocityEv
kz:__ZN7mecanim8skeleton18CreateSkeletonMaskEjPKNS0_19SkeletonMaskElementERNS_6memory9AllocatorE
tIj:__ZL66RuntimeArray_CustomAttributesCacheGenerator_Array_Sort_m4096942812P21CustomAttributesCache
ioc:__ZN10GUIManager10DoGUIEventER10InputEventb
RTg:_Context_get_ClientWriteKey_m2235605337
Bub:__Z35Transfer_Blittable_FixedBufferFieldI24GenerateTypeTreeTransferxEvRK29SerializationCommandArgumentsR31RuntimeSerializationCommandInfo
Bpe:_UNITY_TT_Init_Glyph_Loading
mPb:__Z20CalculateSqrDistanceRK8Vector3fRK4AABB
Gae:__ZN14PhysicsManager15ProcessContactsEv
dGc:__ZN21BoxTraceSegmentReport7onEventEjPj
w1c:__ZN5physx2Sc21ArticulationJointCore13setSwingLimitEff
KN:__Z32AudioMixerDuckingProcessCallbackP21UnityAudioEffectStatePfS1_jii
QBc:__ZL20HullProjectionCB_BoxRKN5physx2Gu13PolygonalDataERKNS_6PxVec3ERKNS_2Cm8Matrix34ERKNS7_23FastVertex2ShapeScalingERfSE_
Ozh:_CustomAttributeTypedArgument_GetHashCode_m999147081_AdjustorThunk
Pwd:__ZN5physx17PxcNpMemBlockPool19releaseUnusedBlocksEv
kag:_FileStream_Read_m3880951166
qJd:__ZN5physx14PxsAABBManager21selfCollideAggregatesEPKNS_19AggregateSortedDataE
AMi:_AudioExtensionManager_Update_m3727859914
nK:__ZN12AudioManager8TransferI24GenerateTypeTreeTransferEEvRT_
Xia:__Z25GetBytesFromTextureFormat13TextureFormat
x2a:__ZN9Texture3D19UnloadFromGfxDeviceEb
Tjj:__ZN6il2cpp6icalls8mscorlib6System9Threading6Thread20Thread_free_internalEP12Il2CppThreadi
yRd:__ZN5physx12_GLOBAL__N_112innerProductERKNS_14Px1DConstraintERS1_RKNS0_9MassPropsE
Ksb:__Z18Transfer_BlittableI17RemapPPtrTransferLb0EsEvRK29SerializationCommandArgumentsR31RuntimeSerializationCommandInfo
zDf:_Array_InternalArray__ICollection_Remove_TisContactPoint_t1376425630_m2242111467_gshared
cbl:dynCall_iifff
GOf:_Dictionary_2_Do_CopyTo_TisRuntimeObject_TisRuntimeObject_m2625001464_gshared
EXj:__ZL67Math_t2022911894_CustomAttributesCacheGenerator_Math_Min_m105057611P21CustomAttributesCache
eG:__ZN16MecanimAnimation25RegisterIAnimationBindingEPKN5Unity4TypeEiP17IAnimationBinding
W1:__Z32scripting_class_get_assemblyname17ScriptingClassPtr
nxe:__ZN11UnityEngine15PlatformWrapper15GetVRDeviceNameEv
K_h:_Dictionary_2_Resize_m2532139610_gshared
eUk:_Mathf_RoundToInt_m1833913145
Tug:_List_1_IndexOf_m2019441835_gshared
EFd:__ZN5physx26PxcFrictionPatchStreamPairC2ERNS_17PxcNpMemBlockPoolE
Krh:_TimeSpan_Equals_m2029123271_AdjustorThunk
Q1i:__ZN6il2cpp2vm13MetadataCache23GetInvokerMethodPointerEPK10MethodInfoPK20Il2CppGenericContext
fua:__ZN9GfxDevice21RegisterNativeTextureE9TextureIDi16TextureDimension
HAf:_CultureInfo__ctor_m456863818
uCj:__ZN6il2cpp6icalls8mscorlib6System10Reflection4Emit11TypeBuilder20create_generic_classEP27Il2CppReflectionTypeBuilder
D4i:__ZNSt3__26vectorIPK10MethodInfoNS_9allocatorIS3_EEE26__swap_out_circular_bufferERNS_14__split_bufferIS3_RS5_EE
Wkg:_Enumerator_MoveNext_m2504790928_gshared
pik:__ZL61Slider_t297367283_CustomAttributesCacheGenerator_m_HandleRectP21CustomAttributesCache
uQ:__Z60Register_UnityEngine_AudioListener_GetNumExtensionPropertiesv
tj:_emscripten_glUniformMatrix4fv
chj:__ZN15dense_hashtableINSt3__24pairIK10KeyWrapperINS1_IP11Il2CppClassjEEES4_EES6_N6il2cpp8metadata14ArrayClassHashEN14dense_hash_mapIS6_S4_SB_NS6_14EqualsComparerINSA_17ArrayClassCompareEEENS0_9allocatorIS8_EEE9SelectKeyESF_SH_E13set_empty_keyERKS8_
Djb:__ZN12ScriptMapperD2Ev
a5d:__ZN9Rigidbody13AwakeFromLoadE17AwakeFromLoadMode
adk:__ZL85AxisEventData_t1524870173_CustomAttributesCacheGenerator_U3CmoveDirU3Ek__BackingFieldP21CustomAttributesCache
b7c:__ZNK5physx14NpSceneQueries10multiQueryINS_12PxOverlapHitEEEbRKNS_15MultiQueryInputERNS_13PxHitCallbackIT_EENS_7PxFlagsINS_9PxHitFlag4EnumEtEEPKNS_12PxQueryCacheERKNS_17PxQueryFilterDataEPNS_21PxQueryFilterCallbackEPNS_20BatchQueryFilterDataE
_Ee:_KeyedHashAlgorithm_Dispose_m1864300576
Vxi:_X509Certificate_PEM_m49854707
O9d:__ZL21GetMeshLocationDetailR4Mesh
w4g:_X509BasicConstraintsExtension__ctor_m3320418592
dxi:_ExtendedKeyUsageExtension_Decode_m901297139
ogb:__Z32TransferEnumWithNameForceIntSizeI14SafeBinaryRead7FogModeEvRT_RT0_PKc17TransferMetaFlags
Plc:__Z52Register_UnityEngine_RenderTexture_Internal_GetWidthv
SJj:__ZL89SafeWaitHandle_t481461830_CustomAttributesCacheGenerator_SafeWaitHandle__ctor_m1710231470P21CustomAttributesCache
zzj:_GC_check_leaked
Vhb:__ZN9ShaderLab20SerializedSubProgram16TextureParameter8TransferI19StreamedBinaryWriteILb0EEEEvRT_
Fb:invoke_fiiiiiiiifiiiif
mLf:_Array_InternalArray__Insert_TisVector4_t2243707581_m1643342708_gshared
mxa:__ZNK7Hash12812PackToUInt32Ev
EKh:_Mask_OnSiblingGraphicEnabledDisabled_m865494155
l1g:_KeysCollection_System_Collections_ICollection_get_SyncRoot_m2289369147
hSk:_ScriptableRenderContext__ctor_m3729862500_AdjustorThunk
L3:__ZNSt3__227__insertion_sort_incompleteIRNS_6__lessI14ObjectLoadDataS2_EEPS2_EEbT0_S6_T_
gV:__ZN11UnityEngine15CloudWebService16SessionContainer8AddEventEPNS0_14CloudEventInfoE
Osa:__Z4TrimRKN4core12basic_stringIcNS_20StringStorageDefaultIcEEEES5_
lSh:_Text_set_resizeTextMaxSize_m4034967714
xJj:__ZL55GuidAttribute_t222072359_CustomAttributesCacheGeneratorP21CustomAttributesCache
zzh:_CustomAttributeNamedArgument_Equals_m2691468532
zGj:__ZL74String_t_CustomAttributesCacheGenerator_String_Concat_m3881798623____args0P21CustomAttributesCache
NRj:__ZL103CryptoConfig_t896479599_CustomAttributesCacheGenerator_CryptoConfig_CreateFromName_m2169102076____args1P21CustomAttributesCache
A0a:__ZN10VertexData8TransferI14SafeBinaryReadEEvRT_
D0c:__ZN5physx19NpArticulationJointD0Ev
CL:__ZN4FMOD8ChannelI8setDelayE14FMOD_DELAYTYPEjj
_lf:_Stack__ctor_m2410583781
tAj:_GC_malloc_atomic
x8d:__ZN5physx9NpPhysics14createInstanceEjRNS_12PxFoundationERKNS_17PxTolerancesScaleEbPNS_20PxProfileZoneManagerE
Zbe:__Z59Register_UnityEngine_Physics_INTERNAL_CALL_Internal_Raycastv
Zyh:_Default_GetBetterMethod_m4255740863
BAh:_ConstructorBuilder_GetILGenerator_m1731893569
std:__ZNK5physx7NpScene17getFilterCallbackEv
Coj:__ZNSt3__214__split_bufferIN6il2cpp2vm5Image20EmbeddedResourceDataERNS_9allocatorIS4_EEED2Ev
X$:__ZL20SortItemByInstanceIDRKN18AwakeFromLoadQueue4ItemES2_
d8d:__ZN5physx6shdfnd5ArrayIPvNS0_15InlineAllocatorILj256ENS0_19ReflectionAllocatorINS_24NpPtrTableStorageManager8PtrBlockILi16EEEEEEEE15growAndPushBackERKS2_
FFh:_TypeBuilder_create_runtime_class_m2719530260
uHe:_RNGCryptoServiceProvider_RngClose_m2921734810
wz:__ZNK34AnimationStateMachineMixerPlayable26GetInterruptedPosePlayableEv
jAe:__ZN20UnityConnectSettings8TransferI24GenerateTypeTreeTransferEEvRT_
PB:__ZN34BlobWriteTransferSTLStyleArrayImplI22OffsetPtrArrayTransferIbEEclERS1_17TransferMetaFlagsR9BlobWrite
L_j:__ZL199U3CCreateWhereIteratorU3Ec__Iterator1D_1_t2523986802_CustomAttributesCacheGenerator_U3CCreateWhereIteratorU3Ec__Iterator1D_1_System_Collections_Generic_IEnumeratorU3CTSourceU3E_get_Current_m517722874P21CustomAttributesCache
rPc:__ZNK5physx3Ext5JointINS_15PxRevoluteJointENS_30PxRevoluteJointGeneratedValuesEE8getSceneEv
SHg:_ReadOnlyCollection_1_Contains_m1227826160_gshared
uSf:_SimpleCollator_IsHalfKana_m4255579023
b$g:_InternalAsyncResult_get_Count_m1291942796
ryg:_Collection_1_System_Collections_IList_Contains_m3365884450_gshared
xbd:__ZN5physx7NpShape13setRestOffsetEf
Xuj:__ZNK15dense_hashtableINSt3__24pairIK10KeyWrapperIPK19Il2CppGenericMethodEP10MethodInfoEES6_N6il2cpp8metadata23Il2CppGenericMethodHashEN14dense_hash_mapIS6_S9_SD_NS6_14EqualsComparerINSC_26Il2CppGenericMethodCompareEEENS0_9allocatorISA_EEE9SelectKeyESH_SJ_E10test_emptyERK30dense_hashtable_const_iteratorISA_S6_SD_SL_SH_SJ_E
uBa:__Z16FlaggedAsSkippedIN4core12basic_stringIcNS0_20StringStorageDefaultIcEEEEEbRK13FileEntryInfoRKT_19FileEnumerationFlag
nFg:_Collection_1_set_Item_m3440986310_gshared
F5:__ZL31InitializeRendererUpdateManagerPv
CXe:_BaseMeshEffect__ctor_m2843647600
yvk:__Z106RuntimeInvoker_RuntimeObject_Int16_t4041245914_RuntimeObject_BooleanU26_t3168250738_BooleanU26_t3168250738PFvvEPK10MethodInfoPvPS4_
Zbd:__ZN5physxL11getTriangleERKNS_2Gu12TriangleMeshEjPNS_6PxVec3EPKS4_PKvRKNS_2Cm8Matrix34Eb
H1j:__ZL89Input_t1785128008_CustomAttributesCacheGenerator_Input_get_imeCompositionMode_m1132899721P21CustomAttributesCache
BP:__ZN13AudioListener12CleanupClassEv
N4d:__ZN14SafeBinaryRead21TransferSTLStyleArrayINSt3__26vectorIjNS1_9allocatorIjEEEEEEvRT_17TransferMetaFlags
IVg:_ClientSessionInfo_Dispose_m2571428025
n8e:_LayoutGroup_DelayedSetDirty_m4276695617
UYg:_RecordProtocol_decryptRecordFragment_m2510859489
$Di:_InvokableCall_1__ctor_m975753341_gshared
ddd:__ZNK5physx7NpCloth16lockParticleDataEv
nSe:_BaseRaycaster_get_sortOrderPriority_m3340181311
y7a:__ZN11TimeManager8TransferI19StreamedBinaryWriteILb0EEEEvRT_
Sag:_DelegatePInvokeWrapper_ReadDelegate_t3184826381
F_j:__ZL91HashSet_1_t2624254809_CustomAttributesCacheGenerator_HashSet_1_OnDeserialization_m627602129P21CustomAttributesCache
gle:_compare_uni_maps
Hqe:__ZL34RegisterModuleICalls_TextRenderingv
_xe:__ZN11UnityEngine15PlatformWrapper27GetGraphicsCapsSupportFlagsEv
Tre:__ZNSt3__218__insertion_sort_3IRPFbPN2UI6CanvasES3_EPS3_EEvT0_S8_T_
RGj:__ZL80Decimal_t724701077_CustomAttributesCacheGenerator_Decimal_op_Explicit_m714968249P21CustomAttributesCache
Ssa:__ZN18GlslGpuProgramGLES25LoadFromBinaryShaderCacheERKN4core12basic_stringIcNS0_20StringStorageDefaultIcEEEER17ShaderChannelMaskPKc
Dyd:__ZN5physx13NpRigidStatic9visualizeERNS_2Cm12RenderOutputEPNS_7NpSceneE
cyb:__ZN12NativeBufferI16Converter_StringE15SetupForWritingER9ArrayInfo
mWe:_StandaloneInputModule_DeactivateModule_m2952848884
zjl:___cxa_end_catch__wrapper
Mj:_emscripten_glVertexAttrib3fv
Ald:__ZNK5physx22NpParticleBaseTemplateINS_16PxParticleSystemENS_16NpParticleSystemEE13getRestOffsetEv
ZAd:__ZN5physx6shdfnd8PoolBaseINS_2Sc35ParticleElementRbElementInteractionENS0_19ReflectionAllocatorIS3_EEE15disposeElementsEv
JZh:_ValueCollection_System_Collections_Generic_ICollectionU3CTValueU3E_Clear_m231380274_gshared
oTe:_Entry__ctor_m1176697586
v8f:_BinaryReader_ReadUInt32_m1363572147
Ugg:_MonoType_get_Module_m3769241394
NWj:__ZL79Convert_t2607082565_CustomAttributesCacheGenerator_Convert_ToUInt32_m3391339025P21CustomAttributesCache
oQk:_Debug_LogWarning_m1382493163
kFb:__ZN13MonoBehaviour22DoScriptRebuildWarningEv
Wgc:__Z38Camera_CUSTOM_INTERNAL_CALL_RaycastTryP12Il2CppObjectRK3Rayfi
uSh:_Text_get_verticalOverflow_m3134063496
Vij:__ZN6il2cpp6icalls8mscorlib6System5Array13ClearInternalEP11Il2CppArrayii
L7b:__ZZL23RegisterLightPropertiesR22GenericPropertyBindingEN22Wrapper_LightSpotAngle13GetFloatValueEPv
fmi:_GCHandle_get_Target_m2327042781
N4g:_PublicKey_get_EncodedKeyValue_m3051963850
Ztk:__Z50RuntimeInvoker_Char_t3454481338_Single_t2076509932PFvvEPK10MethodInfoPvPS4_
QXe:_Button_OnFinishSubmit_m1646528571
iGc:__ZN5physx2Gu26EPASupportMapPairLocalImplINS0_9TriangleVENS0_4BoxVEED0Ev
H9k:_llvm_cttz_i32
R4g:_PublicKey_DecodeDSA_m1169363495
lpc:__ZN11IMGUIModule25GetGUIStyleScriptingClassEv
_ne:_tt_get_interface
yNf:_Array_Sort_TisRuntimeObject_m143182644_gshared
Gjh:_AsymmetricKeyExchangeFormatter__ctor_m3362140205
Ejj:__ZN6il2cpp5utils9PathUtils7CombineIcEENSt3__212basic_stringIT_NS3_11char_traitsIS5_EENS3_9allocatorIS5_EEEERKSA_SC_
c1g:_NameObjectCollectionBase_BaseGet_m667273025
AJd:__ZN5physx14PxsAABBManager16processBPResultsERKNS_20PxsComputeAABBParamsE
Wuc:__ZN9JSONWrite8TransferI13dynamic_arrayIiLj4EEEEvRT_PKc17TransferMetaFlags
q2j:__ZL82Material_t193706927_CustomAttributesCacheGenerator_Material_SetIntImpl_m1039479734P21CustomAttributesCache
HHd:__ZN5physx23PxsBroadPhaseContextSapD2Ev
G9b:__ZN13PlayableGraph21InvalidateMultithreadEv
tJ:__ZL16FMOD_ErrorString11FMOD_RESULT_361
q$d:__ZN5physx12SubSortQuickC2EPjPKNS_10PxBounds3VEjf
$_:__Z18ConvertUTF16toUTF8PPKtS0_PPhS2_15ConversionFlags
RCi:_GUIStyleState__ctor_m3673085649
_sh:_TypeLoadException__ctor_m1903359728
yVi:__ZL16my_g_bit_nth_msfj
HXh:_Transform_1_BeginInvoke_m3014766640_gshared
ZDe:_KeySizes__ctor_m3526899007
rhj:__ZN15dense_hashtableINSt3__24pairIK10KeyWrapperIP11Il2CppClassES4_EES5_N6il2cpp8metadata16SZArrayClassHashEN14dense_hash_mapIS5_S4_SA_NS5_14EqualsComparerINS9_19SZArrayClassCompareEEENS0_9allocatorIS7_EEE9SelectKeyESE_SG_E12expand_arrayEjN21dense_hash_map_traits17integral_constantIbLb0EEE
l3f:_Int16_System_IConvertible_ToInt32_m191782913_AdjustorThunk
x5j:__ZL69ArgumentCache_t4810721_CustomAttributesCacheGenerator_m_FloatArgumentP21CustomAttributesCache
qzg:_Collection_1_CopyTo_m1578267616_gshared
_kh:_EncoderReplacementFallback__ctor_m2208438262
xNb:__Z23SetupStereoFlareElementP11FlareVertexRK8Vector2fS3_S3_RK11ColorRGBA32RK10Matrix4x4fRK8Vector3fb
wxk:__Z91RuntimeInvoker_X509ChainStatusFlags_t480677120_RuntimeObject_RuntimeObject_SByte_t454417549PFvvEPK10MethodInfoPvPS4_
gYi:__ZN6il2cpp2vm5Class15GetInstanceSizeEPK11Il2CppClass
jFk:__Z37RuntimeInvoker_Enumerator_t3806193287PFvvEPK10MethodInfoPvPS4_
PNk:_UnmarshalledAttribute__ctor_m2832569902
$a:invoke_iiiifiiii
CZk:_RectTransform_set_anchoredPosition_m4223859262
Q1h:_Dictionary_2_CopyTo_m1495142643_gshared
wGi:_EventFunction_1_BeginInvoke_m3064802067_gshared
vXj:__ZL67IndexOutOfRangeException_t3527622107_CustomAttributesCacheGeneratorP21CustomAttributesCache
Dfd:__ZNK5physx2Sc9ClothCore16getRestPositionsEPNS_6PxVec4E
oEd:__ZN5physx20PxcSweepConvexConvexERKNS_11PxsCCDShapeES2_PKNS_12PxsRigidBodyES5_RKNS_11PxTransformES8_S8_S8_fRNS_6PxVec3ESA_RNS_10PxcNpCacheERNS_18PxcNpThreadContextEf
$8f:_Directory_GetFiles_m4036267478
nyf:_Enum_System_IConvertible_ToType_m2669300536
L0f:_NumberFormatInfo_get_CurrencyNegativePattern_m3972163809
Kid:__ZN5physx15PxsParticleDataD0Ev
qpa:__ZL19BlitFramebufferImplRN4gles23BlitFramebufferDrawQuadER9GfxDevice9TextureIDRK8Vector4f
msb:__Z18Transfer_BlittableI17RemapPPtrTransferLb0EhEvRK29SerializationCommandArgumentsR31RuntimeSerializationCommandInfo
hZd:__ZN5physx6shdfnd5ArrayIPvNS0_19ReflectionAllocatorIN17PxcPoolMallocData9PoolData8EEEE15growAndPushBackERKS2_
Zaj:__ZN15dense_hashtableINSt3__24pairIK10KeyWrapperIPK10Il2CppTypeEjEES6_N6il2cpp8metadata14Il2CppTypeHashEN14dense_hash_mapIS6_jSB_NS6_14EqualsComparerINSA_26Il2CppTypeEqualityComparerEEENS0_9allocatorIS8_EEE9SelectKeyESF_SH_E4findERS7_
wzk:__Z83RuntimeInvoker_Void_t1841601450_QuaternionU26_t4187826802_QuaternionU26_t4187826802PFvvEPK10MethodInfoPvPS4_
F$k:_StackTraceUtility_ExtractStringFromExceptionInternal_m234524721
hIg:_ReadOnlyCollection_1_System_Collections_IList_Add_m2333231354_gshared
YVj:__ZL78Convert_t2607082565_CustomAttributesCacheGenerator_Convert_ToSByte_m2470292806P21CustomAttributesCache
Pee:_UNITY_FT_List_Add
_Eh:_OpCodes__cctor_m939885911
H5b:__ZN14Texture2DArray11InitTextureEiii13TextureFormatb
aQk:_CustomYieldInstruction__ctor_m1440815618
LRg:_PKCS1_RSASP1_m1748738009
m1d:__ZN5physx15PxGeometryQuery14getWorldBoundsERKNS_10PxGeometryERKNS_11PxTransformEf
PVa:__ZN12CubemapArray21AwakeFromLoadThreadedEv
Y1j:__ZL92AnimationCurve_t3306541151_CustomAttributesCacheGenerator_AnimationCurve_Cleanup_m3596170191P21CustomAttributesCache
Sgd:__ZN5physx2Sc9ClothCore18setSolverFrequencyEf
Ywi:_UriParser_InitializeAndValidate_m251943319
Nmc:__Z26Object_Set_Custom_PropNameP12Il2CppObjectP12Il2CppString
HJe:_SymmetricAlgorithm_set_Padding_m3081984460
Qfj:__ZN15dense_hashtableINSt3__24pairIK10KeyWrapperINS1_IPK11Il2CppImageP11Il2CppClassEEEjEES9_17ReflectionMapHashIS8_EN14dense_hash_mapIS9_jSD_NS9_14EqualsComparerINS0_8equal_toIS8_EEEENS0_9allocatorISB_EEE9SelectKeyESI_SK_E14squash_deletedEv
h7a:__ZN9InputAxis8TransferI18StreamedBinaryReadILb0EEEEvRT_
DXd:__ZN5physx2Gu11HeightField8requiresERNS_23PxProcessPxBaseCallbackE
Whh:_StreamingContext_t1417235061_marshal_pinvoke_back
vBc:__ZN5physx2Gu16buildPartialHullERKNS0_13PolygonalDataEPNS0_12SupportLocalERNS0_14SeparatingAxesERKNS_6shdfnd3aos5Vec3VESC_
Aab:__Z14resize_trimmedINSt3__26vectorIN4core12basic_stringIcNS2_20StringStorageDefaultIcEEEE13stl_allocatorIS6_L18MemLabelIdentifier13ELi16EEEEEvRT_j
kgf:_ArrayList_RemoveAt_m2578928333
spb:__Z18Transfer_BlittableI14SafeBinaryReadLb0EaEvRK29SerializationCommandArgumentsR31RuntimeSerializationCommandInfo
xEi:_InvokableCall_3__ctor_m4270240248_gshared
KAk:__Z51RuntimeInvoker_Boolean_t3825574718_Rect_t3681755626PFvvEPK10MethodInfoPvPS4_
nHg:_ReadOnlyCollection_1_System_Collections_IList_set_Item_m1233322304_gshared
kxi:_GeneralNames_get_DNSNames_m2721668874
Ltk:__Z76RuntimeInvoker_Boolean_t3825574718_TimeSpan_t3430258949_TimeSpan_t3430258949PFvvEPK10MethodInfoPvPS4_
dyf:_Enum_System_IConvertible_ToByte_m38374586
XGg:_ReadOnlyCollection_1_System_Collections_Generic_IListU3CTU3E_RemoveAt_m1592158292_gshared
Jxh:_PlatformNotSupportedException__ctor_m3301654967
Pdl:_emscripten_glFrustum__wrapper
R$c:__ZNK5physx2Sc16ArticulationCore17releaseDriveCacheERNS_9PxcFsDataE
mGg:_Collection_1_System_Collections_IList_IndexOf_m277631909_gshared
FLk:__Z37RuntimeInvoker_Enumerator_t2983962278PFvvEPK10MethodInfoPvPS4_
Gvf:_Decimal_Equals_m1798565377
DF:__ZN24GenerateTypeTreeTransfer8TransferIN7mecanim8skeleton8SkeletonEEEvRT_PKc17TransferMetaFlags
xDk:__Z38RuntimeInvoker_ContentType_t1028629049PFvvEPK10MethodInfoPvPS4_
APf:_Mesh_SetListForChannel_TisVector3_t2243707580_m2854368686_gshared
bQc:__ZN5physx11NpAggregate7releaseEv
X$j:__ZL95Component_t3819376471_CustomAttributesCacheGenerator_Component_GetComponentInParent_m1617315419P21CustomAttributesCache
Fgk:__ZL66InputField_t1631627530_CustomAttributesCacheGenerator_m_CaretColorP21CustomAttributesCache
_$d:__ZN5physx6shdfnd7PAUtilsD2Ev
NBh:_TypeBuilder_check_created_m2929267877
jwk:__Z121RuntimeInvoker_Int64_t909078037_Int32_t2071877448_Int32_t2071877448_Int32_t2071877448_Int32_t2071877448_Int32_t2071877448PFvvEPK10MethodInfoPvPS4_
JLb:__Z20SyncFenceCullResultsR11CullResults
Cra:__ZN15TextureTFMethod20IsBoneCountSupportedEi
Ddh:_ObjRef__ctor_m1486312270
msf:_DateTime_System_IConvertible_ToSByte_m2575078084_AdjustorThunk
Mtb:__Z22TransferField_NonArrayI17RemapPPtrTransfer27Converter_SimpleNativeClassI8GUIStyleEEvRK23StaticTransferFieldInfoR31RuntimeSerializationCommandInfoRT0_
rbd:__ZN5physx7NpShape12setMaterialsEPKPNS_10PxMaterialEt
_3b:__ZNK17AnimationCurveTplIfE20EvaluateWithoutCacheEfRf
quj:__ZN6il2cpp2os6Thread12QueueUserAPCEPFvPvES2_
Qkh:_EncoderExceptionFallback_Equals_m762170768
uQa:__ZN19ShaderPropertySheet10SetTextureERK23FastTexturePropertyNameP7Texture
AEf:_Array_InternalArray__IEnumerable_GetEnumerator_TisDictionaryEntry_t3048875398_m3498834924_gshared
$Ag:_Collection_1_IsValidItem_m1304951912_gshared
Fbc:__ZN4Mesh10SetNormalsEPK8Vector3fj
TIh:_PropertyInfo__ctor_m1808219471
Aof:_Convert_ToDateTime_m4161927553
TBh:_TypeBuilder_GetConstructors_m774120094
ws:__ZN17AnimationCurveTplIfE8TransferI14SafeBinaryReadEEvRT_
dNj:__ZL72AssemblyDefaultAliasAttribute_t1774139159_CustomAttributesCacheGeneratorP21CustomAttributesCache
Rqk:__Z75RuntimeInvoker_Boolean_t3825574718_RuntimeObject_MonoIOErrorU26_t1029615899PFvvEPK10MethodInfoPvPS4_
M3k:_Physics_Raycast_m3112010924
rvi:_RegularExpression_set_GroupCount_m2991393456
aLc:__ZN5physx2Gu9RadixSortD2Ev
Bsf:_Calendar_get_EraNames_m452820602
$_a:__ZNSt3__26vectorIN15QualitySettings14QualitySettingENS_9allocatorIS2_EEE6assignIPS2_EENS_9enable_ifIXaasr21__is_forward_iteratorIT_EE5valuesr16is_constructibleIS2_NS_15iterator_traitsIS9_E9referenceEEE5valueEvE4typeES9_S9_
Ywa:__ZNK5Unity9Component10GetEnabledEv
ZIc:__Z15raycast_capsuleRKN5physx10PxGeometryERKNS_11PxTransformERKNS_6PxVec3ES8_fNS_7PxFlagsINS_9PxHitFlag4EnumEtEEjPNS_12PxRaycastHitEbPFbRSD_PvESG_
mMb:__ZNK19ShaderPropertySheet11HasPropertyERKN9ShaderLab16FastPropertyNameE
Zrf:_DateTime_System_IConvertible_ToByte_m2670443498_AdjustorThunk
Bhd:__ZNK5physx15NpActorTemplateINS_15PxParticleFluidEE14getOwnerClientEv
iZh:_ValueCollection_System_Collections_Generic_ICollectionU3CTValueU3E_Contains_m3650367146_gshared
Efk:__ZL58FontData_t2614388407_CustomAttributesCacheGenerator_m_FontP21CustomAttributesCache
x6i:_il2cpp_class_get_image
p3:__Z16AsyncReadRequestP16AsyncReadCommand
FYj:__ZL81BigInteger_t925946153_CustomAttributesCacheGenerator_BigInteger__ctor_m4013661868P21CustomAttributesCache
vXi:__ZNK15dense_hashtableINSt3__24pairIK10KeyWrapperIPK22Il2CppGenericParameterEP11Il2CppClassEES6_N6il2cpp5utils11PointerHashIS4_EEN14dense_hash_mapIS6_S9_SE_NS6_14EqualsComparerINS0_8equal_toIS5_EEEENS0_9allocatorISA_EEE9SelectKeyESJ_SL_E12test_deletedEj
rSd:__ZNK5physx34PxsSolverConstraintPostProcessTask7getNameEv
CPg:_BigInteger_op_Addition_m1734797151
FCc:__ZN5physx2Gu23distancePointBoxSquaredERKNS_6PxVec3ES3_S3_RKNS_7PxMat33EPS1_
o8d:__ZN5physx9NpPhysics20MeshDeletionListener28onGuMeshFactoryBufferReleaseEPKNS_6PxBaseEtb
Yzg:_Collection_1_System_Collections_IList_set_Item_m3488446830_gshared
mCh:_EnumBuilder_CreateNotSupportedException_m62763134
VBe:__ZNK12HeaderHelper3GetERKN4core12basic_stringIcNS0_20StringStorageDefaultIcEEEE
$5g:_X509Chain_CheckRevocation_m2480313486
HGe:_RijndaelManagedTransform_TransformBlock_m2558865851
uAg:_Collection_1_System_Collections_Generic_ICollectionU3CTU3E_get_IsReadOnly_m4096071066_gshared
_6a:__ZN9InputAxis8TransferI14SafeBinaryReadEEvRT_
k0:__ZNK21ExecutionOrderManager30GetCustomAwakeFromLoadQueueForEPKN5Unity4TypeE
Nsd:__ZNK5physx7NpScene9getActorsENS_7PxFlagsINS_15PxActorTypeFlag4EnumEtEEPPNS_7PxActorEjj
vBe:__Z27RegisterModule_UnityConnectv
olg:_Enumerator_Dispose_m3717265706_AdjustorThunk
zkd:__ZN5physx15PxParticleFluidD0Ev
DAd:__ZN5physx11NodeManagerD0Ev
BJh:_ParameterInfo_get_IsRetval_m1881464570
ceh:_RealProxy__ctor_m3041043303
i4f:_NumberFormatter_Init_m2654758994
iFe:_HMACSHA1__ctor_m1168389339
FQc:__ZNK5physx2Sc8BodyCore6getSimEv
WM:__ZN10ObjectPoolIN4FMOD12ChannelGroupENS0_13ChannelGroupIEE7SetSizeEi
nVf:_PrimalityTest_BeginInvoke_m966469054
hOk:_Bounds_get_max_m1939845278_AdjustorThunk
kKg:_ReadOnlyCollection_1_System_Collections_Generic_ICollectionU3CTU3E_Clear_m1785953911_gshared
Wvh:_UInt64_System_IConvertible_ToInt16_m2797150165_AdjustorThunk
nQf:_Array_InternalArray__get_Item_TisLabelData_t3712112744_m863115768_gshared
Y5f:_Int32_Parse_m753946802
_9j:__ZL113GUITargetAttribute_t863467180_CustomAttributesCacheGenerator_GUITargetAttribute_GetGUITargetAttrValue_m3706077059P21CustomAttributesCache
KW:__Z22ValidateTlsfAllocationPvjiS_
HMi:_AudioConfigurationChangeHandler_Invoke_m653824108
xad:__ZN5physx2Cm12RefCountable14onRefCountZeroEv
_ug:_List_1_RemoveAt_m2331128844_gshared
Wfj:__ZN14dense_hash_mapI10KeyWrapperINSt3__24pairIPK9EventInfoP11Il2CppClassEEEj17ReflectionMapHashIS8_ENS9_14EqualsComparerINS1_8equal_toIS8_EEEENS1_9allocatorINS2_IKS9_jEEEEE15set_deleted_keyERSH_
bGh:_UnmanagedMarshal_ToMarshalAsAttribute_m3695569337
Ndd:__ZNK5physx7NpCloth25getMotionConstraintConfigEv
crb:__Z14resize_trimmedINSt3__26vectorI17AnimationCurveTplIfE13stl_allocatorIS3_L18MemLabelIdentifier1ELi16EEEEEvRT_j
gXb:__ZN25CameraStackRenderingState19SetupLastEyeCamerasERK11CameraStack
vDa:__Z12GUIDToStringRK9UnityGUID
M7e:_LayoutElement_get_minHeight_m2070403283
Nrj:__ZN6il2cpp6icalls8mscorlib6System4Enum12get_hashcodeEP12Il2CppObject
WI:__ZN11SoundHandleC2ERKS_
my:__ZN17AnimationPlayableC2E18DirectorPlayerType
ERg:_RSASslSignatureFormatter__ctor_m2530528184
_0i:__ZNK6il2cpp5utils11collections13ArrayValueMapIPK10Il2CppType17Il2CppInteropData26InteropDataToTypeConverterNS_8metadata14Il2CppTypeLessENS8_26Il2CppTypeEqualityComparerEE10find_firstERKS5_
vMa:__ZN15SerializeTraitsI12fixed_bitsetILi24EjEE8TransferI18StreamedBinaryReadILb0EEEEvRS1_RT_
Zrd:__ZThn8_N5physx2Sc24ElementInteractionMarker7destroyEv
UUf:_BigInteger_op_Addition_m1196561843
OAb:__ZN11Quaternionf8TransferI18StreamedBinaryReadILb1EEEEvRT_
e$b:__Z29StdTemplateConversionFunctionItxEbPvR14SafeBinaryRead
IUi:_CanvasRenderer_INTERNAL_CALL_GetColor_m3192682614
Goi:_FormatterData__ctor_m3974986124
TLj:__ZL64FileNotFoundException_t4200667904_CustomAttributesCacheGeneratorP21CustomAttributesCache
GGe:_RijndaelManagedTransform_get_CanReuseTransform_m3735256596
v0j:__ZL97GameObject_t1756533147_CustomAttributesCacheGenerator_GameObject_GetComponentInParent_m1178052983P21CustomAttributesCache
PKc:__ZN5physx3Cct26CharacterControllerManager24setOverlapRecoveryModuleEb
mjf:_Comparer__cctor_m1327316974
W8f:_MonoIO_ExistsFile_m1421941572
Ltf:_DateTime_op_GreaterThanOrEqual_m3818963848
nw:__ZN17AnimationPlayable18DeallocateBindingsEv
PYb:__ZN6Camera25StandaloneRenderToCubemapEP7TextureiPFvPK9SceneNodePK4AABBR9IndexListPvESA_j
G_e:_DefaultControls_SetDefaultTextValues_m1707718380
HWe:_TouchInputModule_UseFakeInput_m2112019004
GSe:_EventSystem_get_baseEventDataCache_m4294741599
s9k:___cxa_guard_release
iQa:__ZN14RenderSettings18TransferDeprecatedI14SafeBinaryReadEEvRT_
tEc:__ZN24ConvexVsHeightfieldSweepD0Ev
hYk:_Rect_get_center_m2903917731_AdjustorThunk
mY:__ZN12TLSAllocatorI14StackAllocatorE8AllocateEji
k1:__ZN16ScriptingManager18GetMonoScriptCacheEi
fok:__Z62RuntimeInvoker_Void_t1841601450_RuntimeObject_Int64_t909078037PFvvEPK10MethodInfoPvPS4_
_3j:__ZL104RectTransform_t3349966182_CustomAttributesCacheGenerator_RectTransform_INTERNAL_get_anchorMax_m190830848P21CustomAttributesCache
nZi:__ZN15dense_hashtableINSt3__24pairIK10KeyWrapperIPK11Il2CppClassEPKcEES6_N6il2cpp5utils11PointerHashIS3_EEN14dense_hash_mapIS6_S9_SE_NS6_14EqualsComparerINS0_8equal_toIS5_EEEENS0_9allocatorISA_EEE9SelectKeyESJ_SL_E15set_deleted_keyERKSA_
N2e:_GridLayoutGroup_CalculateLayoutInputHorizontal_m2355123124
D_j:__ZL84Locale_t4255929017_CustomAttributesCacheGenerator_Locale_GetText_m512920887____args1P21CustomAttributesCache
zpb:__Z18Transfer_BlittableI14SafeBinaryReadLb1EyEvRK29SerializationCommandArgumentsR31RuntimeSerializationCommandInfo
I6j:__ZL89U3CInvokeMessageIdSubscribersU3Ec__AnonStorey0_t1899782350_CustomAttributesCacheGeneratorP21CustomAttributesCache
Src:__ZN8JSONRead8TransferIfEEvRT_PKc17TransferMetaFlagsb
xEh:_ModuleBuilder_GetTypes_m93550753
cLg:_ReadOnlyCollection_1_System_Collections_ICollection_get_IsSynchronized_m4063596282_gshared
$bf:__ZN21InterfaceFuncInvoker2IP12Il2CppObjectP6Type_tS1_E6InvokeEjP11Il2CppClassS1_S3_S1_
s8k:__ZNSt3__212basic_stringIcNS_11char_traitsIcEENS_9allocatorIcEEE6appendEPKcj
OMj:__ZL54TypeBuilder_t3308873219_CustomAttributesCacheGeneratorP21CustomAttributesCache
yed:__ZN5physx7NpCloth25setSelfCollisionStiffnessEf
WDd:__ZZN5physx28PxcSweepEstimateAnyShapeMeshERKNS_11PxsCCDShapeES2_PKNS_12PxsRigidBodyES5_RKNS_11PxTransformES8_fEN2CBD0Ev
OBg:_Collection_1_CheckWritable_m691269733_gshared
BLk:__Z54RuntimeInvoker_Void_t1841601450_IntPtr_t_RuntimeObjectPFvvEPK10MethodInfoPvPS4_
QCh:_GenericTypeParameterBuilder_GetAttributeFlagsImpl_m3338182267
lR:__ZN13Simd4iFactoryIN6detail9FourTupleEEC2Eiiii
pdg:_SynchronizedReader__ctor_m1408327515
pAi:_X509Store_LoadCrl_m1146720614
oHk:__Z59RuntimeInvoker_Int32_t2071877448_KeyValuePair_2_t3749587448PFvvEPK10MethodInfoPvPS4_
cMg:_ReadOnlyCollection_1_System_Collections_IList_Clear_m1858417639_gshared
Tkf:_Slot_t2022531261_marshal_pinvoke_cleanup
qFi:_UnityAction_3_Invoke_m1025098032_gshared
QYa:__ZN15SerializeTraitsI33EnlightenTerrainChunksInformationE8TransferI14SafeBinaryReadEEvRS0_RT_
n8c:__ZN5physx2Sc14ConstraintCoreD2Ev
wTi:_Predicate_1__ctor_m1567825400_gshared
u6b:__ZNK32RendererMaterialAnimationBinding9BindValueER6ObjectRKN11UnityEngine9Animation14GenericBindingERNS3_10BoundCurveE
m5c:__ZN5physx15NpActorTemplateINS_18PxArticulationLinkEE13setActorFlagsENS_7PxFlagsINS_11PxActorFlag4EnumEtEE
pVa:__Z13GetIAnimationv
rka:__ZL18stbir__support_onef
RYd:__ZN5physx6shdfnd8internal8HashBaseIPNS_11PxAggregateES4_NS0_4HashIS4_EENS1_11HashSetBaseIS4_S6_NS0_9AllocatorELb0EE6GetKeyES8_Lb0EE15reserveInternalEj
Oog:_List_1_System_Collections_IList_Remove_m2040310137_gshared
lOk:_Bounds_SetMinMax_m2094075031_AdjustorThunk
iri:_Match_get_Regex_m3526002767
cMj:__ZL49Stream_t3255436806_CustomAttributesCacheGeneratorP21CustomAttributesCache
Dtc:__Z26Transfer_UnityEngineObjectI9JSONWriteLb0EEvRK29SerializationCommandArgumentsR31RuntimeSerializationCommandInfo
LTa:__ZNSt3__26vectorIN4core12basic_stringIcNS1_20StringStorageDefaultIcEEEE13stl_allocatorIS5_L18MemLabelIdentifier1ELi16EEE6assignINS_11__wrap_iterIPS5_EEEENS_9enable_ifIXaasr21__is_forward_iteratorIT_EE5valuesr16is_constructibleIS5_NS_15iterator_traitsISF_E9referenceEEE5valueEvE4typeESF_SF_
bvh:_UInt32_System_IConvertible_ToInt16_m2251335934_AdjustorThunk
Lse:__ZNSt3__27__sort5IRNS_6__lessIN2UI14DepthSortEntryES3_EEPS3_EEjT0_S7_S7_S7_S7_T_
uee:_UNITY_FT_DivFix
Icj:__ZNSt3__218uninitialized_copyIPNS_4pairIK10KeyWrapperINS1_IPK11Il2CppImageP11Il2CppClassEEEjEESC_EET0_T_SE_SD_
Ia:invoke_vdd
l9:__ZN14dense_hash_mapIN4core12basic_stringIcNS0_20StringStorageDefaultIcEEEE13dynamic_arrayI4PPtrI6SpriteELj4EE20StringHash32FunctionIS4_ENSt3__28equal_toIS4_EE13stl_allocatorINSC_4pairIKS4_S9_EEL18MemLabelIdentifier81ELi16EEE15set_deleted_keyERSH_
Pei:_InternalEnumerator_1_Dispose_m3838127340_AdjustorThunk
sF:__ZN14SafeBinaryRead21TransferSTLStyleArrayI19StaticArrayTransferIiLi15EEEEvRT_17TransferMetaFlags
wdk:__ZL89PointerEventData_t1599784723_CustomAttributesCacheGenerator_U3CdraggingU3Ek__BackingFieldP21CustomAttributesCache
K4b:__ZNK30SpriteRendererAnimationBinding12GetPPtrValueERKN11UnityEngine9Animation10BoundCurveE
Aqe:__ZZ29InitializeTextRenderingModulevEN27cleanupAfterLoadRegistrator7ForwardEv
Gqh:_Scheduler_Add_m376749205
Mx:__ZN27AnimationLayerMixerPlayable24ProcessAnimationLayerMixEP33AnimationPlayableEvaluationOutputP35AnimationPlayableEvaluationConstantP32AnimationPlayableEvaluationInputS1_if
oDj:__ZN6il2cpp6icalls8mscorlib4Mono8Security12Cryptography18KeyPairPersistence19_IsMachineProtectedEP12Il2CppString
TWb:__Z29PluginsIssueRenderingExtEvent26UnityRenderingExtEventTypePv
T2i:_WebRequestUtils_RedirectTo_m675215376
v5b:__Z14RandomRotationP9Texture2DPhiiii
rig:_OutOfMemoryException__ctor_m1932883273
rdi:_InternalEnumerator_1_MoveNext_m1594563423_AdjustorThunk
m$e:_OptionDataList__ctor_m613113846
Bsg:_List_1_System_Collections_IList_Insert_m2036969360_gshared
n6e:_InputField_GetUnclampedCharacterLineFromPosition_m1912794077
ktd:__ZN5physx7NpScene27setCCDContactModifyCallbackEPNS_26PxCCDContactModifyCallbackE
rag:_ReadDelegate__ctor_m885671467
UZd:__ZNK5physx17ConvexHullBuilder17ComputeGeomCenterERNS_6PxVec3E
huf:_DateTimeOffset_ToString_m2121173678_AdjustorThunk
aZj:__ZL50X509Crl_t1699034837_CustomAttributesCacheGeneratorP21CustomAttributesCache
Zvk:__Z74RuntimeInvoker_RuntimeObject_RuntimeObject_Int16_t4041245914_RuntimeObjectPFvvEPK10MethodInfoPvPS4_
hId:__ZN3MBPD0Ev
Hj:_JS_WebRequest_SetResponseHandler
Ujl:_glDeleteProgram__wrapper
bhc:__Z50Register_UnityEngine_Camera_INTERNAL_get_pixelRectv
Ala:__ZN6prcoreL18BlitFloatToIntegerERK14ImageReferenceRS0_
N_f:_X509CertificateCollection_get_Item_m410866272
qwd:__ZNK5physx10PxsContext18getBounceThresholdEv
CNb:__Z13GetIPhysics2Dv
BU:__ZN11UnityEngine15CloudWebService14RestDownloader17OnCompleteContentEv
f3e:_LayoutGroup_SetChildAlongAxis_m1615929339
bwk:__Z75RuntimeInvoker_RuntimeObject_RuntimeObject_Double_t4078015681_RuntimeObjectPFvvEPK10MethodInfoPvPS4_
pvk:__Z200RuntimeInvoker_Boolean_t3825574718_RuntimeObject_RuntimeObject_RuntimeObject_Int32_t2071877448_DateTimeU26_t3448131235_SByte_t454417549_BooleanU26_t3168250738_SByte_t454417549_ExceptionU26_t1467204777PFvvEPK10MethodInfoPvPS4_
trd:__ZN5physx6shdfnd5ArrayIPvNS0_15InlineAllocatorILj256ENS0_19ReflectionAllocatorINS_2Gu31SpherePersistentContactManifoldEEEEEE15growAndPushBackERKS2_
zUd:__ZN5physx2Cm18DelegateFanoutTaskINS_2Sc5SceneEXadL_ZNS3_17finalizationPhaseEPNS_10PxBaseTaskEEEE11runInternalEv
dF:__ZN6Avatar8TransferI14SafeBinaryReadEEvRT_
Iz:__ZN17AnimationPlayable28UpdateInternalStateRecursiveILi1ELb0EEEvPK35AnimationPlayableEvaluationConstant
mqj:__ZN6il2cpp2gcL10CleanupCCWEPvS1_
wvg:_List_1_System_Collections_ICollection_get_SyncRoot_m1429670979_gshared
bb:invoke_vifff
aic:__Z41Register_UnityEngine_GameObject_set_layerv
R7h:_InternalEnumerator_1__ctor_m2111763266_gshared
yjc:__Z53Register_UnityEngine_Input_INTERNAL_get_mousePositionv
yid:__ZN5physx15NpParticleFluid15exportExtraDataERNS_22PxSerializationContextE
vil:_glGetVertexAttribiv__wrapper
g4c:__ZN5physx6shdfnd15atomicDecrementEPVi
nf:_emscripten_request_fullscreen
tUd:__ZN5physx2Cm12DelegateTaskINS_2Sc5SceneEXadL_ZNS3_11postCCDPassEPNS_10PxBaseTaskEEEED0Ev
PQi:__ZL25UnresolvedVirtualCall_212P12Il2CppObjecti40CustomAttributeTypedArgument_t1498197914PK10MethodInfo
gGb:__ZN20LocalFileSystemWebGL6DeleteER13FileEntryDatab
svf:_Decimal_System_IConvertible_ToUInt16_m1621568250
pf:_emscripten_glDisableVertexAttribArray
ao:FUNCTION_TABLE_iiiifiiii
Arh:_TimeSpan_get_TotalMinutes_m1645177229_AdjustorThunk
vc:invoke_fifffi
xYh:_Enumerator__ctor_m3539306986_gshared
Wha:__ZN4gles23ClearCurrentFramebufferEP7ApiGLESbbbRK10ColorRGBAffi
gy:__ZN7mecanim12statemachine20CreateStateWorkspaceEjjjRNS_6memory9AllocatorE
bWf:__ZN21InterfaceFuncInvoker3IP22ByteU5BU5D_t3397334013S1_iiE6InvokeEjP11Il2CppClassP12Il2CppObjectS1_ii
Q8h:_InternalEnumerator_1_System_Collections_IEnumerator_get_Current_m3680087284_gshared
AZd:__ZN5physx2Gu11HeightField13releaseMemoryEb
Af:_emscripten_glDeleteObjectARB
ug:_IMG_Load
feg:_UnexceptionalStreamReader_Read_m3839775235
Qma:__ZN6prcoreL27StretchGenericFloatBilinearI18TexFormatARGBFloatEEvPKNS_9InnerInfoE
Qlc:__Z53Register_UnityEngine_RenderTexture_Internal_GetHeightv
hRf:_Dropdown_GetOrAddComponent_TisRuntimeObject_m2875934266_gshared
qeh:_RealProxy_SetTargetDomain_m3940877656
Bma:__ZN6prcoreL17RemapGenericFloatI17TexFormatRGBAHalf18TexFormatARGBFloatEEvPKNS_9InnerInfoE
jyf:_Enum_System_IConvertible_ToInt32_m2459904362
ewk:__Z61RuntimeInvoker_RuntimeObject_Double_t4078015681_RuntimeObjectPFvvEPK10MethodInfoPvPS4_
tdc:__ZN10systeminfo21SupportsAccelerometerEv
bpc:__Z14GetBuiltinSkini
BSg:_ContentInfo__ctor_m3871771681
CRe:_BaseInput_set_compositionCursorPos_m2632248731
NKi:_Enumerator_System_Collections_IEnumerator_Reset_m2573763156_gshared
XIk:__Z74RuntimeInvoker_Void_t1841601450_Int32_t2071877448_MonoResource_t3127387157PFvvEPK10MethodInfoPvPS4_
mgg:_MonoType_GetConstructors_internal_m2709619723
jMe:_WindowsIdentity_Dispose_m2649088337
okb:__ZN2UI13RectTransform23VirtualRedirectTransferER14SafeBinaryRead
Gab:__ZN24GenerateTypeTreeTransfer8TransferINSt3__26vectorIN4core12basic_stringIcNS3_20StringStorageDefaultIcEEEE13stl_allocatorIS7_L18MemLabelIdentifier13ELi16EEEEEEvRT_PKc17TransferMetaFlags
Vtd:__ZN5physx7NpScene17flushQueryUpdatesEv
wgg:_MonoType_GetMethodImpl_m593754598
amg:_List_1_System_Collections_ICollection_get_SyncRoot_m3733894943_gshared
lrg:_List_1_Reverse_m302978607_gshared
Agb:__ZNSt3__26vectorIN9ShaderLab20SerializedSubProgramENS_9allocatorIS2_EEE6assignIPS2_EENS_9enable_ifIXaasr21__is_forward_iteratorIT_EE5valuesr16is_constructibleIS2_NS_15iterator_traitsIS9_E9referenceEEE5valueEvE4typeES9_S9_
Pvc:__Z18Transfer_BlittableI8JSONReadLb0E8BitFieldEvRK29SerializationCommandArgumentsR31RuntimeSerializationCommandInfo
kfh:_SoapServices_RegisterInteropXmlType_m2949236705
zbj:__ZNK15dense_hashtableINSt3__24pairIK10KeyWrapperIPK10Il2CppTypeEjEES6_N6il2cpp8metadata14Il2CppTypeHashEN14dense_hash_mapIS6_jSB_NS6_14EqualsComparerINSA_26Il2CppTypeEqualityComparerEEENS0_9allocatorIS8_EEE9SelectKeyESF_SH_E10test_emptyERK24dense_hashtable_iteratorIS8_S6_SB_SJ_SF_SH_E
wzb:__ZL17Transfer_GUIStyleI18StreamedBinaryReadILb1EELb0EEvRK29SerializationCommandArgumentsR31RuntimeSerializationCommandInfo
nQe:_String_CharCopy_m2550399897
jae:__ZN12PhysXRaycast15InitializeClassEv
Rwk:__Z234RuntimeInvoker_RuntimeObject_Int16_t4041245914_RuntimeObject_Int32_t2071877448_Int32_t2071877448_Int32_t2071877448_SByte_t454417549_SByte_t454417549_SByte_t454417549_SByte_t454417549_Int16_t4041245914_SByte_t454417549_SByte_t454417549PFvvEPK10MethodInfoPvPS4_
lud:__ZN5physx7NpScene10unlockReadEv
Geb:__ZN9ShaderLab14SerializedPass8TransferI14SafeBinaryReadEEvRT_
Vpc:__Z71Register_UnityEngine_GUILayoutUtility_INTERNAL_CALL_Internal_MoveWindowv
tP:__ZN12AudioManager16SetListenerPauseEb
xab:__ZNSt3__26vectorIN30RuntimeInitializeOnLoadManager9ClassInfoE13stl_allocatorIS2_L18MemLabelIdentifier13ELi16EEE6assignINS_11__wrap_iterIPS2_EEEENS_9enable_ifIXaasr21__is_forward_iteratorIT_EE5valuesr16is_constructibleIS2_NS_15iterator_traitsISC_E9referenceEEE5valueEvE4typeESC_SC_
Ekj:__ZN6il2cpp2vm9Exception25RaiseOutOfMemoryExceptionERKNS_5utils10StringViewIDsEE
oAg:_Collection_1_IsValidItem_m2254106115_gshared
aCh:_TypeBuilder_GetEvent_m3876348075
BRh:_Slider_OnMove_m641164662
fa:invoke_viiiiiiiiiii
U4k:___syscall_ret
Jqh:_Scheduler__ctor_m3716265742
SXf:_MACAlgorithm_Final_m4076939925
n8i:__ZNSt3__212basic_stringIcNS_11char_traitsIcEENS_9allocatorIcEEE6assignINS_11__wrap_iterIPKcEEEENS_9enable_ifIXaasr21__is_forward_iteratorIT_EE5valuesr38__libcpp_string_gets_noexcept_iteratorISC_EE5valueERS5_E4typeESC_SC_
mYg:_TlsServerKeyExchange_ProcessAsSsl3_m462106368
e1a:__ZN11ChannelInfo8TransferI19StreamedBinaryWriteILb0EEEEvRT_
w8h:_InternalEnumerator_1_System_Collections_IEnumerator_get_Current_m3583252352_gshared
B3k:_Physics_Raycast_m4094847631
_Vk:_Object_op_Implicit_m1757773010
DBh:_EnumBuilder_get_FullName_m2818393911
Pfd:__ZN5physx2Sc9ClothCore22setFrictionCoefficientEf
mOb:__ZN14qsort_internal13Partition3WayIP17RODataReplacementi19ROSorterReplacementEENSt3__24pairIT_S6_EES6_S6_T0_T1_
N9c:__ZNK5physx9NpPhysics17getNbConvexMeshesEv
ocg:_StreamAsyncResult_get_Done_m2858832609
Itd:__ZNK5physx7NpScene29getContactCorrelationDistanceEv
kic:__Z34Register_UnityEngine_Gradient_Initv
OHi:_ObjectPool_1_set_countAll_m1742773675_gshared
Ihh:_SerializationEntry_get_Value_m1628109884_AdjustorThunk
dSe:_BaseInputModule_GetAxisEventData_m3903709281
EQf:_Array_InternalArray__get_Item_TisUriScheme_t1876590943_m1821482697_gshared
FOg:_BigInteger__ctor_m3239748086
yNc:__ZN5physx3Ext5JointINS_9PxD6JointENS_24PxD6JointGeneratedValuesEE13onOriginShiftERKNS_6PxVec3E
WNi:__ZL24UnresolvedVirtualCall_57P12Il2CppObjectiPK10MethodInfo
W_k:_HitInfo_SendMessage_m3395411273
nWj:__ZL79Convert_t2607082565_CustomAttributesCacheGenerator_Convert_ToUInt16_m1043031438P21CustomAttributesCache
Sx:__ZN7mecanim5human25HumanPoseAddOverrideLayerERNS0_9HumanPoseERKS1_fRKNS_6bitsetILj70EEE
U3b:__ZN13ProduceHelperI9TransformLb0EE7ProduceE18MemLabelIdentifier18ObjectCreationMode
fRi:__ZL25UnresolvedVirtualCall_230P12Il2CppObject19Vector3_t2243707580PK10MethodInfo
tMc:__ZN5physx6shdfnd8SyncImpl4waitEj
Gwk:__Z42RuntimeInvoker_AlertDescription_t844791462PFvvEPK10MethodInfoPvPS4_
Nti:_Alternation_get_Alternatives_m1445219249
Qdk:__ZL98PointerEventData_t1599784723_CustomAttributesCacheGenerator_PointerEventData_get_delta_m1072163964P21CustomAttributesCache
t2h:_DefaultComparer_GetHashCode_m2506382068_gshared
$5h:_EqualityComparer_1_System_Collections_IEqualityComparer_GetHashCode_m1012273405_gshared
WIf:_Array_InternalArray__ICollection_Add_TisHitInfo_t1761367055_m2956071622_gshared
jfi:_InternalEnumerator_1_MoveNext_m470170271_AdjustorThunk
yEa:__ZN10GameObject23VirtualRedirectTransferER18StreamedBinaryReadILb0EE
Ljg:_Enumerator_get_Current_m2577424081_gshared
fii:_InternalEnumerator_1_Dispose_m2270401482_AdjustorThunk
zgg:_MonoType_HasElementTypeImpl_m1040892148
Rg:_glFrontFace
hhh:_ObjectRecord_get_IsUnsolvedObjectReference_m2202692850
C8g:_FactoryCache_Cleanup_m4130035987
kpi:__ZN23InterfaceActionInvoker1IP18Context_t502196753E6InvokeEjP11Il2CppClassP12Il2CppObjectS1_
ZZk:_Vector2_op_Addition_m4229571528
M0i:__ZNK15dense_hashtableINSt3__24pairIK10KeyWrapperIPK19Il2CppGenericMethodEPK26Il2CppGenericMethodIndicesEES6_N6il2cpp8metadata23Il2CppGenericMethodHashEN14dense_hash_mapIS6_SA_SE_NS6_14EqualsComparerINSD_26Il2CppGenericMethodCompareEEENS0_9allocatorISB_EEE9SelectKeyESI_SK_E12test_deletedEj
T2b:__ZN13ProduceHelperI19LowerResBlitTextureLb0EE7ProduceE18MemLabelIdentifier18ObjectCreationMode
Avd:__ZN5physx13NpVolumeCache17getNbCachedShapesEv
nTb:__ZNSt3__26vectorI16ShadowCasterData13stl_allocatorIS1_L18MemLabelIdentifier2ELi16EEE21__push_back_slow_pathIKS1_EEvRT_
Fvh:_UInt32_ToString_m1783596809
Zvg:_List_1_Sort_m269561757_gshared
lgl:_glUniform1i__wrapper
hre:__Z51Register_UnityEngine_TextGenerator_GetLinesInternalv
gLi:_HashSet_1_Init_m1258286688_gshared
Lzi:_X509ExtensionCollection_get_Item_m4212651995
nIg:_ReadOnlyCollection_1_System_Collections_IList_RemoveAt_m525136953_gshared
mGf:__ZN21InterfaceFuncInvoker1Ii19Vector4_t2243707581E6InvokeEjP11Il2CppClassP12Il2CppObjectS0_
Sla:__ZN6prcoreL17RemapGenericFloatI17TexFormatRGBFloat18TexFormatRGBAFloatEEvPKNS_9InnerInfoE
bxd:__ZN5physx2Sc5Scene15getRenderBufferEv
qQi:__ZL25UnresolvedVirtualCall_187P12Il2CppObject20TimeSpan_t3430258949S1_PK10MethodInfo
Kvh:_UInt64_System_IConvertible_ToBoolean_m3012279573_AdjustorThunk
zth:_Type_get_IsGenericTypeDefinition_m2147901038
slb:__ZN12HandlerChain10ToAbsoluteEPKc
Hpi:_ContextAttribute_Freeze_m4133346275
Wpk:__Z34RuntimeInvoker_DateTime_t693205669PFvvEPK10MethodInfoPvPS4_
u0f:_GregorianCalendar__ctor_m3794576475
Avh:_UInt32_TryParse_m4283512434
z0k:_TrackedReference_GetHashCode_m1278837032
Roj:__ZN15dense_hashtableI10KeyWrapperIP18Il2CppGenericClassES3_N6il2cpp8metadata22Il2CppGenericClassHashEN14dense_hash_setIS3_S6_NS3_14EqualsComparerINS5_25Il2CppGenericClassCompareEEENSt3__29allocatorIS3_EEE8IdentityESA_SD_E8min_sizeEjj
bEb:__ZN13MonoBehaviour23VirtualRedirectTransferER19StreamedBinaryWriteILb0EE
NI:__ZN9AudioClip11CreateSoundEv
dWh:_ShimEnumerator_MoveNext_m3313047792_gshared
aBg:_Collection_1_ConvertItem_m2185647560_gshared
fsh:_TimeSpan_op_Inequality_m257547441
igj:__ZN14dense_hash_mapI10KeyWrapperINSt3__24pairIPK9FieldInfoP11Il2CppClassEEEj17ReflectionMapHashIS8_ENS9_14EqualsComparerINS1_8equal_toIS8_EEEENS1_9allocatorINS2_IKS9_jEEEEEC2EjRKSB_RKSF_
Kbj:__ZNK15dense_hashtableINSt3__24pairIK10KeyWrapperINS1_IPK10MethodInfoP11Il2CppClassEEEjEES9_17ReflectionMapHashIS8_EN14dense_hash_mapIS9_jSD_NS9_14EqualsComparerINS0_8equal_toIS8_EEEENS0_9allocatorISB_EEE9SelectKeyESI_SK_E13find_positionERSA_
vBh:_EnumBuilder_get_Assembly_m4285228003
vwb:__Z18Transfer_BlittableI19StreamedBinaryWriteILb0EELb0E8Vector2fEvRK29SerializationCommandArgumentsR31RuntimeSerializationCommandInfo
sof:_DateTimeFormatInfo_get_RoundtripPattern_m562440017
IAe:__ZN11UnityEngine7Connect16PersistentValues13RestoreValuesER8JSONRead
SGi:_U3CStartU3Ec__Iterator0_System_Collections_Generic_IEnumeratorU3CobjectU3E_get_Current_m1702093362_gshared
QBa:__ZN20ArchiveStorageReader31TryToReadDirectoryFromBlockDataEyPKvj
s3h:_DefaultComparer__ctor_m3947565964_gshared
ixf:_Double_System_IConvertible_ToByte_m3004284950_AdjustorThunk
ofh:_TypeEntry_get_AssemblyName_m1762285107
MPd:__ZNK5physx2Gu11HeightField17getHeightInternalEff
Umj:__ZN6il2cpp2vmL11GetIdentityEP14Il2CppIUnknown
rXf:_SmallXmlParser_ReadCDATASection_m2558307107
izj:_GC_push_gc_structures
ILi:_PCMReaderCallback_BeginInvoke_m2451387560
oXe:_AspectRatioFitter_get_aspectRatio_m3023618874
L1g:_ServicePointManager_get_ServerCertificateValidationCallback_m1409951209
sad:__ZN5physx9NpFactory14createMaterialEfff
Kyc:__ZNK5physx3Cct13BoxController8getStatsERNS_17PxControllerStatsE
Iej:__ZN15dense_hashtableINSt3__24pairIK10KeyWrapperIPK14Il2CppAssemblyEPK22Il2CppMonoAssemblyNameEES6_N6il2cpp5utils11PointerHashIS4_EEN14dense_hash_mapIS6_SA_SF_NS6_14EqualsComparerINS0_8equal_toIS5_EEEENS0_9allocatorISB_EEE9SelectKeyESK_SM_E4swapERSP_
Ulf:_Enumerator_get_Current_m1271212567
oR:__ZN5physx5cloth11PhaseConfigC2Et
Rsa:__Z22GetShaderCachePathGLESv
Vae:__ZN13PhysicsModule21OverlapBoxUserCollectERK8Vector3fS2_RK11Quaternionfi23QueryTriggerInteractionRN8IPhysics12IUserCollectE
Myc:__ZN5physx3Cct13BoxControllerD2Ev
v2g:_IPAddress_ParseIPV6_m2209709575
Mrd:__ZThn8_N5physx2Sc19ShapeInstancePairLLD0Ev
MKd:__ZN5physx19PxcContactSphereBoxERKNS_2Gu13GeometryUnionES3_RKNS_11PxTransformES6_RKfRNS_10PxcNpCacheERNS0_13ContactBufferE
WSh:_Toggle_set_group_m3833595685
H8e:_LayoutRebuilder_ForceRebuildLayoutImmediate_m566681977
otd:__ZNK5physx7NpScene21getBroadPhaseCallbackEh
OUc:__ZN5physx6shdfnd5ArrayIPNS_12PxConstraintENS0_19ReflectionAllocatorIS3_EEE15growAndPushBackERKS3_
x1a:__ZNSt3__213__stable_sortIRNS_4lessI4PPtrI11SpriteAtlasEEENS_11__wrap_iterIPS4_EEEEvT0_SA_T_NS_15iterator_traitsISA_E15difference_typeEPNSD_10value_typeEi
Dsa:__ZNSt3__26vectorIPN19ConstantBuffersGLES11ConstBufferENS_9allocatorIS3_EEE21__push_back_slow_pathIKS3_EEvRT_
V$c:__ZNK5physx2Sc15ArticulationSim11checkResizeEv
cJf:_Array_InternalArray__ICollection_Add_TisVector4_t2243707581_m698578249_gshared
lXk:_PropertyName_ToString_m1129982609_AdjustorThunk
cZ:__ZN8keywords6CreateEPKc
aDc:__ZN5physx2Gu11gjkRelativeINS0_8CapsuleVENS0_11ConvexHullVEEEjRKT_RKT0_RKNS_6shdfnd3aos15PsMatTransformVERNSB_5Vec3VESG_SG_RNSB_6FloatVE
S:Math_imul
D5a:__ZN14SpriteRenderer15SetupPropertiesEv
n$a:__ZN11PlayerPrefs6GetIntERKN4core12basic_stringIcNS0_20StringStorageDefaultIcEEEEi
L$i:__ZN6il2cpp5utils13dynamic_arrayIPK10Il2CppTypeLj4EEC2ERKS5_
MMe:_SecurityFrame_t1002202659_marshal_pinvoke_back
Rqe:__Z45TextGenerator_CUSTOM_INTERNAL_get_rectExtentsP12Il2CppObjectP5RectTIfE
ZSg:_CertificateValidationCallback_Invoke_m2500463874
bEf:_SetPropertyUtility_SetStruct_TisChar_t3454481338_m2333420724_gshared
Z1e:_Graphic_Raycast_m3582517890
pkf:_Hashtable_ContainsKey_m2716576664
w5d:__ZN12PhysXRaycast19ApplyParticleForcesER13dynamic_arrayI21BatchedColliderResultLj4EE
Lri:_PatternCompiler_EmitCategory_m1696942454
Dvf:_Decimal_decimalFloorAndTrunc_m3655683429
pGi:_UnityEvent_3_FindMethod_Impl_m2694035610_gshared
wJf:_Array_InternalArray__ICollection_CopyTo_TisInt32_t2071877448_m984622488_gshared
Q_:__ZN18ScriptingArguments9AddObjectE18ScriptingObjectPtr
Mue:__Z39CanvasGroup_Get_Custom_PropInteractableP12Il2CppObject
NR:__ZN11UnityEngine15CloudWebService16SessionContainerD2Ev
TAe:__ZL38InitializeUnityConnectScriptingClassesv
CXb:__ZN13ProbeRenderer8ConvolveEbijjb
kia:__ZN17GenericDynamicVBOC2ER9GfxDevice13GfxBufferModejj
epi:_Context_get_HasDynamicSinks_m1998518649
coc:__ZZN10GUIManager14InitGUIManagerEvEN41PreUpdateIMGUISendQueuedEventsRegistrator7ForwardEv
UEi:_UnityAction_1_Invoke_m2903588655_gshared
rpd:__ZNK5physx2Sc5Scene7isValidEv
eT:__ZN11UnityEngine15CloudWebService17SessionEventQueue10PurgeItemsEj
rvd:__ZN5physx2Sq17SceneQueryManager29setDynamicTreeRebuildRateHintEj
b_h:_ValueCollection_System_Collections_Generic_ICollectionU3CTValueU3E_get_IsReadOnly_m1530798787_gshared
hRe:_AbstractEventData_get_used_m4208553917
hYb:__ZN6Camera16StandaloneRenderENS_10RenderFlagEP6ShaderRKN4core12basic_stringIcNS3_20StringStorageDefaultIcEEEE
$8e:_Array_System_Collections_IList_get_Item_m2088124007
t9e:_Array_GetLength_m2083296647
VEi:_UnityAction_1_BeginInvoke_m53286204_gshared
cWa:__ZNK12CubemapArray13GetIsReadableEv
$hf:_SynchronizedArrayListWrapper_ToArray_m1522185111
Qyb:__Z18Transfer_BlittableI18StreamedBinaryReadILb1EELb1EtEvRK29SerializationCommandArgumentsR31RuntimeSerializationCommandInfo
oMe:_SecurityContext_get_FlowSuppressed_m420202521
oqk:__Z55RuntimeInvoker_DayOfWeek_t721777893_DateTime_t693205669PFvvEPK10MethodInfoPvPS4_
Bca:__ZN9GfxDevice20DeallocRenderSurfaceEP17RenderSurfaceBase
K_c:__ZN5physx6shdfnd5ArrayIPvNS0_19ReflectionAllocatorINS_18NpArticulationLinkEEEE4copyINS0_15InlineAllocatorILj256ES5_EEEEvRKNS1_IS2_T_EE
bxh:_ValueType_ToString_m3796301715
joa:__ZN20GpuProgramParameters36UpdatePrepareValuesMaximumBufferSizeEv
hzc:__ZNK5physx3Cct10Controller12getKineShapeEv
Pjc:__Z53Register_UnityEngine_Quaternion_INTERNAL_CALL_Inversev
GMf:_Array_qsort_TisUICharInfo_t3056636800_m2607408901_gshared
cTc:__ZN5physx6shdfnd4sortIPvNS0_4LessIS2_EENS0_19ReflectionAllocatorINS_2Sc18TriggerInteractionEEEEEvPT_jRKT0_RKT1_j
$wk:__Z62RuntimeInvoker_Void_t1841601450_Byte_t3683104436_RuntimeObjectPFvvEPK10MethodInfoPvPS4_
G_k:_Screen_get_height_m3831644396
mGa:__ZN12BaseRenderer23RendererBecameInvisibleEv
Cnd:__ZNK5physx2Sc8BodyCore14getMaxAngVelSqEv
ede:__ZN20TextRenderingPrivate8FontImpl13CharacterInfo8TransferI18StreamedBinaryReadILb0EEEEvRT_
dwb:__Z29Transfer_Blittable_ArrayFieldI24GenerateTypeTreeTransferfEvRT_R9ArrayInfoRK23StaticTransferFieldInfo
L4:__ZNSt3__26__treeINS_12__value_typeIN4core12basic_stringIcNS2_20StringStorageDefaultIcEEEES6_EENS_19__map_value_compareIS6_S7_NS_4lessIS6_EELb1EEE13stl_allocatorIS7_L18MemLabelIdentifier13ELi16EEE7destroyEPNS_11__tree_nodeIS7_PvEE
Bok:__Z76RuntimeInvoker_RuntimeObject_RuntimeObject_SByte_t454417549_SByte_t454417549PFvvEPK10MethodInfoPvPS4_
wZb:__ZN19CustomRenderTexture9AddParentE4PPtrIS_E
n9h:_InternalEnumerator_1_MoveNext_m930150026_AdjustorThunk
d_a:__ZN8Gradient8TransferI14SafeBinaryReadEEvRT_
kGi:_UnityEvent_1_Invoke_m1533100983_gshared
KTa:__ZNSt3__26vectorIN4core12basic_stringIcNS1_20StringStorageDefaultIcEEEE13stl_allocatorIS5_L18MemLabelIdentifier1ELi16EEE7reserveEj
P1g:_FileWebRequest__ctor_m4003648606
yik:__ZL71SpriteState_t1353336012_CustomAttributesCacheGenerator_m_DisabledSpriteP21CustomAttributesCache
lyf:_Enum_System_IConvertible_ToSByte_m3488526280
TFh:_TypeBuilder_ToString_m1952363535
Ecb:__ZN18IDCollectorFunctorD0Ev
LLd:__ZN5physx2Gu32PCMConvexVsMeshContactGeneration15processTriangleEPKNS_6PxVec3EjhPKj
Yvk:__Z73RuntimeInvoker_RuntimeObject_RuntimeObject_SByte_t454417549_RuntimeObjectPFvvEPK10MethodInfoPvPS4_
SPc:__ZThn12_N5physx3Ext13RevoluteJoint11prepareDataEv
yhg:_NumberFormatter_Init_m1022036773
cyj:_GC_new_free_list_inner
f2h:_DefaultComparer_Equals_m85211180_gshared
EMc:__ZN5physx3Ext5JointINS_9PxD6JointENS_24PxD6JointGeneratedValuesEE9setActorsEPNS_12PxRigidActorES6_
tDg:_Collection_1_System_Collections_IList_IndexOf_m1950953062_gshared
ogg:_MonoType_InternalGetEvent_m532443236
mCg:_Collection_1_IndexOf_m2700825189_gshared
nPd:__ZN5physx6shdfnd5ArrayINS_2Cm8Matrix34ENS0_19ReflectionAllocatorIS3_EEE15growAndPushBackERKS3_
Iji:_Comparer_1_get_Default_m2605397692_gshared
SLd:__ZN5physx2Gu32PCMConvexVsMeshContactGeneration31generatePolyDataContactManifoldERNS0_9TriangleVEjjhPNS0_21MeshPersistentContactERjRKNS_6shdfnd3aos6FloatVERNS8_5Vec3VE
lsb:__Z35Transfer_Blittable_FixedBufferFieldI17RemapPPtrTransferiEvRK29SerializationCommandArgumentsR31RuntimeSerializationCommandInfo
v$d:__ZN5physx10SubSortSAH5splitEPjj
Dwc:__ZN8JSONRead8TransferI10RectOffsetEEvRT_PKc17TransferMetaFlagsb
Cnj:__ZNK15dense_hashtableINSt3__24pairIK10KeyWrapperINS1_IPKcS4_EEEiEES6_24NamespaceAndNamePairHashN14dense_hash_mapIS6_iS9_NS6_14EqualsComparerI26NamespaceAndNamePairEqualsEENS0_9allocatorIS8_EEE9SelectKeyESD_SF_E12test_deletedERK24dense_hashtable_iteratorIS8_S6_S9_SH_SD_SF_E
OS:__ZN9JSONWrite8TransferIN11UnityEngine15CloudWebService14DataErrorEvent15FileErrorDetailEEEvRT_PKc17TransferMetaFlags
OQe:_Decoder__ctor_m2623573910
ELa:__Z21ClearFenceWithoutSyncR8JobFence
CEc:__ZN5physx2Gu3EPA8addFacetEjjjRKNS_6shdfnd3aos6FloatVES6_
QL:__ZN12SoundManager20RegisterModifiedClipEP10SampleClip
sQk:_Logger__ctor_m1903664092
R4a:__ZN12MeshRenderer15AddAsRenderNodeER15RenderNodeQueueRK20DeprecatedSourceData
kMc:__ZN5physx3Cct9CCTParamsC2Ev
H_i:__ZN15dense_hashtableI10KeyWrapperIPK17Il2CppGenericInstES4_N6il2cpp8metadata21Il2CppGenericInstHashEN14dense_hash_setIS4_S7_NS4_14EqualsComparerINS6_24Il2CppGenericInstCompareEEENSt3__29allocatorIS4_EEE8IdentityESB_SE_E13set_empty_keyERKS4_
odd:__ZN5physx7NpCloth21setStiffnessFrequencyEf
rmb:__ZNK20LocalFileSystemPosix8IsHiddenERK13FileEntryData
nEd:__ZN5physx17PxcSweepBoxConvexERKNS_11PxsCCDShapeES2_PKNS_12PxsRigidBodyES5_RKNS_11PxTransformES8_S8_S8_fRNS_6PxVec3ESA_RNS_10PxcNpCacheERNS_18PxcNpThreadContextEf
HXd:__ZThn8_N5physx2Gu11HeightField14onRefCountZeroEv
Eyi:_X501__cctor_m2610532554
QOj:__ZL95SafeHandle_t2733794115_CustomAttributesCacheGenerator_SafeHandle_DangerousGetHandle_m1328172664P21CustomAttributesCache
nHk:__Z48RuntimeInvoker_Int32_t2071877448_Link_t865133271PFvvEPK10MethodInfoPvPS4_
wSc:__ZN5physx2Sc5Actor9setActiveEbj
pQe:_StringComparer__ctor_m2275216983
Bhk:__ZL120U3CClickRepeatU3Ec__Iterator0_t4156771994_CustomAttributesCacheGenerator_U3CClickRepeatU3Ec__Iterator0__ctor_m1515509136P21CustomAttributesCache
Xug:_List_1_CheckCollection_m2220107869_gshared
YWa:__ZN7Cubemap23VirtualRedirectTransferER18StreamedBinaryReadILb0EE
mVg:_RecordProtocol_EncodeRecord_m3884270352
DIe:_SHA256_Create_m896954069
Eoe:_Read_CVT
SSc:__ZN5physx2Sc10NPhaseCore28reserveContactReportPairDataEjjRj
lrf:_Convert_ToUInt32_m776714429
gDc:__ZN5physx2Gu22barycentricCoordinatesERKNS_6shdfnd3aos5Vec3VES5_S5_RNS2_6FloatVE
bCa:__ZN12FileAccessor4SeekEx10FileOrigin
MIk:__Z66RuntimeInvoker_Void_t1841601450_Int32_t2071877448_Slot_t2022531261PFvvEPK10MethodInfoPvPS4_
Tub:__ZL26Transfer_SimpleNativeClassI24GenerateTypeTreeTransfer17AnimationCurveTplIfELb0EEvRK29SerializationCommandArgumentsR31RuntimeSerializationCommandInfo
Scd:__ZN5physx15NpActorTemplateINS_7PxClothEE12setActorFlagENS_11PxActorFlag4EnumEb
Dxc:__ZN8JSONRead21TransferSTLStyleArrayI13dynamic_arrayI9BoundsIntLj4EEEEvRT_17TransferMetaFlags
_Ya:__ZN24GenerateTypeTreeTransfer8TransferI13dynamic_arrayI33EnlightenTerrainChunksInformationLj4EEEEvRT_PKc17TransferMetaFlags
PZd:__ZL18TestUnifiedNormalsjPKN5physx6PxVec3EjPNS_2Gu9TriangleTIjEEb
BPk:_Coroutine_t2299508840_marshal_pinvoke
O5:__ZN16LightmapSettings20DidChangeActiveSceneEP10UnitySceneS1_
twb:__Z18Transfer_BlittableI19StreamedBinaryWriteILb0EELb0EN4math12int3_storageEEvRK29SerializationCommandArgumentsR31RuntimeSerializationCommandInfo
Akk:__ZL59g_AssemblyU2DCSharp_Assembly_CustomAttributesCacheGeneratorP21CustomAttributesCache
m5i:__ZN6il2cpp5utils9PathUtils8BasenameIcEENSt3__212basic_stringIT_NS3_11char_traitsIS5_EENS3_9allocatorIS5_EEEERKSA_
Hpc:__Z35Register_UnityEngine_Event_get_typev
qYf:_PrivateKeyInfo_DecodeRSA_m1427048948
Qkj:__ZN6il2cpp2vm9Exception23GetInvalidCastExceptionERKNS_5utils10StringViewIDsEE
MPg:_BigInteger_op_GreaterThanOrEqual_m2643115413
fyh:_Assembly_FillName_m1934025015
N7f:_IntPtr_op_Explicit_m1073656736
iPe:_String_IndexOf_m2126171214
m7f:_Int64_ToString_m1544341651_AdjustorThunk
qWd:__ZNK5physx13GuMeshFactory17getNbConvexMeshesEv
d2f:_Guid_CheckNull_m2903986431
tYj:__ZL62CrossContextDelegate_t754146990_CustomAttributesCacheGeneratorP21CustomAttributesCache
$$:__Z63ThreadAndSerializationSafeCheckGetMonoBehaviourBeingTransferredv
OAj:_GC_enable
hXg:_TlsClientCertificateVerify_ProcessAsSsl3_m3377063356
Hej:__ZN15dense_hashtableINSt3__24pairIK10KeyWrapperIPK14Il2CppAssemblyEPK22Il2CppMonoAssemblyNameEES6_N6il2cpp5utils11PointerHashIS4_EEN14dense_hash_mapIS6_SA_SF_NS6_14EqualsComparerINS0_8equal_toIS5_EEEENS0_9allocatorISB_EEE9SelectKeyESK_SM_EC2ERKSP_j
_Ve:_StandaloneInputModule_set_repeatDelay_m2820945738
n9f:_EndOfStreamException__ctor_m4268387737
Kuh:_UInt16_ToString_m4213290405
tjc:__Z37Register_UnityEngine_Input_GetAxisRawv
Lwg:_List_1_GetIndex_m433539411_gshared
yRj:__ZL59StreamingContext_t1417235061_CustomAttributesCacheGeneratorP21CustomAttributesCache
Ani:_ChannelServices_RegisterChannel_m3832858065
syf:_Enum_GetName_m1226611481
wSi:_Func_2_Invoke_m4121137703_gshared
kij:__ZN24dense_hashtable_iteratorINSt3__24pairIK10KeyWrapperINS1_IP11Il2CppClassjEEES4_EES6_N6il2cpp8metadata14ArrayClassHashEN14dense_hash_mapIS6_S4_SB_NS6_14EqualsComparerINSA_17ArrayClassCompareEEENS0_9allocatorIS8_EEE9SelectKeyESF_SH_E30advance_past_empty_and_deletedEv
LNb:__ZN12ImageFilters27SetSurfaceUseResolvedBufferEP13RenderTextureb
Iak:__ZL108Physics_t634932869_CustomAttributesCacheGenerator_Physics_RaycastAll_m2968588561____queryTriggerInteraction3P21CustomAttributesCache
uLk:__Z74RuntimeInvoker_DictionaryEntry_t3048875398_RuntimeObject_Int32_t2071877448PFvvEPK10MethodInfoPvPS4_
duk:__Z53RuntimeInvoker_DateTime_t693205669_Single_t2076509932PFvvEPK10MethodInfoPvPS4_
M1a:__ZN14Texture2DArray23VirtualRedirectTransferER18StreamedBinaryReadILb0EE
mui:_Literal_CompileLiteral_m276843152
fkb:__ZN2UI13RectTransform13AwakeFromLoadE17AwakeFromLoadMode
ZQd:__ZN5physx23PxsSolverSetupSolveTaskD2Ev
MSb:__ZN14qsort_internal30FindAndMovePivotToLastPositionIP20ShadowCasterSortDatai26ShadowCasterSortDataSorterEEvT_S4_T0_T1_
l$i:__ZNK15dense_hashtableI10KeyWrapperIPK19Il2CppGenericMethodES4_N6il2cpp8metadata23Il2CppGenericMethodHashEN14dense_hash_setIS4_S7_NS4_14EqualsComparerINS6_26Il2CppGenericMethodCompareEEENSt3__29allocatorIS4_EEE8IdentityESB_SE_E3endEv
rob:__Z18Transfer_BlittableI14SafeBinaryReadLb1EiEvRK29SerializationCommandArgumentsR31RuntimeSerializationCommandInfo
Cli:_DefaultDependencyAttribute__ctor_m107693037
OQi:__ZL25UnresolvedVirtualCall_211P12Il2CppObject38CustomAttributeNamedArgument_t94157543PK10MethodInfo
Qcb:__ZN17PersistentManager13GetAllFileIDsERKN4core12basic_stringIcNS0_20StringStorageDefaultIcEEEER13dynamic_arrayIxLj8EE
CJg:_ReadOnlyCollection_1_GetEnumerator_m713393110_gshared
jeh:_ProxyAttribute_GetPropertiesForNewContext_m3587421540
taf:_Array_LastIndexOf_m4096535198
agf:_ArrayList_Add_m1719188324
w7c:__ZN18MultiQueryCallbackIN5physx12PxOverlapHitEE6invokeERfPKNS0_2Sq13PrunerPayloadEj
rcl:dynCall_vifiiiiiiiiiiiiiiiiiiiiiii
yxf:_Double_System_IConvertible_ToSByte_m1653690240_AdjustorThunk
Pwk:__Z59RuntimeInvoker_RuntimeObject_Byte_t3683104436_RuntimeObjectPFvvEPK10MethodInfoPvPS4_
QGc:__ZN5physx2Gu18gjkRelativeRayCastINS0_4BoxVES2_NS0_10ShrunkBoxVES3_EEbRT_RT0_RKNS_6shdfnd3aos15PsMatTransformVERKNS9_6FloatVERKNS9_5Vec3VESI_RSD_RSG_SK_fb
al:_glGetStringi
OCi:_GUIStyleState_t3801000545_marshal_pinvoke
Yoj:__ZNK15dense_hashtableI10KeyWrapperIP18Il2CppGenericClassES3_N6il2cpp8metadata22Il2CppGenericClassHashEN14dense_hash_setIS3_S6_NS3_14EqualsComparerINS5_25Il2CppGenericClassCompareEEENSt3__29allocatorIS3_EEE8IdentityESA_SD_E10test_emptyERK30dense_hashtable_const_iteratorIS3_S3_S6_SF_SA_SD_E
Xhd:__ZN5physx22NpParticleBaseTemplateINS_15PxParticleFluidENS_15NpParticleFluidEE14setRestitutionEf
H2a:__ZN18StreamedBinaryReadILb0EE21TransferSTLStyleArrayI13dynamic_arrayI8Vector4fLj4EEEEvRT_17TransferMetaFlags
YWd:__ZThn8_N5physx2Gu10ConvexMeshD0Ev
z6g:_X509Chain_get_CertificateCollection_m324631835
m5h:_EqualityComparer_1__cctor_m1011898363_gshared
ZWe:_AnimationTriggers__ctor_m2623627182
KGf:_Array_InternalArray__IndexOf_TisClientCertificateType_t4001384466_m1168139450_gshared
qB:__ZN8Animator9WriteStepEy
DCh:_FieldBuilder_get_Name_m2243491233
AT:__ZN11UnityEngine15CloudWebService20WebRequestRestClient18GetResponseHeadersEv
V9b:__ZN16PropertyAccessorC2Ev
w$a:__ZNSt3__23mapIN4core12basic_stringIcNS1_20StringStorageDefaultIcEEEE9PrefValueNS_4lessIS5_EENS_9allocatorINS_4pairIKS5_S6_EEEEEixERSB_
mzb:__Z35Transfer_Blittable_FixedBufferFieldI18StreamedBinaryReadILb1EEaEvRK29SerializationCommandArgumentsR31RuntimeSerializationCommandInfo
x9b:__ZN15DirectorManager22ConstructPlayableGraphEv
hyc:__Z41Register_UnityEngine_JsonUtility_FromJsonv
O$a:__ZN13ScreenManager16SetScreenTimeoutEi
utb:__Z18Transfer_BlittableI17RemapPPtrTransferLb0EdEvRK29SerializationCommandArgumentsR31RuntimeSerializationCommandInfo
AJe:_SymmetricAlgorithm_set_IV_m4262655606
WRh:_StencilMaterial__cctor_m2963056855
oJi:_EqualityComparer_1_System_Collections_IEqualityComparer_Equals_m315020809_gshared
Vsg:_List_1_Find_m3680710386_gshared
P2d:__ZN4PPtrI9RigidbodyE8TransferI18StreamedBinaryReadILb0EEEEvRT_
Izh:_CustomAttributeNamedArgument_GetHashCode_m3715408876_AdjustorThunk
Yqe:__Z38Register_UnityEngine_Font_HasCharacterv
lNc:__ZN5physx3Ext7D6Joint8setDriveENS_9PxD6Drive4EnumERKNS_14PxD6JointDriveE
LWb:__Z35IntersectSpherePlaneBoundsOptimizedRKN4math7_float4EPS1_i
XAf:_CultureInfo_get_IsNeutralCulture_m3874876470
rwf:_Delegate_CreateDelegate_m3813023227
OQc:__ZN5physx2Sc8ShapeSim20createLowLevelVolumeEjRKNS_9PxBounds3EjNS_9AABBMgrIdE
xwi:_Uri_get_AbsoluteUri_m2120317928
Krj:__ZN6il2cpp2os5posix15PosixWaitObject13InterruptWaitEv
tdd:__ZNK5physx7NpCloth22getAngularInertiaScaleEv
Xs:__ZN7mecanim6memory16ChainedAllocator10DeallocateEPv
kSe:_BaseInputModule_IsModuleSupported_m4272494372
DIc:__ZN26IntersectAnyVsMeshCallbackILi1ELb1EE10processHitERKN5physx12PxRaycastHitERKNS1_6PxVec3ES7_S7_RfPKj
n5:__Z22CleanupLODGroupManagerPv
XIf:_Array_InternalArray__ICollection_Add_TisContentType_t1028629049_m2984242302_gshared
Lwd:__ZN5physx6shdfnd5ArrayINS_2Sc5Scene14SimpleBodyPairENS0_19ReflectionAllocatorIS4_EEE8recreateEj
Ll:_glUniform3fv
UDj:__ZNK6il2cpp8metadata24Il2CppGenericInstCompareclERK10KeyWrapperIPK17Il2CppGenericInstES8_
B9a:__ZNSt3__218__insertion_sort_3IRN15ResourceManager10Dependency6SorterEPS2_EEvT0_S6_T_
wlg:_Enumerator_System_Collections_IEnumerator_Reset_m3796537546_AdjustorThunk
Kpe:_UNITY_FT_Init_Class_tt_service_gx_multi_masters
mwk:__Z53RuntimeInvoker_Int32_t2071877448_TimeSpan_t3430258949PFvvEPK10MethodInfoPvPS4_
Lei:_InternalEnumerator_1_System_Collections_IEnumerator_Reset_m3249248421_AdjustorThunk
Dmk:__Z64RuntimeInvoker_RuntimeObject_Int32_t2071877448_Int16_t4041245914PFvvEPK10MethodInfoPvPS4_
Zfg:_IntComparer_Compare_m3057931085
uRb:__ZNK16LightmapSettings31GetRealtimeLightmapDecodeValuesEv
fN:__ZN5audio5mixer12SetSuspendedERNS0_16AudioMixerMemoryEb
Ldb:__ZN17PersistentManager21UnloadNonDirtyStreamsEv
U1d:__ZN8Collider12ScaleChangedEv
IGk:__Z62RuntimeInvoker_Boolean_t3825574718_PlayableBinding_t2498078091PFvvEPK10MethodInfoPvPS4_
Flj:__ZN6il2cpp2vm13LivenessStateC2EP11Il2CppClassjPFvPP12Il2CppObjectiPvES7_PFvvESB_
Idh:_ObjRef__cctor_m2226086515
xRf:_Array_ConvertAll_TisRuntimeObject_TisRuntimeObject_m2423585546_gshared
oMb:__ZN12ImageFilters4BlitER17ShaderPassContextP7TextureP13RenderTextureiPK18SharedMaterialDataPKcP6ShaderiNS_9BlitFlagsE11CubemapFaceRK8Vector2fSH_
U3g:_Oid__ctor_m1936781897
g8d:__ZN5physx6shdfnd8PoolBaseINS_24NpPtrTableStorageManager8PtrBlockILi4EEENS0_19ReflectionAllocatorIS4_EEE12allocateSlabEv
oT:__ZN11UnityEngine15CloudWebService10RestClientINS0_23WebRequestRestHeaderMapEED2Ev
jli:_ResourceSet__ctor_m1222864106
ZTd:__ZN5physx2Sc5Scene13ccdBroadPhaseEPNS_10PxBaseTaskE
Ayg:_Collection_1_System_Collections_IList_get_Item_m3376056117_gshared
gm:_emscripten_glDepthMask
rTe:__ZN23InterfaceActionInvoker1IP28PointerEventData_t1599784723E6InvokeEjP11Il2CppClassP12Il2CppObjectS1_
NLd:__ZN5physx2Gu24PCMMeshContactGeneration15processContactsEhb
rAg:_Collection_1_IsSynchronized_m2601980439_gshared
fGj:__ZL76UInt16_t986882611_CustomAttributesCacheGenerator_UInt16_TryParse_m1818885113P21CustomAttributesCache
vlg:_Enumerator_VerifyState_m3639069574_gshared
vja:__ZN4crnd25static_huffman_data_model22prepare_decoder_tablesEv
ZXa:__ZN9Texture2D23VirtualRedirectTransferER17RemapPPtrTransfer
m5b:__ZN16ReflectionProbesD2Ev
jPg:_ModulusRing_Difference_m662924064
mei:_InternalEnumerator_1_MoveNext_m1869236997_gshared
BYe:_CanvasUpdateRegistry_ObjectValidForUpdate_m855695984
q5e:_InputField_set_onValueChanged_m2406388125
Coc:__Z23GUIStatePopDisplayIndexv
jHg:_ReadOnlyCollection_1_System_Collections_ICollection_get_SyncRoot_m2702046016_gshared
fY:__ZL22CleanupUnityWebStreamsPv
wBb:__Z18Transfer_BlittableI18StreamedBinaryReadILb0EELb0E10ColorRGBAfEvRK29SerializationCommandArgumentsR31RuntimeSerializationCommandInfo
H0g:_ListDictionary_Add_m4276262662
T5:__Znaj
gHe:_RIPEMD160Managed_GGG_m1639995340
skl:_emscripten_glEnableClientState__wrapper
YZ:__ZN17MessageIdentifierC2EPKcNS_7OptionsEPKN5Unity4TypeES1_
TXh:_Enumerator_System_Collections_IEnumerator_get_Current_m1648049763_gshared
lRj:__ZL66ISerializationSurrogate_t1282780357_CustomAttributesCacheGeneratorP21CustomAttributesCache
Bqk:__Z31RuntimeInvoker_Char_t3454481338PFvvEPK10MethodInfoPvPS4_
gGa:__ZN11GameManager15ThreadedCleanupEv
ptg:_List_1__ctor_m1337392449_gshared
aGd:__ZN5physxL26solveFriction4_StaticBlockEPKNS_23PxcSolverConstraintDescERNS_16PxcSolverContextE
BQ:__Z55Register_UnityEngine_AudioSource_get_spatializeInternalv
t1a:__ZN15dense_hashtableINSt3__24pairIKN4core12basic_stringIcNS2_20StringStorageDefaultIcEEEE13dynamic_arrayI4PPtrI6SpriteELj4EEEES6_20StringHash32FunctionIS6_EN14dense_hash_mapIS6_SC_SF_NS0_8equal_toIS6_EE13stl_allocatorISD_L18MemLabelIdentifier81ELi16EEE9SelectKeyESI_SL_E12resize_deltaEjj
Scg:_TextWriter__ctor_m2225796097
moi:__ZN21InterfaceFuncInvoker0IP24StringU5BU5D_t1642385972E6InvokeEjP11Il2CppClassP12Il2CppObject
Aya:__ZN14SafeBinaryRead8TransferI14ConstantStringEEvRT_PKc17TransferMetaFlags
GKd:__ZN5physx30PxcGetMaterialShapeHeightFieldEPKNS_12PxsShapeCoreES2_RNS_18PxcNpThreadContextEPNS_15PxsMaterialInfoE
Pfa:__ZNK6Camera16GetStereoEnabledEv
X5b:__ZN12LightManager15InitializeClassEv
IUd:__ZN5physx6shdfnd8PoolBaseINS_2Sc19ParticlePacketShapeENS0_19ReflectionAllocatorIS3_EEE12allocateSlabEv
IHa:__ZN9ShaderLab11shaderprops16GetComputeBufferEPK19ShaderPropertySheetS3_NS_16FastPropertyNameE
x6j:__ZL86Logger_t3328995178_CustomAttributesCacheGenerator_Logger_set_filterLogType_m3982626604P21CustomAttributesCache
c$:__ZN18ScriptingArgumentsC2Ev
nsh:_TimeZone_IsDaylightSavingTime_m875882154
mmd:__ZNK5physx15NpActorTemplateINS_14PxRigidDynamicEE14getOwnerClientEv
D7h:_ArrayReadOnlyList_1_Insert_m503707439_gshared
yfl:_emscripten_glBlendFuncSeparate__wrapper
_Tg:_CipherSuiteCollection_System_Collections_IList_set_Item_m750275607
wga:__Z17HasSampledTexture14GraphicsFormat13formatSupport
mNb:__ZNK25CameraStackRenderingState27GetStereoImageEffectTextureEb
iIe:_SHA1CryptoServiceProvider__ctor_m3127563759
qq:__ZN8Vector3f8TransferI14SafeBinaryReadEEvRT_
K2i:__ZN6il2cpp6icalls6System6System3Net7Sockets6Socket7ReceiveEiP11Il2CppArrayiiNS4_11SocketFlagsEPi
Tcc:__ZN13BuildSettings13GetSceneIndexERKN4core12basic_stringIcNS0_20StringStorageDefaultIcEEEE
okk:__ZL103BaseVertexEffect_t2504093552_CustomAttributesCacheGenerator_BaseVertexEffect_ModifyVertices_m3446986347P21CustomAttributesCache
pp:FUNCTION_TABLE_ii
QYh:_Enumerator_MoveNext_m335649778_AdjustorThunk
aGa:__ZN10TagManager8TransferI18StreamedBinaryReadILb0EEEEvRT_
Okk:__Z45RuntimeInvoker_Char_t3454481338_RuntimeObjectPFvvEPK10MethodInfoPvPS4_
dtc:__Z18Transfer_BlittableI9JSONWriteLb0E8BitFieldEvRK29SerializationCommandArgumentsR31RuntimeSerializationCommandInfo
Evh:_UInt32_ToString_m3894907091_AdjustorThunk
oFf:_Array_InternalArray__IEnumerable_GetEnumerator_TisPlayableBinding_t2498078091_m2095426925_gshared
oUk:_Matrix4x4__ctor_m828876617_AdjustorThunk
MTi:_Predicate_1__ctor_m2863314033_gshared
Ib:invoke_diiii
ZHf:_Array_ForEach_TisRuntimeObject_m1849351808_gshared
IHc:__ZL17sweepVolumeVsMeshPKN5physx3Cct9SweepTestEPKNS0_11TouchedMeshERNS0_12SweptContactERKNS_6PxVec3ERKNS_10PxGeometryERKNS_11PxTransformEjPKNS_10PxTriangleEj
tWh:_ShimEnumerator_get_Key_m616785465_gshared
b3j:__ZL76Object_t1021602117_CustomAttributesCacheGenerator_Object_Destroy_m3959286051P21CustomAttributesCache
hXf:_SmallXmlParser_Error_m1832158746
y9g:_RepeatContext_get_IsLazy_m1620488045
J6c:__ZNK5physx12NpBatchQuery19getFilterShaderDataEv
$Od:__ZN5physx2Gu31checkOverlapOBB_heightFieldGeomERKNS_10PxGeometryERKNS_11PxTransformERKNS0_3BoxE
ADa:__Z24CreateDirectoryRecursiveRKN4core12basic_stringIcNS_20StringStorageDefaultIcEEEE
Qdl:b41
whb:__ZN9ShaderLab20SerializedSubProgram8TransferI18StreamedBinaryReadILb0EEEEvRT_
scg:_StreamAsyncResult_get_AsyncWaitHandle_m4218169359
Odl:b40
yAc:__ZN5physx2Gu23findRotationMatrixFromZERKNS_6PxVec3E
rVb:__Z9EndJobSetR8JobFence11JobPriority
Ht:__ZN26AnimatorControllerPlayable13GenerateGraphEv
Dre:__ZN2UI13CanvasManager9AddCanvasEPNS_6CanvasE
E2a:__ZN9Texture3D8TransferI19StreamedBinaryWriteILb0EEEEvRT_
QNb:__ZNK6Camera22CalculateRenderingPathEv
xuc:__ZN9JSONWrite8TransferI5RectTIfEEEvRT_PKc17TransferMetaFlags
yvd:__ZN5physx13NpVolumeCache10invalidateEv
_C:__ZN11UnityEngine9Animation37SetGenericRootTransformPropertyValuesERKNS0_30AnimatorGenericBindingConstantERKN7mecanim10ValueArrayER9Transformbb
Lpa:__Z13ConvertMipmap14GraphicsFormatPKvS_Pviiii
ESg:_ContentInfo_get_Content_m1802070908
CEi:_InvokableCall_4_Find_m2012236736_gshared
ts:__ZN15SerializeTraitsIKN4math7_float4EE8TransferI14SafeBinaryReadEEvRS2_RT_
ztb:__ZL12InvokeMethodI17RemapPPtrTransferEvRK29SerializationCommandArgumentsR31RuntimeSerializationCommandInfo
F_f:_X509Certificate_get_PublicKey_m714501701
Yxk:__Z70RuntimeInvoker_Boolean_t3825574718_UInt16_t986882611_Int32_t2071877448PFvvEPK10MethodInfoPvPS4_
x7e:_U3CMouseDragOutsideRectU3Ec__Iterator1_System_Collections_IEnumerator_get_Current_m561728752
BNk:_AsyncOperation_InternalDestroy_m2067452588
pie:_tt_sbit_decoder_load_image
xPe:_String_LastIndexOf_m290475879
Q3j:__ZL92Transform_t3275118058_CustomAttributesCacheGenerator_Transform_SetAsFirstSibling_m1896679420P21CustomAttributesCache
bGf:__ZN21InterfaceFuncInvoker1Ii22UILineInfo_t3621277874E6InvokeEjP11Il2CppClassP12Il2CppObjectS0_
l3j:__ZL113PlayableHandle_t213697122_CustomAttributesCacheGenerator_PlayableHandle_INTERNAL_CALL_IsValidInternal_m3649184361P21CustomAttributesCache
r4e:_Image_get_layoutPriority_m2151045813
Chj:__ZN15dense_hashtableINSt3__24pairIK10KeyWrapperIP11Il2CppClassES4_EES5_N6il2cpp8metadata16SZArrayClassHashEN14dense_hash_mapIS5_S4_SA_NS5_14EqualsComparerINS9_19SZArrayClassCompareEEENS0_9allocatorIS7_EEE9SelectKeyESE_SG_EC2EjRKSA_RKSE_RKSI_
Khd:__ZN5physx22NpParticleBaseTemplateINS_15PxParticleFluidENS_15NpParticleFluidEE12setPositionsEjRKNS_16PxStrideIteratorIKjEERKNS4_IKNS_6PxVec3EEE
Idg:_TextReader_Read_m975794707
woc:__ZNSt3__24listIN10GUIManager12SortedScriptE11memory_poolIS2_EE6__sortI13OldSortScriptEENS_15__list_iteratorIS2_PvEESA_SA_jRT_
nRc:__ZN5physx6shdfnd5ArrayIPvNS0_19ReflectionAllocatorINS_2Sc10NPhaseCore16ClothListElementEEEE15growAndPushBackERKS2_
Ovh:_UInt64_System_IConvertible_ToChar_m1930853313_AdjustorThunk
cXg:_TlsClientCertificate_SendCertificates_m1096074091
XWe:_UIBehaviour_OnCanvasHierarchyChanged_m762109874
$kf:_SyncHashtable_get_Item_m408601391
URj:__ZL45DSA_t903174880_CustomAttributesCacheGeneratorP21CustomAttributesCache
XCk:__Z86RuntimeInvoker_Void_t1841601450_RuntimeObject_RayU26_t3651946800_SingleU26_t4173844468PFvvEPK10MethodInfoPvPS4_
eyg:_Stack_1_System_Collections_ICollection_CopyTo_m2104527616_gshared
hnh:_StringBuilder_AppendFormat_m1666670800
oBk:__Z97RuntimeInvoker_Boolean_t3825574718_RuntimeObject_TextGenerationSettings_t2543476768_RuntimeObjectPFvvEPK10MethodInfoPvPS4_
Tye:__ZN18UnityConnectClient12CloseServiceEv
ctb:__Z18Transfer_BlittableI17RemapPPtrTransferLb1E8BitFieldEvRK29SerializationCommandArgumentsR31RuntimeSerializationCommandInfo
Sjj:__ZN6il2cpp6icalls8mscorlib6System9ThreadingL11ThreadStartEPv
M7:__ZN15DirectorManager12OnSampleTimeEv
aLg:_ReadOnlyCollection_1_System_Collections_IList_Remove_m3878418841_gshared
v5e:_InputField_EnforceContentType_m1902926812
ZZa:__ZN15dense_hashtableINSt3__24pairIKiiEEi21InstanceIDHashFunctorN14dense_hash_mapIiiS4_NS0_8equal_toIiEE13stl_allocatorIS3_L18MemLabelIdentifier67ELi16EEE9SelectKeyES7_SA_E12resize_deltaEjj
pwa:__ZN12CachedReader10Align4ReadEv
uwi:_Uri_op_Equality_m110355127
AGg:_Collection_1_CopyTo_m42272870_gshared
TMc:__ZNK5physx3Ext5JointINS_9PxD6JointENS_24PxD6JointGeneratedValuesEE19getInvInertiaScale0Ev
INk:_DefaultExecutionOrder_get_order_m3383619944
f0:__ZN15dense_hashtableINSt3__24pairIKiP6ObjectEEi21InstanceIDHashFunctorN14dense_hash_mapIiS4_S6_NS0_8equal_toIiEE13stl_allocatorIS5_L18MemLabelIdentifier67ELi16EEE9SelectKeyES9_SC_E12maybe_shrinkEv
C9i:_RaycastHit2D_get_point_m2962370910_AdjustorThunk
axa:__ZNK9Behaviour22GetTypeVirtualInternalEv
aYe:_CanvasScaler_set_referencePixelsPerUnit_m1188599784
kJk:__Z74RuntimeInvoker_Void_t1841601450_Int32_t2071877448_RaycastHit2D_t4063908774PFvvEPK10MethodInfoPvPS4_
c8c:__ZN5physx2Sc14ConstraintCore13setBreakForceEff
s3b:__ZNK28MonoBehaviourPropertyBinding12SetPPtrValueERKN11UnityEngine9Animation10BoundCurveEi
wXb:__Z21GetScriptingArraySize17ScriptingArrayPtr
Dce:__ZN20TextRenderingPrivate8FontImpl8TransferI14SafeBinaryReadEEvRT_
VPi:__ZL25UnresolvedVirtualCall_164P12Il2CppObject20UIVertex_t1204258818PK10MethodInfo
YCk:__Z74RuntimeInvoker_Int32_t2071877448_RaycastHit_t87180320_RaycastHit_t87180320PFvvEPK10MethodInfoPvPS4_
Sti:__ZN23InterfaceActionInvoker1IP19LinkRef_t2090853131E6InvokeEjP11Il2CppClassP12Il2CppObjectS1_
Ksd:__ZN5physx7NpScene15removeAggregateERNS_11PxAggregateEb
mpc:__ZN11IMGUIModule21ClearDeveloperConsoleEv
ulk:__Z110RuntimeInvoker_Boolean_t3825574718_RuntimeObject_SByte_t454417549_Int64U26_t763825331_ExceptionU26_t1467204777PFvvEPK10MethodInfoPvPS4_
nae:__ZZN14PhysicsManager15InitializeClassEvEN63EarlyUpdatePhysicsResetInterpolatedTransformPositionRegistrator7ForwardEv
xda:__ZN9GfxDevice17ImmediateTexCoordEifff
Isi:_Parser_ParseRegularExpression_m2390577313
Wje:_ft_black_new
Saf:_Array_double_swapper_m1175307080
Pti:_Alternation_AddAlternative_m623421443
$6g:_X509CertificateEnumerator_System_Collections_IEnumerator_Reset_m327358896
Ewk:__Z65RuntimeInvoker_Void_t1841601450_Byte_t3683104436_Byte_t3683104436PFvvEPK10MethodInfoPvPS4_
mJf:_Array_InternalArray__ICollection_CopyTo_TisKeyValuePair_2_t1174980068_m1818152223_gshared
ILe:_Hash__ctor_m2554411450
sJe:_SHAConstants__cctor_m2781430679
$9:__ZN30dense_hashtable_const_iteratorINSt3__24pairIKN4core12basic_stringIcNS2_20StringStorageDefaultIcEEEE10vector_setI4PPtrI11SpriteAtlasENS0_4lessISB_EE13stl_allocatorISB_L18MemLabelIdentifier81ELi16EEEEES6_20StringHash32FunctionIS6_EN14dense_hash_mapIS6_SH_SK_NS0_8equal_toIS6_EESE_ISI_LSF_81ELi16EEE9SelectKeyESN_SO_EC2EPK15dense_hashtableISI_S6_SK_SQ_SN_SO_EPKSI_SX_b
lNe:_Single_System_IConvertible_ToDateTime_m2510003459_AdjustorThunk
Awf:_Delegate_RemoveImpl_m3666700529
ydl:_emscripten_glUniform4f__wrapper
_0g:_NameObjectCollectionBase_OnDeserialization_m3478980442
cQk:_CustomYieldInstruction_MoveNext_m3850519634
h5e:_InputField_set_caretColor_m2252440840
aSd:__ZN5physx6shdfnd5ArrayINS_25PxcThresholdStreamElementENS0_19ReflectionAllocatorIS2_EEE8recreateEj
iNf:_Array_Resize_TisVector2_t2243707579_m1117258774_gshared
HGa:__ZNK6Camera16GetProjectionFarEv
Hr:__Z24InverseTransformRotationRK23TransformAccessReadOnlyRKN4math7_float4E
afg:_MissingFieldException__ctor_m1161042282
fff:_Char_GetHashCode_m2343577184
aVk:_Mesh_get_uv3_m1531319041
xVa:__ZNK14PlayableOutput11DerivesFromE17ScriptingClassPtr
LWa:__ZN7Texture34CreateFileTextureUploadInstructionE18TextureUploadFlagsj
lda:__ZN9GfxDevice21ResetDynamicResourcesEv
$qa:__ZN13ComputeShader14SetBufferParamEjRKN9ShaderLab16FastPropertyNameE15ComputeBufferID
QNa:__ZThn280_N31CanvasBatchIntermediateRenderer20OnAssetBoundsChangedEv
ued:__ZN5physx7NpCloth21setCollisionMassScaleEf
oPd:__ZN5physx6shdfnd5ArrayINS_7PxPlaneENS0_19ReflectionAllocatorIS2_EEE8recreateEj
hOg:_Comparison_1_EndInvoke_m4174686984_gshared
Yhh:_StreamingContext__ctor_m3063421596_AdjustorThunk
Zae:__ZN13PhysicsModule17GetRigidBodyStateERK9RigidbodyPN8IPhysics14RigidBodyStateE
PKg:_ReadOnlyCollection_1_System_Collections_Generic_IListU3CTU3E_Insert_m3054305464_gshared
Y2b:__ZN19LowerResBlitTexture13ApplySettingsEv
fHj:__ZL70IntPtr_t_CustomAttributesCacheGenerator_IntPtr_op_Explicit_m3896766622P21CustomAttributesCache
kE:__ZN8Animator8TransferI14SafeBinaryReadEEvRT_
mhj:__ZN15dense_hashtableINSt3__24pairIK10KeyWrapperIP11Il2CppClassES4_EES5_N6il2cpp8metadata16SZArrayClassHashEN14dense_hash_mapIS5_S4_SA_NS5_14EqualsComparerINS9_19SZArrayClassCompareEEENS0_9allocatorIS7_EEE9SelectKeyESE_SG_E4swapERSJ_
kEa:__ZN17GlobalGameManager23VirtualRedirectTransferER18StreamedBinaryReadILb0EE
oHf:_Array_InternalArray__IndexOf_TisTypeTag_t141209596_m2882894956_gshared
gRh:_Slider_get_value_m4182660424
E3:__Z23AsyncReadForceCloseFileRKN4core12basic_stringIcNS_20StringStorageDefaultIcEEEE
xu:__ZN17AnimationPlayable34CollectAnimatorControllerPlayablesER13dynamic_arrayIP26AnimatorControllerPlayableLj4EE
lP:__ZN16BaseVideoTexture19UpdateVideoTexturesEv
ZMa:__Z28BuildSingleStreamChannelInfo17ShaderChannelMaskRK20VertexChannelsLayoutS_S2_P11ChannelInfo
OIa:__ZNK16LightmapSettings23HasLightProbeTetrahedraEv
A9d:__ZN13ProduceHelperI15CapsuleColliderLb0EE7ProduceE18MemLabelIdentifier18ObjectCreationMode
pWg:_Context_get_WriteSequenceNumber_m243492531
g0a:__ZN6Sprite23VirtualRedirectTransferER19StreamedBinaryWriteILb0EE
W5h:_EqualityComparer_1_System_Collections_IEqualityComparer_GetHashCode_m3761319178_gshared
pPe:_String_LastIndexOfAny_m1473637802
_lc:__Z38Transform_CUSTOM_INTERNAL_set_positionP12Il2CppObjectRK8Vector3f
oxh:_Version_CompareTo_m596235198
Fpg:_List_1_System_Collections_ICollection_CopyTo_m3062449209_gshared
Naj:__ZNK15dense_hashtableINSt3__24pairIK10KeyWrapperINS1_IPK9FieldInfoP11Il2CppClassEEEjEES9_17ReflectionMapHashIS8_EN14dense_hash_mapIS9_jSD_NS9_14EqualsComparerINS0_8equal_toIS8_EEEENS0_9allocatorISB_EEE9SelectKeyESI_SK_E5beginEv
OSa:__ZNK9ShaderLab7Program19HasMatchingVariantsERK13dynamic_arrayI16ShaderKeywordSetLj4EE
eC:__ZN15SerializeTraitsIN4math4trsXEE8TransferI8BlobSizeEEvRS1_RT_
fha:__ZN14DataBufferGLES11CopySubDataEPKS_jjj
Ge:_emscripten_glVertexPointer
jva:__ZNSt3__26__treeI20DeviceDepthStateGLES11memcmp_lessIS1_S1_ENS_9allocatorIS1_EEE7destroyEPNS_11__tree_nodeIS1_PvEE
ute:__ZN2UI13PrepareOutputERNS_7BatchesEjjNS_30AdditionalCanvasShaderChannelsE
Pog:_List_1_System_Collections_Generic_ICollectionU3CTU3E_get_IsReadOnly_m1614481629_gshared
z5i:__ZN6il2cpp2vm7Runtime47RaiseExecutionEngineExceptionIfMethodIsNotFoundEPK10MethodInfo
qTb:__Z17GetFrustumPortionPK8Vector3fffPS_
bUc:__ZNK5physx2Gu22SupportMapRelativeImplINS0_4BoxVEE18doWarmStartSupportEiRNS_6shdfnd3aos5Vec3VE
Mwh:_UnauthorizedAccessException__ctor_m259001183
qmj:__ZN15dense_hashtableINSt3__24pairIK10KeyWrapperIP14Il2CppIUnknownEjEES5_N6il2cpp5utils11PointerHashIS3_EEN14dense_hash_mapIS5_jSB_NS5_14EqualsComparerINS0_8equal_toIS4_EEEENS0_9allocatorIS7_EEE9SelectKeyESG_SI_E14squash_deletedEv
XNa:__ZN5Light13AwakeFromLoadE17AwakeFromLoadMode
__e:_DefaultControls_CreateDropdown_m1384069408
SUe:_PointerEventData_get_clickCount_m4064532478
kJg:_ReadOnlyCollection_1_System_Collections_Generic_ICollectionU3CTU3E_get_IsReadOnly_m3508872969_gshared
Erf:_CultureAwareComparer_Compare_m2587353351
XDi:_InvokableCall_1_remove_Delegate_m1748003978_gshared
tba:__ZNK9GfxDevice27GetPlatformAdjustedViewportEv
Kzf:_CCGregorianCalendar_is_leap_year_m567513478
z4g:_Oid_get_Value_m2271181078
rbf:_Attribute_IsDefined_m2118467641
m1k:_SpriteAtlasManager_Register_m447878083
xTe:_ExecuteEvents_Execute_m898902863
bGk:__Z68RuntimeInvoker_Void_t1841601450_Int32_t2071877448_Color32_t874517518PFvvEPK10MethodInfoPvPS4_
G8h:_InternalEnumerator_1_System_Collections_IEnumerator_get_Current_m3125080595_gshared
aEg:_Collection_1_System_Collections_IList_Add_m2091889616_gshared
$9b:__ZN16StreamedResource8TransferI24GenerateTypeTreeTransferEEvRT_
u0e:_DropdownItem_OnPointerEnter_m761897861
VKc:__ZN5physx3Cct10Controller13onOriginShiftERKNS_6PxVec3E
Zra:__ZN10Matrix3x3f15InvertTransposeEv
SCf:_Array_InternalArray__ICollection_Remove_TisKeyValuePair_2_t1174980068_m2768765894_gshared
aLb:__Z11IsBatchmodev
vyi:_PKCS12_CertificateSafeBag_m3272197807
z7j:__ZL65AnimationMixerPlayable_t1343787797_CustomAttributesCacheGeneratorP21CustomAttributesCache
KBg:_Collection_1_set_Item_m2199807215_gshared
KEd:__ZN5physx2Gu19_gjkRelativeRayCastINS0_9TriangleVENS0_11ConvexHullVEEEbRT_RT0_RKNS_6shdfnd3aos15PsMatTransformVERKNS9_6FloatVERKNS9_5Vec3VESI_RSD_RSG_SK_f
$rb:__Z29Transfer_Blittable_ArrayFieldI14SafeBinaryRead8Vector3fEvRT_R9ArrayInfoRK23StaticTransferFieldInfo
J8j:__ZL75Event_t3028476042_CustomAttributesCacheGenerator_Event_PopEvent_m4241312794P21CustomAttributesCache
Quh:_UInt32_System_IConvertible_ToBoolean_m91295134
uph:_Monitor_Monitor_test_synchronised_m1542589500
L4j:__ZL68RuntimePlatform_t1869584967_CustomAttributesCacheGenerator_WP8PlayerP21CustomAttributesCache
sde:__ZN20TextRenderingPrivate8FontImpl18ResetCachedTextureEv
AGj:__ZL75String_t_CustomAttributesCacheGenerator_String_Concat_m626692867____values0P21CustomAttributesCache
cZf:_SymmetricTransform_TransformFinalBlock_m4192185386
S1f:_TextInfo__ctor_m1263401274
XJd:__ZNK5physx19ActorAABBUpdateTask7getNameEv
tHi:_ListPool_1_Release_m3047738410_gshared
Myj:_GC_print_finalization_stats
dWg:_Context_get_SecurityProtocolFlags_m3295551796
HZh:_ValueCollection__ctor_m927733289_gshared
Lxa:__ZN11NamedObject15ThreadedCleanupEv
Uei:_InternalEnumerator_1__ctor_m2981879621_AdjustorThunk
Ggc:__Z53Register_UnityEngine_Behaviour_get_isActiveAndEnabledv
M2g:_IPAddress_ToString_m267966740
YIi:_EqualityComparer_1__ctor_m3971803374_gshared
er:__ZNSt3__26vectorIN4core12basic_stringIcNS1_20StringStorageDefaultIcEEEENS_9allocatorIS5_EEE8__appendEj
K6i:_il2cpp_gc_collect
R8a:__ZN26PlayerSettingsSplashScreen8TransferI17RemapPPtrTransferEEvRT_
rci:_InternalEnumerator_1_get_Current_m3922357178_gshared
i4i:__ZN6il2cpp6icalls8mscorlib6SystemL17CollectTypeFieldsINS_5utils10functional10TrueFilterEEEvP11Il2CppClassPKS7_iRNSt3__26vectorIP9FieldInfoNSB_9allocatorISE_EEEERKT_
bfk:__ZL72ColorBlock_t2652774230_CustomAttributesCacheGenerator_m_HighlightedColorP21CustomAttributesCache
DUc:__ZN5physx3Scb5Scene20addArticulationJointERNS0_17ArticulationJointE
Fsh:_Type_get_IsValueType_m1733572463
utd:__ZN5physx7NpScene14resetFilteringERNS_12PxRigidActorEPKPNS_7PxShapeEj
u1b:__Z13GetTagManagerv
F9h:_InternalEnumerator_1_Dispose_m1748410190_AdjustorThunk
uDf:_Array_InternalArray__ICollection_Remove_TisUInt16_t986882611_m65494986_gshared
DJg:_ReadOnlyCollection_1_IndexOf_m3054637117_gshared
DVi:__ZL10roundUp128PyS_
xR:__ZN11UnityEngine15CloudWebService17CloudJobSchedulerD0Ev
kOe:_String_System_IConvertible_ToBoolean_m2696751322
g2d:__ZN15CapsuleCollider23VirtualRedirectTransferER14SafeBinaryRead
ebb:__ZN18LoadSceneOperation7PerformEv
Wyd:__ZN5physx2Sc5Scene26setSimulationEventCallbackEPNS_25PxSimulationEventCallbackEh
yci:_InternalEnumerator_1__ctor_m3228997263_AdjustorThunk
RQj:__ZL105ConfigHandler_t2180714860_CustomAttributesCacheGenerator_ConfigHandler_ValidatePath_m3188987489____paths1P21CustomAttributesCache
vUk:_Matrix4x4_MultiplyPoint3x4_m1436516889
$zc:__ZL30GeomMTDCallback_CapsuleCapsuleRN5physx6PxVec3ERfRKNS_10PxGeometryERKNS_11PxTransformES5_S8_
Hu:__ZN7mecanim9animation17DestroyClipOutputEPNS0_10ClipOutputERNS_6memory9AllocatorE
qIc:__ZL18intersectAnyVsMeshILi0EEbPKN5physx2Gu6SphereEPKNS1_7CapsuleEPKNS1_3BoxERKNS1_13RTreeMidphaseERKNS0_11PxTransformERKNS0_11PxMeshScaleEP14LimitedResults
zEk:__Z163RuntimeInvoker_Void_t1841601450_RuntimeObject_Int32_t2071877448_SByte_t454417549_SByte_t454417549_SingleU26_t4173844468_SingleU26_t4173844468_SingleU26_t4173844468PFvvEPK10MethodInfoPvPS4_
Qoc:__Z21CleanupGlobalGUIStatev
irh:_TimeSpan__ctor_m1888018443_AdjustorThunk
fLk:__Z74RuntimeInvoker_Int32_t2071877448_UIVertex_t1204258818_UIVertex_t1204258818PFvvEPK10MethodInfoPvPS4_
Wkf:_SyncHashtable_get_Count_m3694444082
t$c:__ZN5physx14NpArticulation6wakeUpEv
P_j:__ZL144U3CCreateWhereIteratorU3Ec__Iterator1D_1_t2523986802_CustomAttributesCacheGenerator_U3CCreateWhereIteratorU3Ec__Iterator1D_1_Dispose_m3152287270P21CustomAttributesCache
txf:_Double_System_IConvertible_ToInt32_m549769450
Kkk:__Z56RuntimeInvoker_RuntimeObject_RuntimeObject_RuntimeObjectPFvvEPK10MethodInfoPvPS4_
Hta:__ZN22VertexDeclarationCache5ClearEv
Xdb:__ZN15CacheWriterBase18GetAddressOfMemoryEv
bx:__Z27ProcessRootMotionEmptyMixerP35AnimationPlayableEvaluationConstantP32AnimationPlayableEvaluationInputP33AnimationPlayableEvaluationOutput
WUb:__ZN6Camera24PrepareCullingParametersERK23CameraCullingParameters13RenderingPathR11CullResults
Bcc:__Z12SetIUISystemP9IUISystem
rbb:__ZN19RuntimeSceneManager22EndIntegrateMainThreadEP10UnitySceneNS_11LoadingModeE
ZSj:__ZL84Evidence_t1407710183_CustomAttributesCacheGenerator_Evidence_GetHashCode_m1260371757P21CustomAttributesCache
uJg:_ReadOnlyCollection_1_System_Collections_ICollection_get_IsSynchronized_m2344337514_gshared
Btb:__Z26Transfer_UnityEngineObjectI17RemapPPtrTransferLb0EEvRK29SerializationCommandArgumentsR31RuntimeSerializationCommandInfo
vEk:__Z34RuntimeInvoker_FitMode_t4030874534PFvvEPK10MethodInfoPvPS4_
$kb:__ZN17WeakPtrSharedDataD0Ev
cef:_Byte_Parse_m1442736478
W6f:_Int64_Parse_m3258022240
jPe:_String_IndexOfOrdinal_m3591623977
Rjh:_CryptoConfig_EncodeLongNumber_m2352037787
hth:_Type_GetMethod_m475234662
TNe:_Single_GetHashCode_m3102305584
Xig:_KeyValuePair_2__ctor_m1877755778_AdjustorThunk
Ymi:_ActivationServices_get_ConstructionActivator_m1726426854
Wvb:__Z29Transfer_Blittable_ArrayFieldI24GenerateTypeTreeTransfer4AABBEvRT_R9ArrayInfoRK23StaticTransferFieldInfo
yVj:__ZL76Convert_t2607082565_CustomAttributesCacheGenerator_Convert_ToChar_m245844937P21CustomAttributesCache
UUj:__ZL52Activator_t1850728717_CustomAttributesCacheGeneratorP21CustomAttributesCache
Ozj:_GC_adj_bytes_allocd
LRh:_SpriteState_t1353336012_marshal_pinvoke_cleanup
SIf:_Array_InternalArray__ICollection_Add_TisKeyframe_t1449471340_m887263954_gshared
IDi:_InvokableCall_1_add_Delegate_m4247246760_gshared
XXd:__ZN5physx20InternalTriangleMesh16allocateVerticesEj
xKf:_Array_InternalArray__Insert_TisDateTime_t693205669_m1484996356_gshared
Lpg:_List_1_System_Collections_IList_Remove_m3933652540_gshared
o$h:_Dictionary_2_System_Collections_IDictionary_GetEnumerator_m1484720898_gshared
Ebg:_MonoIO_get_ConsoleInput_m2976499023
WEh:_OpCode_get_Size_m481593949_AdjustorThunk
tif:_BitArrayEnumerator_checkVersion_m3839504595
H9e:_Array_GetUpperBound_m1352329707
dId:__ZN5physx6shdfnd5ArrayINS_17PxcBroadPhasePairENS0_19ReflectionAllocatorIS2_EEE8recreateEj
amj:__ZN6il2cpp6icalls8mscorlib6System10Reflection10MonoMethod19get_base_definitionEP22Il2CppReflectionMethod
Ja:invoke_fiiifii
MUg:_RecordProtocol__ctor_m168945279
Ztf:_DateTimeOffset_Equals_m3728302791_AdjustorThunk
CGc:__ZThn4_N16RayRTreeCallbackILi1ELb0EED1Ev
p7d:__ZN5physx7profile11EventBufferINS_24PxDefaultContextProviderENS_6shdfnd6MutexTINS0_26WrapperReflectionAllocatorIhEEEENS0_14ScopedLockImplIS7_EENS_24PxProfileNullEventFilterEE9sendEventINS0_10StartEventEEEvRNS0_11EventHeaderERT_
PCi:_GUIStyleState_t3801000545_marshal_pinvoke_back
NQa:__ZN20SphericalHarmonicsL219AddDirectionalLightERKN4math7_float3ERKNS0_7_float4E
FWd:__ZN5physx13BigConvexDataD2Ev
esh:_TimeSpan_op_GreaterThanOrEqual_m3997050520
pWj:__ZL77Convert_t2607082565_CustomAttributesCacheGenerator_Convert_ToUInt16_m36213644P21CustomAttributesCache
D7:__Z26ScheduleJobForEachInternalR8JobFencePFvPvjES1_iPFvS1_E11JobPriority
K4g:_OidEnumerator_MoveNext_m1889267785
uRf:_Mesh_GetAllocArrayFromChannel_TisVector3_t2243707580_m799130432_gshared
NKb:__ZZ23InitPlayerLoopCallbacksvEN41PostLateUpdateProfilerEndFrameRegistrator7ForwardEv
edc:__ZN9Scripting18RaiseMonoExceptionEPKcz
SXa:__ZN9Texture2D8TransferI19StreamedBinaryWriteILb0EEEEvRT_
x0e:_OptionData__ctor_m3070653720
iHi:_TweenRunner_1_StartTween_m3792842064_gshared
v6b:__ZN9ShaderLab16FastPropertyName15InitBy28BitHashEj
tNe:_Single_System_IConvertible_ToInt32_m3269519527_AdjustorThunk
ERi:_TextGenerationSettings_Equals_m1603221718
oIe:_SHA1Internal_ProcessBlock_m4070037334
tmi:_Marshal_copy_from_unmanaged_m98320635
ELf:_Array_InternalArray__set_Item_TisDouble_t4078015681_m24756265_gshared
IQk:_Display_RelativeMouseAtImpl_m700362000
V1k:_Vector2_get_right_m4262310679
B3b:__ZN13ProduceHelperIN2UI13RectTransformELb0EE7ProduceE18MemLabelIdentifier18ObjectCreationMode
i3a:__ZN17PackedFloatVector12UnpackFloatsEPfiiii
dRi:__ZL25UnresolvedVirtualCall_228P12Il2CppObjectiPK10MethodInfo
HTj:__ZL113EncoderReplacementFallback_t4228544112_CustomAttributesCacheGenerator_EncoderReplacementFallback__ctor_m517300448P21CustomAttributesCache
uHg:_ReadOnlyCollection_1__ctor_m3671019970_gshared
fA:__ZN17AnimationPlayable28UpdateInternalStateRecursiveILi3ELb0EEEvPK35AnimationPlayableEvaluationConstant
tea:__ZN13GfxDeviceGLES21DestroyComputeProgramER12ObjectHandleI18ComputeProgram_TagPvE
Sof:_Convert_ToDecimal_m2007036836
r5:__ZN17UniqueIDGenerator16DestroyPureIndexEj
X1:__ZL21AppendNestedClassName17ScriptingClassPtrRN4core17string_with_labelILi1EEE
gfb:__ZN14SafeBinaryRead21TransferSTLStyleArrayINSt3__26vectorIN9ShaderLab20SerializedSubProgram12UAVParameterENS1_9allocatorIS5_EEEEEEvRT_17TransferMetaFlags
dpi:_Context_NotifyDynamicSinks_m1367144344
kUh:_Enumerator__ctor_m1897170543_AdjustorThunk
WV:__ZNK13BaseAllocator10IsAssignedEv
GS:__ZN24TextDOMTransferWriteBaseI9JSONWriteE12PushMetaFlagEi
$dd:__ZN5physx7NpCloth22removeCollisionCapsuleEj
CIk:__Z55RuntimeInvoker_Void_t1841601450_WorkRequest_t1154022482PFvvEPK10MethodInfoPvPS4_
_1j:__ZL79Mesh_t1356156583_CustomAttributesCacheGenerator_Mesh_Internal_Create_m384282753P21CustomAttributesCache
SUg:_TlsClientCertificateVerify__ctor_m110646389
Uma:__ZN6prcoreL26RemapGenericIntegerToFloatI17TexFormatARGB888815TexFormatRFloatEEvPKNS_9InnerInfoE
_7i:_UpdatedEventHandler__ctor_m2169897603
jW:__ZN5Mutex6UnlockEv
B3i:__ZN6il2cpp2vm10ThreadPool10InitializeEv
pQi:__ZL25UnresolvedVirtualCall_186P12Il2CppObject6Guid_tS1_PK10MethodInfo
mpi:_Context_GetServerContextSinkChain_m390126977
C8i:__ZN6il2cpp2vm17TypeNameParseInfoD2Ev
oL:__ZN4FMOD7Channel7setModeEj
hSd:__ZN5physx18PxsSolverStartTask16articulationTaskEv
ldg:_StringReader_Read_m513112775
FZa:__ZNK8Renderer8GetLayerEv
NVc:__ZN5physx6shdfnd4sortIPvNS0_4LessIS2_EENS0_19ReflectionAllocatorINS_2Cm5BlockIS2_Lj16EEEEEEEvPT_jRKT0_RKT1_j
UJc:__ZN5physx3Cct17CapsuleController18setNonWalkableModeENS_27PxControllerNonWalkableMode4EnumE
ZVc:__ZN5physx2Sc11InteractionD2Ev
sLa:__ZN12FlareManager11DeleteFlareEi
Zzg:_Collection_1_Add_m2613548553_gshared
fz:__ZN7mecanim9animation22DestroyBlendTreeOutputEPNS0_15BlendTreeOutputERNS_6memory9AllocatorE
yPb:__ZNK6Camera20GetReplacementShaderEv
B7c:__ZN18MultiQueryCallbackIN5physx12PxRaycastHitEE6invokeERfPKNS0_2Sq13PrunerPayloadEj
Ruf:_Decimal__ctor_m569480123_AdjustorThunk
f2g:_HttpWebRequest__cctor_m3013631978
QCj:__ZNSt3__26__treeINS_12__value_typeINS_12basic_stringIcNS_11char_traitsIcEENS_9allocatorIcEEEEPFvvEEENS_19__map_value_compareIS7_SA_NS_4lessIS7_EELb1EEENS5_ISA_EEE4findIS7_EENS_15__tree_iteratorISA_PNS_11__tree_nodeISA_PvEEiEERKT_
ufb:__ZNSt3__26vectorIN9ShaderLab20SerializedSubProgram14ConstantBufferENS_9allocatorIS3_EEE7reserveEj
hka:__ZL23stbir__calculate_memoryP11stbir__info
Jsk:__Z83RuntimeInvoker_Void_t1841601450_Int64_t909078037_Int32_t2071877448_Int64_t909078037PFvvEPK10MethodInfoPvPS4_
fcj:__ZNK15dense_hashtableINSt3__24pairIK10KeyWrapperINS1_IPK10MethodInfoP11Il2CppClassEEEjEES9_17ReflectionMapHashIS8_EN14dense_hash_mapIS9_jSD_NS9_14EqualsComparerINS0_8equal_toIS8_EEEENS0_9allocatorISB_EEE9SelectKeyESI_SK_E12test_deletedERK24dense_hashtable_iteratorISB_S9_SD_SM_SI_SK_E
FWf:_KeyGeneratedEventHandler_EndInvoke_m1587195139
D3j:__ZL101Transform_t3275118058_CustomAttributesCacheGenerator_Transform_INTERNAL_set_localPosition_m2606735056P21CustomAttributesCache
bpd:__ZN5physx15NpActorTemplateINS_13PxRigidStaticEE13setActorFlagsENS_7PxFlagsINS_11PxActorFlag4EnumEtEE
YNh:_Scrollbar_FindSelectableOnRight_m3219495255
Zod:__ZN5physx15NpActorTemplateINS_13PxRigidStaticEE7releaseEv
Dak:__ZL80Physics_t634932869_CustomAttributesCacheGenerator_Physics_RaycastAll_m1980240526P21CustomAttributesCache
G4h:_EqualityComparer_1_System_Collections_IEqualityComparer_GetHashCode_m487741360_gshared
Ure:__ZNSt3__227__insertion_sort_incompleteIRPFbPN2UI6CanvasES3_EPS3_EEbT0_S8_T_
tmd:__ZN5physx19NpRigidBodyTemplateINS_14PxRigidDynamicEE11attachShapeERNS_7PxShapeE
tYk:_Rect_set_width_m2294291744_AdjustorThunk
BMb:__ZNK6Camera18GetRenderRectangleEv
u0i:__ZN6il2cpp5utils13dynamic_arrayIPK10Il2CppTypeLj4EE7reserveEj
r1a:__ZN13sorted_vectorIN4core12basic_stringIcNS0_20StringStorageDefaultIcEEEENSt3__24lessIS4_EE13stl_allocatorIS4_L18MemLabelIdentifier81ELi16EEE4findIS4_EENS5_11__wrap_iterIPS4_EERKT_
gKf:_Array_InternalArray__ICollection_CopyTo_TisVector3_t2243707580_m509487340_gshared
J2e:_GridLayoutGroup_get_constraint_m1351424857
Yvc:__ZL26Transfer_SimpleNativeClassI8JSONRead10RectOffsetLb1EEvRK29SerializationCommandArgumentsR31RuntimeSerializationCommandInfo
Uue:__Z44CanvasRenderer_CUSTOM_INTERNAL_CALL_SetColorP12Il2CppObjectRK10ColorRGBAf
nyj:_GC_should_collect
K_d:__ZN5physx2Gu27computeBoundsAroundVerticesERNS_9PxBounds3EjPKNS_6PxVec3E
kni:_UrlAttribute_Equals_m1587451932
Zsj:__ZNSt3__26__treeINS_12basic_stringIcNS_11char_traitsIcEENS_9allocatorIcEEEENS_4lessIS6_EENS4_IS6_EEE12__find_equalIS6_EERPNS_16__tree_node_baseIPvEESG_RKT_
Nsc:__Z18Transfer_BlittableI9JSONWriteLb1EsEvRK29SerializationCommandArgumentsR31RuntimeSerializationCommandInfo
Asd:__ZNK5physx7NpScene9getLimitsEv
k5f:_Int16_ToString_m4099416068_AdjustorThunk
kEe:_DSAParameters_t1872138834_marshal_pinvoke_cleanup
Nwa:__ZN6ObjectD2Ev
Tdc:__ZN9Transform16SetLocalRotationERK11Quaternionf
eFd:__ZNK5physx2Gu29EPASupportMapPairRelativeImplINS0_9TriangleVENS0_8CapsuleVEE9doSupportERKNS_6shdfnd3aos5Vec3VERS7_SA_SA_
vLb:__ZN13RenderManager37RenderCamerasWithScriptableRenderLoopEi
YId:__ZN3MBP12updateObjectEjRK5IAABB
e5e:_InputField_get_placeholder_m1768315947
PYc:__ZN5physx6shdfnd5ArrayINS_6PxVec3ENS0_19ReflectionAllocatorIS2_EEE15growAndPushBackERKS2_
sZ:__ZN23InstancedPropInfoStaticL16RegisterCallbackEPv
hIj:__ZL67RuntimeArray_CustomAttributesCacheGenerator_Array_IndexOf_m77084779P21CustomAttributesCache
nC:__ZN7mecanim8skeleton25SkeletonPoseComputeLocalQEPKNS0_8SkeletonEPKNS0_13SkeletonPoseTIN4math4trsXEEEPS7_ii
wqj:__ZN6il2cpp2os19ReleaseSocketHandleEj
xqk:__Z92RuntimeInvoker_Void_t1841601450_DateTime_t693205669_DateTime_t693205669_TimeSpan_t3430258949PFvvEPK10MethodInfoPvPS4_
RJj:__ZL128SafeHandleZeroOrMinusOneIsInvalid_t1177681199_CustomAttributesCacheGenerator_SafeHandleZeroOrMinusOneIsInvalid__ctor_m3340306667P21CustomAttributesCache
BO:__ZN11AudioModule16GetDSPSampleRateEv
Puj:__ZN15dense_hashtableINSt3__24pairIK10KeyWrapperIPK19Il2CppGenericMethodEP10MethodInfoEES6_N6il2cpp8metadata23Il2CppGenericMethodHashEN14dense_hash_mapIS6_S9_SD_NS6_14EqualsComparerINSC_26Il2CppGenericMethodCompareEEENS0_9allocatorISA_EEE9SelectKeyESH_SJ_E5clearEv
W9b:__ZN16PropertyAccessor5ClearEv
xwd:__ZN5physx2Sc5Scene20fireTriggerCallbacksEv
MAh:_TypeBuilder_get_next_table_index_m1415870184
v9k:___cxa_can_catch
WPg:_SequentialSearchPrimeGeneratorBase_GenerateNewPrime_m296245934
hff:_Char_GetUnicodeCategory_m4273361321
rGj:__ZL63String_t_CustomAttributesCacheGenerator_String_Split_m394273024P21CustomAttributesCache
tEd:__ZN5physx2Gu18GJKRelativeRayCastERNS0_8CapsuleVERNS0_4BoxVERKNS_6shdfnd3aos15PsMatTransformVERKNS6_6FloatVERKNS6_5Vec3VESF_RSA_RSD_SH_fb
RPb:__ZN6Camera28DefaultPerformRenderFunctionD0Ev
Qeg:_Math_Round_m565516458
Woi:_Identity_get_ClientDynamicProperties_m767245959
E8h:_InternalEnumerator_1__ctor_m675130983_AdjustorThunk
M_h:_Dictionary_2_Clear_m899854001_gshared
Drj:__ZN6il2cpp2os5posix15PosixWaitObjectC2ENS2_4TypeE
KNb:__ZN6Camera21PostMultiCustomRenderENS_10RenderFlagEb
BFh:_TypeBuilder_create_generic_class_m986834171
bXc:__ZN5physx15PxsArticulationD2Ev
Hqa:__ZN12_GLOBAL__N_112UploadImagesEP7ApiGLESjji14GraphicsFormatPKhjS2_iiii16TextureUsageModePh
zIb:__ZN23ShaderVariantCollection13WarmupShadersEv
cWg:_Context_set_ProtocolNegotiated_m1177527245
Uuh:_UInt32_System_IConvertible_ToChar_m1056040486
C1:__Z25GetCommonScriptingClassesv
L$g:_TlsStream_get_Length_m1562309511
Vbb:__Z27scripting_gc_collect_unsafei
GO:__ZN11AudioModule20SuspendVideoTexturesEv
wif:_CaseInsensitiveComparer__ctor_m1125492797
sQ:__Z59Register_UnityEngine_AudioExtensionManager_GetAudioListenerv
S5b:__ZN12CubemapArrayC2E18MemLabelIdentifier18ObjectCreationMode
rLk:__Z73RuntimeInvoker_DictionaryEntry_t3048875398_RuntimeObject_SByte_t454417549PFvvEPK10MethodInfoPvPS4_
mod:__ZN5physx13NpRigidStaticC2ERKNS_11PxTransformE
enf:_Convert_ToByte_m395020137
nvb:__Z26Transfer_UnityEngineObjectI24GenerateTypeTreeTransferLb0EEvRK29SerializationCommandArgumentsR31RuntimeSerializationCommandInfo
D9i:_RaycastHit2D_get_normal_m1680752829
cge:_UNITY_FT_GlyphLoader_CheckPoints
wsg:_List_1_System_Collections_ICollection_CopyTo_m1995866425_gshared
F8k:___cxa_get_globals_fast
FEd:__ZN5physxL20PxcSweepBoxTrianglesERKNS_11PxsCCDShapeES2_RKNS_11PxTransformES5_S5_S5_fRNS_6PxVec3ES7_RNS_10PxcNpCacheERNS_18PxcNpThreadContextERKNS_2Cm23FastVertex2ShapeScalingERNS_2Gu9TriangleVEf
_dg:_TextWriter_WriteLine_m1754475888
jLc:__ZN5physx3Cct15ObstacleContextD0Ev
oLa:__ZN15SharedLightData7PrecalcEv
AGa:__ZN10Matrix4x4fmLERKS_
yr:__ZN4PPtrI9TransformE8TransferI18StreamedBinaryReadILb0EEEEvRT_
fQf:_Array_InternalArray__get_Item_TisDouble_t4078015681_m2215331088_gshared
B3j:__ZL95Transform_t3275118058_CustomAttributesCacheGenerator_Transform_INTERNAL_set_position_m502085109P21CustomAttributesCache
dTj:__ZL57PrincipalPolicy_t289802916_CustomAttributesCacheGeneratorP21CustomAttributesCache
Lyb:__Z35Transfer_Blittable_FixedBufferFieldI18StreamedBinaryReadILb1EEsEvRK29SerializationCommandArgumentsR31RuntimeSerializationCommandInfo
UCg:_Collection_1_ClearItems_m3446813399_gshared
E_h:_Dictionary_2_Init_m3666073812_gshared
Otg:_List_1_AsReadOnly_m1681105545_gshared
CBa:__ZN15ArchiveReadFileD0Ev
XYf:_SymmetricTransform_TransformBlock_m1524716432
_Ci:_GUIUtility_TakeCapture_m1786193394
TFf:_Array_compare_TisColor32_t874517518_m3842009370_gshared
CCk:__Z105RuntimeInvoker_Boolean_t3825574718_RuntimeObject_Vector2_t2243707579_RuntimeObject_Vector2U26_t3911752445PFvvEPK10MethodInfoPvPS4_
eye:__ZN11UnityEngine15PlatformWrapper18GetOperatingSystemEv
vaa:__ZNSt3__26vectorIP14DataBufferGLESNS_9allocatorIS2_EEE21__push_back_slow_pathIKS2_EEvRT_
oxd:__ZN5physx3Scb9Aggregate9syncStateERNS0_5SceneE
C_j:__ZL61ExtensionAttribute_t1840441203_CustomAttributesCacheGeneratorP21CustomAttributesCache
WLg:_ReadOnlyCollection_1_System_Collections_Generic_ICollectionU3CTU3E_Remove_m974176789_gshared
owf:_Delegate_return_type_match_m4278947849
X6e:_InputField_GenerateHightlight_m1346735465
p4i:__ZN6il2cpp6icalls8mscorlib6System8MonoType19GetGenericArgumentsEP20Il2CppReflectionType
tq:__ZN15SerializeTraitsI13dynamic_arrayIiLj4EEE19ResizeSTLStyleArrayERS1_i
$Rk:_UnityEventBase_ToString_m2323130098
CPc:__ZN5physx3Ext13RevoluteJoint21setRevoluteJointFlagsENS_7PxFlagsINS_19PxRevoluteJointFlag4EnumEtEE
xmf:_GC_SuppressFinalize_m953228702
Tfe:_FT_MSB
F_g:_InternalAsyncResult_get_ProceedAfterHandshake_m552962842
jfh:_SoapServices_PreLoad_m490411755
H7b:__ZZL23RegisterLightPropertiesR22GenericPropertyBindingEN29Wrapper_LightShadowNormalBias13GetFloatValueEPv
aZk:_RectOffset__ctor_m2517237351
$pk:__Z63RuntimeInvoker_RuntimeObject_Int32_t2071877448_SByte_t454417549PFvvEPK10MethodInfoPvPS4_
kDj:__ZN6il2cpp6icalls8mscorlib4Mono8Security12Cryptography18KeyPairPersistence10_CanSecureEP12Il2CppString
X2c:__ZN5physx7NpActor17resolveReferencesERNS_24PxDeserializationContextE
Dbe:__ZN9Rigidbody15InitializeClassEv
s6h:_Action_1_Invoke_m4180501989_gshared
QQh:_Slider__ctor_m3124136916
Zii:_DefaultComparer__ctor_m3180706193_gshared
pug:_List_1_System_Collections_Generic_IEnumerableU3CTU3E_GetEnumerator_m3625278020_gshared
Oaa:__ZN13GfxDeviceGLES14SetRasterStateEPK17DeviceRasterState
ouk:__Z51RuntimeInvoker_Int16_t4041245914_Single_t2076509932PFvvEPK10MethodInfoPvPS4_
Ipb:__Z30TransferField_LinearCollectionI14SafeBinaryReadEvRK29SerializationCommandArgumentsR31RuntimeSerializationCommandInfo
lRc:__ZN5physx6shdfnd8internal8HashBaseINS0_4PairIKPKNS_2Sc8ShapeSimENS4_10NPhaseCore16ClothListElementEEES7_NS0_4HashIS7_EENS1_11HashMapBaseIS7_SA_SD_NS0_9AllocatorEE6GetKeyESF_Lb1EE5eraseERS8_
N5e:_InputField_set_caretPositionInternal_m231166704
SQc:__ZN5physx5Elems17setStaticAABBDataEjRKNS_17PxcAABBDataStaticE
yVg:_TlsServerHello__ctor_m3032108168
Fva:__ZN14SafeBinaryRead11EndTransferEv
BMj:__ZL98ILGenerator_t99948092_CustomAttributesCacheGenerator_ILGenerator_Mono_GetCurrentOffset_m3553856682P21CustomAttributesCache
Nbb:__ZNK10UnityScene13GetBuildIndexEv
aqb:__ZN14SafeBinaryRead8TransferI8MonoPPtrEEvRT_PKc17TransferMetaFlags
D1h:_Dictionary_2_System_Collections_Generic_ICollectionU3CSystem_Collections_Generic_KeyValuePairU3CTKeyU2CTValueU3EU3E_Remove_m1705959559_gshared
c$k:_SerializeField__ctor_m2670658200
Ogi:_InternalEnumerator_1_System_Collections_IEnumerator_get_Current_m1533037706_gshared
Hra:__ZN21UniformBufferTFMethod13MapBoneBufferEj
oZg:_RecordProtocol_SendChangeCipherSpec_m3542001341
qMf:_Array_InternalArray__set_Item_TisVector3_t2243707580_m1390667454_gshared
avg:_List_1_Sort_m3574220472_gshared
ujj:__ZNSt3__26vectorIcNS_9allocatorIcEEEC2Ej
rjc:__Z40Register_UnityEngine_Input_GetKeyDownIntv
UWf:_KeyPairPersistence_CanSecure_m2251009700
Tx:__ZN7mecanim5human14HumanPoseClearERNS0_9HumanPoseERKNS_6bitsetILj70EEE
RFb:__ZN9TextAsset15ThreadedCleanupEv
Qch:_ReturnMessage_get_Properties_m531965085
NCh:_GenericTypeParameterBuilder_IsSubclassOf_m563999142
o2:__ZN14SerializedFileD2Ev
hGh:_AddEventAdapter_Invoke_m3970567975
E7:__Z21CompleteFenceInternalR8JobFence
xpc:__Z30Event_Get_Custom_PropModifiersP12Il2CppObject
_Wc:__ZN5physx6shdfnd5ArrayIPvNS0_16AlignedAllocatorILj64ENS0_9AllocatorEEEE15growAndPushBackERKS2_
Qaj:__ZN30dense_hashtable_const_iteratorINSt3__24pairIK10KeyWrapperINS1_IPK9FieldInfoP11Il2CppClassEEEjEES9_17ReflectionMapHashIS8_EN14dense_hash_mapIS9_jSD_NS9_14EqualsComparerINS0_8equal_toIS8_EEEENS0_9allocatorISB_EEE9SelectKeyESI_SK_E30advance_past_empty_and_deletedEv
V1h:_Dictionary_2_ContainsValue_m2375979648_gshared
Ou:__ZN7mecanim9animation16CreateClipOutputEPKNS0_4ClipERNS_6memory9AllocatorE
yKf:_Array_InternalArray__Insert_TisDecimal_t724701077_m1429254816_gshared
EHi:_ListPool_1_Get_m2998644518_gshared
ttk:__Z191RuntimeInvoker_Int32_t2071877448_RuntimeObject_Int32_t2071877448_Int32_t2071877448_RuntimeObject_Int32_t2071877448_SByte_t454417549_Int32U26_t455636984_BooleanU26_t3168250738_SByte_t454417549PFvvEPK10MethodInfoPvPS4_
K9i:__ZN6il2cpp2vm10Reflection17GetAssemblyObjectEPK14Il2CppAssembly
mrh:_TimeSpan_get_Days_m1002111510
yKc:__ZN5physx3Cct12SweptCapsuleC2Ev
aeb:__ZN6Shader21AwakeFromLoadThreadedEv
Wla:__ZN6prcoreL17RemapGenericFloatI17TexFormatRGBFloat17TexFormatRGBAHalfEEvPKNS_9InnerInfoE
Bgk:__ZL70InputField_t1631627530_CustomAttributesCacheGenerator_m_CharacterLimitP21CustomAttributesCache
evg:_List_1_get_Capacity_m2443158653_gshared
W8d:__ZN5physx24PxcContactBoxHeightFieldERKNS_2Gu13GeometryUnionES3_RKNS_11PxTransformES6_RKfRNS_10PxcNpCacheERNS0_13ContactBufferE
pDe:__ZN13RuntimeStaticINSt3__26vectorIjNS0_9allocatorIjEEEELb0EE16StaticInitializeEPv
dU:__ZN13UploadHandler10OnSentDataEj
tEj:__ZN6il2cpp2os9SemaphoreC2Eii
C8h:_InternalEnumerator_1_get_Current_m2960188445_AdjustorThunk
wyk:__Z56RuntimeInvoker_UriHostNameType_t2148127109_RuntimeObjectPFvvEPK10MethodInfoPvPS4_
cqb:__ZNSt3__26vectorI8MonoPPtr13stl_allocatorIS1_L18MemLabelIdentifier1ELi16EEE8__appendEj
pSh:_Text_set_alignByGeometry_m1514652028
oOb:__ZN14qsort_internal30FindAndMovePivotToLastPositionIP17RODataReplacementi19ROSorterReplacementEEvT_S4_T0_T1_
Sra:__ZN15UniformTFMethod20IsBoneCountSupportedEi
OJd:__ZNK5physx23AggregateAABBUpdateTask7getNameEv
dag:_FileStream_get_Position_m465478322
$_i:__ZN14dense_hash_setI10KeyWrapperIPK19Il2CppGenericMethodEN6il2cpp8metadata23Il2CppGenericMethodHashENS4_14EqualsComparerINS6_26Il2CppGenericMethodCompareEEENSt3__29allocatorIS4_EEEC2EjRKS7_RKSA_
Nal:dynCall_viidi
CKf:_Array_InternalArray__Insert_TisInt64_t909078037_m3039874636_gshared
rcf:_Convert_ToInt16_m1787678274
$Sh:_ToggleGroup_NotifyToggleOn_m997426227
mu:__ZN8Playable18OnApplicationPauseEb
yZg:_RSASslSignatureDeformatter_SetKey_m1150106904
m1h:_Dictionary_2_ContainsKeyValuePair_m3818021458_gshared
o$:__ZN24ScriptingMethodFiltering17FilterOnSignatureENS_18MethodSearchFilterE
dAh:_TypeBuilder_get_Module_m1668298460
JVd:__ZN5physx13NpClothFabric16scaleRestlengthsEf
VZb:__ZN18ScreenManagerWebGL13SetLockCursorE14CursorLockMode
yme:_cf2_arrstack_finalize
ugg:_MonoType_GetMethodsByName_m1854415088
yUh:_Enumerator_get_CurrentValue_m3147984131_gshared
VAh:_DerivedType_GetMethods_m165266904
CYf:_RSAManaged_EncryptValue_m4089823119
m3b:__ZN13MonoBehaviour19HandleNotificationsEPviR11MessageData
sPk:_Component_get_gameObject_m2159020946
Vpd:__ZN5physx6shdfnd5ArrayIPNS_2Sc17ParticleSystemSimENS0_19ReflectionAllocatorIS4_EEE8recreateEj
v1i:__ZN6il2cpp2vm13MetadataCache23GetMethodGenericContextEPK10MethodInfo
L2h:_DefaultComparer_GetHashCode_m926363525_gshared
sod:__ZNK5physx13NpRigidStatic7getTypeEv
GAi:_Event_get_keyCode_m4176847855
IOh:_ScrollRect_get_verticalScrollbar_m2455612493
Tag:_ReadDelegate_Invoke_m2091885836
cCh:_TypeBuilder_GetField_m2112455315
nel:b58
oel:b59
bel:b52
cel:b53
$dl:b50
ael:b51
JNd:__ZN5physx9PxTaskMgrD0Ev
AXf:_SmallXmlParser_ReadReference_m4174977204
del:b54
eel:b55
yUf:_Kernel_Multiply_m3585610531
XSg:_CertificateSelectionCallback_EndInvoke_m3525317639
c$j:__ZL61AssetBundleRequest_t2674559435_CustomAttributesCacheGeneratorP21CustomAttributesCache
Trf:_DateTime__ctor_m3604679583_AdjustorThunk
y9i:_RaycastHit2D_t4063908774_marshal_pinvoke
Yaf:_SimpleEnumerator_Reset_m1341779532
Z8i:__ZNSt3__214__split_bufferINS_12basic_stringIcNS_11char_traitsIcEENS_9allocatorIcEEEERNS4_IS6_EEEC2EjjS8_
RXf:_MACAlgorithm_Core_m2390605245
Ifi:_InternalEnumerator_1_System_Collections_IEnumerator_get_Current_m30488070_gshared
w8b:__ZN10GameObject12CleanupClassEv
fci:_InternalEnumerator_1_System_Collections_IEnumerator_Reset_m2624612805_AdjustorThunk
KZc:__ZN5physx3Scb5Scene13addRigidNoSimINS0_11RigidStaticELb0ELb1EEEvRT_RNS0_13ObjectTrackerE
Cba:__ZN9GfxDevice25SetShaderPropertiesSharedERK19ShaderPropertySheet
CGi:_IndexedSet_1_GetEnumerator_m3646001838_gshared
lok:__Z96RuntimeInvoker_Int32_t2071877448_RuntimeObject_Int32_t2071877448_Int32_t2071877448_RuntimeObjectPFvvEPK10MethodInfoPvPS4_
BFb:__ZN10MonoScript17MainThreadCleanupEv
Jia:__ZN18AsyncUploadManager19AsyncResourceUploadER9GfxDeviceii9TextureID
VLh:_VertexHelper_AddUIVertexTriangleStream_m4009409241
Fji:_Comparer_1__ctor_m844571340_gshared
d7b:__ZL25InitializeDefaultMaterialv
sve:__Z53Register_UnityEngine_CanvasRenderer_get_materialCountv
IX:__GLOBAL__sub_I_runtime_graphics_lod_0_cpp
kCa:__ZN19FileAccessorHandlerD2Ev
jki:_Comparer_1__ctor_m2941434245_gshared
DTh:_VertexHelper_AddVert_m3290455716
Zdi:_InternalEnumerator_1_System_Collections_IEnumerator_Reset_m4085710193_AdjustorThunk
xMj:__ZL126GenericTypeParameterBuilder_t1370236603_CustomAttributesCacheGenerator_GenericTypeParameterBuilder_MakeGenericType_m2955814622P21CustomAttributesCache
Iza:__ZN17PersistentManager12UnloadStreamERKN4core12basic_stringIcNS0_20StringStorageDefaultIcEEEEb
B1b:__ZN14dense_hash_mapIN4core12basic_stringIcNS0_20StringStorageDefaultIcEEEE10vector_setI4PPtrI11SpriteAtlasENSt3__24lessIS8_EE13stl_allocatorIS8_L18MemLabelIdentifier81ELi16EEE20StringHash32FunctionIS4_ENS9_8equal_toIS4_EESC_INS9_4pairIKS4_SF_EELSD_81ELi16EEEixERSL_
B$a:__ZN13ScreenManager17RequestResolutionEiibi
wIc:__ZN26IntersectAnyVsMeshCallbackILi0ELb1EED2Ev
V6i:_il2cpp_unity_liveness_calculation_from_statics
JOf:_Dictionary_2_Do_CopyTo_TisDictionaryEntry_t3048875398_TisDictionaryEntry_t3048875398_m983412647_gshared
wy:__ZNK26AnimatorControllerPlayable11DerivesFromE17ScriptingClassPtr
Bqh:_Scheduler_get_Instance_m1989471839
n_a:__ZN8Renderer8TransferI17RemapPPtrTransferEEvRT_
ULk:__Z76RuntimeInvoker_Boolean_t3825574718_UIVertex_t1204258818_UIVertex_t1204258818PFvvEPK10MethodInfoPvPS4_
jCg:_Collection_1_Contains_m1299140035_gshared
vel:_glBlitFramebuffer__wrapper
YIf:_Array_InternalArray__ICollection_Add_TisUICharInfo_t3056636800_m968274080_gshared
MHi:_ObjectPool_1__ctor_m1532275833_gshared
Jea:__ZN13GfxDeviceGLES19SetSinglePassStereoE16SinglePassStereo
LLk:__Z72RuntimeInvoker_Boolean_t3825574718_Color32_t874517518_Color32_t874517518PFvvEPK10MethodInfoPvPS4_
dMi:_AudioSourceExtension_set_audioSource_m650845743
Lxg:_Queue_1_System_Collections_ICollection_get_IsSynchronized_m3521628381_gshared
iOi:__ZL24UnresolvedVirtualCall_71P12Il2CppObjectS0_S0_iS0_S0_S0_PK10MethodInfo
_Gj:__ZL64IntPtr_t_CustomAttributesCacheGenerator_IntPtr__ctor_m3803259710P21CustomAttributesCache
Utg:_List_1_GetIndex_m3262928832_gshared
hfd:__ZNK5physx2Sc9ClothCore16getCollisionDataEPNS_22PxClothCollisionSphereEPjPNS_21PxClothCollisionPlaneES4_PNS_24PxClothCollisionTriangleE
llc:__Z33Sprite_CUSTOM_INTERNAL_get_borderP12Il2CppObjectP8Vector4f
UXb:__ZN16ReflectionProbes9GetCameraEv
uld:__ZN5physx22NpParticleBaseTemplateINS_16PxParticleSystemENS_16NpParticleSystemEE14resetFilteringEv
c0f:_ArgumentException__ctor_m2105824819
bue:__ZN2UI6Canvas17SetSortingLayerIDEi
vLh:_Navigation_t1571958496_marshal_pinvoke_back
DXe:_BaseMeshEffect_get_graphic_m3358796463
Arj:__ZN6il2cpp2vm11MethodStack23CleanupForCurrentThreadEv
Y2k:_YieldInstruction__ctor_m3378690795
dTi:_Predicate_1_Invoke_m695569038_gshared
Ijg:_Enumerator_VerifyState_m825848279_AdjustorThunk
kMa:__ZN20TierGraphicsSettings8TransferI24GenerateTypeTreeTransferEEvRT_
TCi:_GUIStyleState_Cleanup_m824895509
tmk:__Z77RuntimeInvoker_Int32_t2071877448_RuntimeObject_RuntimeObject_SByte_t454417549PFvvEPK10MethodInfoPvPS4_
GJd:__ZN5physx10BPWorkTaskD0Ev
Orb:__ZN14SafeBinaryRead21TransferSTLStyleArrayI13dynamic_arrayI4AABBLj4EEEEvRT_17TransferMetaFlags
gUa:__ZN18UnityPropertySheet8TransferI19StreamedBinaryWriteILb0EEEEvRT_
MXg:_TlsServerCertificate_checkServerIdentity_m3836435780
v8:__ZNSt3__26__treeINS_12__value_typeIiN11TypeManager18TypeCallbackStructEEENS_19__map_value_compareIiS4_NS_4lessIiEELb1EEENS_9allocatorIS4_EEE7destroyEPNS_11__tree_nodeIS4_PvEE
EZf:_PKCS12_Decrypt_m2353135969
XMj:__ZL93TypeBuilder_t3308873219_CustomAttributesCacheGenerator_TypeBuilder_IsAssignableTo_m3210661829P21CustomAttributesCache
oPk:_Color32_ToString_m685380321
IHh:_MonoEvent_ToString_m386956596
H4j:__ZL70RuntimePlatform_t1869584967_CustomAttributesCacheGenerator_FlashPlayerP21CustomAttributesCache
vNf:_Array_Sort_TisRuntimeObject_m3309514378_gshared
$Ue:_PointerEventData_get_pointerPress_m880101744
Qfa:__ZL19GetCameraTargetRectRK6Camerabb
exe:__ZN11UnityEngine7Connect17XRDeviceInfoEventD0Ev
Jyd:__ZN5physx20NpRigidActorTemplateINS_13PxRigidStaticEE14resetFilteringERNS_3Scb11RigidObjectEPKPNS_7PxShapeEj
RWh:_Transform_1_BeginInvoke_m1786442111_gshared
I3f:_Int32_GetFormatException_m1729046182
XEa:__ZN13dynamic_arrayIN10GameObject13ComponentPairELj4EE6insertEPS1_RKS1_
Pyg:_Collection_1_get_Count_m3834276648_gshared
SV:__ZN21UnityDefaultAllocatorI17LowLevelAllocatorE10DeallocateEPv
vOa:__ZN15SharedLightData22UpdateCookieTextureRefEv
Bs:__ZN15PackedIntVector8TransferI14SafeBinaryReadEEvRT_
mGh:_FieldInfo_get_IsLiteral_m267898096
rbk:__ZL84Canvas_t209405766_CustomAttributesCacheGenerator_Canvas_get_isRootCanvas_m3746337338P21CustomAttributesCache
Yzj:_GC_new_hblk
a1c:__ZNK5physx19NpArticulationJoint20getTangentialDampingEv
cok:__Z45RuntimeInvoker_RuntimeObject_Int64_t909078037PFvvEPK10MethodInfoPvPS4_
M_g:_SslStreamBase_EndNegotiateHandshake_m1732321201
nXh:_Transform_1_BeginInvoke_m1167293475_gshared
TJ:__ZN13AudioListener8DoUpdateEv
lzc:__ZN5physx3Cct10Controller22setUpDirectionInternalERKNS_6PxVec3E
$qc:__ZN5Unity9rapidjson13GenericReaderINS0_4UTF8IcEES3_13JSONAllocatorE9ParseTrueILj1ENS0_25GenericInsituStringStreamIS3_EENS0_15GenericDocumentIS3_S4_S4_EEEEvRT0_RT1_
$mf:__Z13bankers_roundd
G8a:__ZN14SafeBinaryRead8TransferI5RectTIfEEEvRT_PKc17TransferMetaFlags
Ri:_emscripten_glGenFramebuffers
hkf:_Hashtable_CopyTo_m2778915805
q8:__ZN17BaseObjectManager16StaticInitializeEPv
jAh:_ConstructorBuilder_get_IsCompilerContext_m2796899803
FGf:_Array_IndexOf_TisUIVertex_t1204258818_m613887160_gshared
zeb:__ZNSt3__26vectorIN9ShaderLab26SerializedShaderDependencyENS_9allocatorIS2_EEE26__swap_out_circular_bufferERNS_14__split_bufferIS2_RS4_EE
A_e:_FloatTween_GetDuration_m1757342579_AdjustorThunk
Anf:_DateTime_CoreParse_m2014268103
lli:_ResourceSet_Dispose_m2968479859
dxa:__ZN9Behaviour23VirtualRedirectTransferER17RemapPPtrTransfer
ttc:__Z18Transfer_BlittableI9JSONWriteLb0EyEvRK29SerializationCommandArgumentsR31RuntimeSerializationCommandInfo
qSa:__ZN13RenderTexture15ThreadedCleanupEv
JFf:_Array_BinarySearch_TisRuntimeObject_m3361740551_gshared
XVa:__ZN12CubemapArray23VirtualRedirectTransferER14SafeBinaryRead
Vfd:__ZNK5physx2Sc9ClothCore23getNbCollisionTrianglesEv
Su:__ZN21AnimationClipPlayable16ProcessHumanPassEPK35AnimationPlayableEvaluationConstantPK32AnimationPlayableEvaluationInputP33AnimationPlayableEvaluationOutput
dcd:__ZN5physx7NpShape16setFlagsInternalENS_7PxFlagsINS_11PxShapeFlag4EnumEhEE
bMg:_ReadOnlyCollection_1_System_Collections_IList_Add_m616574295_gshared
J3f:_Int32_ProcessTrailingWhitespace_m2812079777
Sfa:__ZN18ProceduralMaterial9ReloadAllEbb
wkc:__Z43RectTransform_CUSTOM_INTERNAL_set_sizeDeltaP12Il2CppObjectRK13Vector2fIcall
sHc:__ZN5physx2Gu30distanceSegmentTriangleSquaredERKNS_6shdfnd3aos5Vec3VES5_S5_S5_S5_RS3_S6_
I3g:_WebProxy__ctor_m3679722173
dbi:_InternalEnumerator_1_Dispose_m2743309309_AdjustorThunk
Jnj:__ZN15dense_hashtableINSt3__24pairIK10KeyWrapperINS1_IPKcS4_EEEiEES6_24NamespaceAndNamePairHashN14dense_hash_mapIS6_iS9_NS6_14EqualsComparerI26NamespaceAndNamePairEqualsEENS0_9allocatorIS8_EEE9SelectKeyESD_SF_E6insertERKS8_
vxa:__ZN24GenerateTypeTreeTransfer18BeginArrayTransferEPKcS1_Ri17TransferMetaFlags
Yia:__Z16DecompressCrunchPKhRjR13TextureFormatiiii18MemLabelIdentifier
gwg:_List_1__ctor_m2082969060_gshared
FFk:__Z69RuntimeInvoker_Void_t1841601450_Int32U26_t455636984_Int32_t2071877448PFvvEPK10MethodInfoPvPS4_
Mm:___syscall51
Qm:___syscall54
toj:__ZNSt3__26__treeINS_12__value_typeIP24Il2CppReflectionAssemblyPvEENS_19__map_value_compareIS3_S5_NS_4lessIS3_EELb1EEENS_9allocatorIS5_EEE12__find_equalIS3_EERPNS_16__tree_node_baseIS4_EESH_RKT_
hDi:_GUIUtility_EndContainerGUIFromException_m2696366531
wjb:__ZN9ShaderLab9SubShader19CreateFromSubShaderERKS0_
Dbk:__ZL84Canvas_t209405766_CustomAttributesCacheGenerator_Canvas_get_targetDisplay_m150918273P21CustomAttributesCache
mxb:__Z18Transfer_BlittableI19StreamedBinaryWriteILb0EELb1EjEvRK29SerializationCommandArgumentsR31RuntimeSerializationCommandInfo
iE:__ZNK8Animator20IsAnyRendererVisibleEv
dne:_cff_builder_add_point1
Doj:__ZN6il2cpp2vm5Image21GetCachedResourceDataEPK11Il2CppImageRKNSt3__212basic_stringIcNS5_11char_traitsIcEENS5_9allocatorIcEEEE
o3e:_HorizontalOrVerticalLayoutGroup_set_childControlWidth_m4209477792
owk:__Z54RuntimeInvoker_TimeSpan_t3430258949_Double_t4078015681PFvvEPK10MethodInfoPvPS4_
MIf:_Array_InternalArray__ICollection_Add_TisUInt32_t2149682021_m2629016323_gshared
Lob:__Z18Transfer_BlittableI14SafeBinaryReadLb0E10ColorRGBAfEvRK29SerializationCommandArgumentsR31RuntimeSerializationCommandInfo
Fa:invoke_iiiiiiiiii
WP:__ZN11AudioSource25GetNumExtensionPropertiesEv
pO:__ZNK7Texture10GetVRUsageEv
qKf:_Array_InternalArray__Insert_TisKeyValuePair_2_t888819835_m975554221_gshared
Hsk:__Z59RuntimeInvoker_RuntimeObject_Int64_t909078037_RuntimeObjectPFvvEPK10MethodInfoPvPS4_
fbb:__ZN18LoadSceneOperation19IntegrateTimeSlicedEi
Mqh:_Scheduler_SchedulerThread_m2209572785
JSf:_SortKeyBuffer_GetResultAndReset_m2516956577
AI:__ZN4FMOD7SystemI11createSoundEPKcjP22FMOD_CREATESOUNDEXINFOPPNS_5SoundE
a0b:__ZN10FileSystem19SetCurrentDirectoryERKN4core12basic_stringIcNS0_20StringStorageDefaultIcEEEE
NHi:_ObjectPool_1_get_countAll_m4217365918_gshared
Y1:__ZN16ScriptingManager24NotifyScriptCacheReleaseEi
L7h:_InternalEnumerator_1_get_Current_m2151132603_gshared
iMj:__ZL63UnmanagedMemoryStream_t822875729_CustomAttributesCacheGeneratorP21CustomAttributesCache
ygc:__Z47Register_UnityEngine_Coroutine_ReleaseCoroutinev
IZc:__ZN10ScSceneFnsIN5physx3Scb11RigidStaticEE6insertERNS0_2Sc5SceneERS2_
wWk:_PlayableBehaviour__ctor_m1589016632
EK:__ZN15AudioReverbZone13SetFMODValuesEv
x_:__ZL19StaticDestroyShaderPv
Be:_glRenderbufferStorageMultisample
ydh:_SoapTypeAttribute_get_XmlTypeName_m2546866572
PXk:_Ray_GetPoint_m2427899009
Ez:__ZN23AnimationPlayableOutput17SetTargetAnimatorEP8Animator
qIg:_ReadOnlyCollection_1_System_Collections_IList_get_IsFixedSize_m158012227_gshared
Quc:__ZN9JSONWrite8TransferI13dynamic_arrayIN4math12int3_storageELj4EEEEvRT_PKc17TransferMetaFlags
tzi:_X509Chain__ctor_m1113875360
FQb:__ZN22MotionVectorRenderLoopD2Ev
fYg:_TlsServerHello_processProtocol_m1241336522
LHc:__ZN5physx2Gu20sweepCCTBoxTrianglesEjPKNS_10PxTriangleEbRKNS_13PxBoxGeometryERKNS_11PxTransformERKNS_6PxVec3EfRSA_SD_RfRjPKjfNS_7PxFlagsINS_9PxHitFlag4EnumEtEE
RCf:_Array_InternalArray__ICollection_Remove_TisKeyValuePair_2_t888819835_m1287715465_gshared
iBc:__ZN5physx2Gu15OBBTriangleTestC2ERKNS0_3BoxE
Kpi:_ContextAttribute_IsContextOK_m3281216012
ccg:_PathTooLongException__ctor_m3212099251
A5k:_pad
_kl:_pthread_cond_broadcast__wrapper
Xfi:_InternalEnumerator_1_MoveNext_m3299881374_AdjustorThunk
SCc:__ZN5physx2Gu21computeMTD_SphereMeshERNS_6PxVec3ERfRKNS0_6SphereERKNS_22PxTriangleMeshGeometryERKNS_11PxTransformE
Os:__ZN17PackedFloatVector8TransferI18StreamedBinaryReadILb0EEEEvRT_
W0j:__ZL88Screen_t786852042_CustomAttributesCacheGenerator_Screen_t786852042____width_PropertyInfoP21CustomAttributesCache
uRc:__ZN5physx2Sc10NPhaseCore15fetchFilterPairEPv
r$d:__ZN5physx12SubSortQuick5sort4EPjjRNS_6shdfnd5ArrayINS_11RTreeNodeNQENS2_19ReflectionAllocatorIS4_EEEERjRNS_10PxBounds3VEj
vic:__Z37Register_UnityEngine_Screen_get_widthv
_Xc:__ZN5physx6shdfnd5ArrayIPNS_2Sc8BodyCoreENS0_19ReflectionAllocatorIS4_EEE15growAndPushBackERKS4_
i0e:_DropdownItem_get_image_m2752143412
ZNi:__ZL24UnresolvedVirtualCall_60P12Il2CppObjectaPK10MethodInfo
Oac:__ZN22BlockMemoryCacheWriter11GetPathNameEv
J1e:_Graphic_Rebuild_m2617722358
$dc:__ZN23TransformChangeDispatch38CheckAndClearChangedForMultipleSystemsEyP19ProfilerInformation
VOj:__ZL86SafeHandle_t2733794115_CustomAttributesCacheGenerator_SafeHandle_SetHandle_m1980208835P21CustomAttributesCache
u4d:__ZN14PhysicsManager23VirtualRedirectTransferER14SafeBinaryRead
cF:__ZN6Avatar23VirtualRedirectTransferER14SafeBinaryRead
Gtf:_DateTime_ToString_m3108726445_AdjustorThunk
KR:__ZN19CloudServiceHandlerD2Ev
QPf:_Array_InternalArray__get_Item_TisTableRange_t2011406615_m602485977_gshared
Q6e:_InputField_Append_m2623574152
f5c:__ZN5physx7NpActor14onActorReleaseEPNS_7PxActorE
Y$f:_ApplicationException__ctor_m1120437222
kIh:_MonoMethod__ctor_m4091684020
NKc:__ZN5physx3Cct26CharacterControllerManager19computeInteractionsEfPNS_26PxControllerFilterCallbackE
Yp:stackAlloc
qWc:__ZN5physx6shdfnd8PoolBaseINS_2Cm5BlockIhLj256EEENS0_19ReflectionAllocatorIS4_EEE12allocateSlabEv
Rgc:__Z44Camera_CUSTOM_INTERNAL_CALL_ScreenPointToRayP12Il2CppObjectRK8Vector3fR3Ray
NCa:__ZN25SingleBlockMemoryFileData4LockEPPv
Rlb:__ZN12HandlerChain5TouchER13FileEntryData
jEh:_MethodBuilder_GetHashCode_m1713271764
smi:_Marshal__cctor_m802981325
zBf:_Array_get_swapper_TisUIVertex_t1204258818_m1078858558_gshared
SRf:_MSCompatUnicodeTable_GetResource_m3816716847
Gic:__Z32RectOffset_Get_Custom_PropBottomP12Il2CppObject
W9e:_Array_CreateInstance_m15016505
hYe:_CanvasScaler_get_matchWidthOrHeight_m1190816603
x6k:_stat
VHa:__ZN9ShaderLab10SubProgram7CompileEv
_Ti:_Canvas_get_isRootCanvas_m3746337338
pq:__ZN11Quaternionf8TransferI14SafeBinaryReadEEvRT_
QJf:_Array_InternalArray__ICollection_CopyTo_TisUInt16_t986882611_m3228377237_gshared
bng:_List_1_Add_m4157722533_gshared
khk:__ZL68Navigation_t1571958496_CustomAttributesCacheGenerator_m_SelectOnDownP21CustomAttributesCache
PIa:__ZN6CameraD2Ev
jLd:__ZN5physx2Gu21findUniqueConvexEdgesEjPNS0_10ConvexEdgeEjPKNS0_15HullPolygonDataEPKh
Jmg:_List_1_get_Item_m4100789973_gshared
hod:__ZN5physx20NpRigidActorTemplateINS_14PxRigidDynamicEED0Ev
gGe:_RC2_set_KeySize_m2015782960
qa:invoke_iiiiiiiiiiii
Hxg:_Queue_1_GetEnumerator_m2842671368_gshared
WFd:__ZN5physx43solveContactCoulombPreBlock_WriteBackStaticEPKNS_23PxcSolverConstraintDescEjRNS_16PxcSolverContextEPNS_25PxcThresholdStreamElementEjPi
SDg:_Collection_1_SetItem_m3715941382_gshared
J0f:_NumberFormatInfo_get_CurrencyGroupSeparator_m2480433019
F5d:__ZN10CastFilterD0Ev
sZf:_StrongName_get_PublicKey_m3777577320
Hli:_RuntimeCompatibilityAttribute__ctor_m1331212510
oWc:__ZN5physx2Sc5Scene23allocateConstraintBlockEj
IRk:_PersistentCallGroup_Initialize_m3729167844
sN:__ZN10AudioMixer12RebindOutputEv
shj:__ZNK15dense_hashtableINSt3__24pairIK10KeyWrapperIP11Il2CppClassES4_EES5_N6il2cpp8metadata16SZArrayClassHashEN14dense_hash_mapIS5_S4_SA_NS5_14EqualsComparerINS9_19SZArrayClassCompareEEENS0_9allocatorIS7_EEE9SelectKeyESE_SG_E5beginEv
NXi:__ZN6il2cpp2vm17SetupFieldsLockedEP11Il2CppClassRKNS_2os12FastAutoLockE
Lbg:_MonoIOStat_t1621921065_marshal_pinvoke
wZe:_ColorBlock_GetHashCode_m649325222_AdjustorThunk
EXc:__ZN5physx2Sc5Actor15onElementDetachERNS0_7ElementE
Iog:_List_1_System_Collections_ICollection_CopyTo_m1530390632_gshared
xFg:_Collection_1_System_Collections_IEnumerable_GetEnumerator_m1452790461_gshared
Rai:_InternalEnumerator_1_System_Collections_IEnumerator_Reset_m3194282029_AdjustorThunk
hnb:__ZN16MemoryFileSystem4NameEv
Ypg:__ZN21InterfaceFuncInvoker0I18Color32_t874517518E6InvokeEjP11Il2CppClassP12Il2CppObject
qSe:_BaseRaycaster_OnEnable_m3641767070
$vg:_List_1_ToArray_m2810936944_gshared
N_e:_DefaultControls_CreateImage_m2821562988
w4d:__ZN14PhysicsManager9onContactERKN5physx19PxContactPairHeaderEPKNS0_13PxContactPairEj
RPg:_PrimeGeneratorBase_get_PrimalityTest_m308005118
DHj:__ZL71Enum_t2459695545_CustomAttributesCacheGenerator_Enum_Format_m2294492821P21CustomAttributesCache
Ymc:__Z13SetCopyBufferRKN4core12basic_stringIcNS_20StringStorageDefaultIcEEEE
oog:_List_1_CheckIndex_m2328469916_gshared
cwk:__Z75RuntimeInvoker_RuntimeObject_RuntimeObject_Decimal_t724701077_RuntimeObjectPFvvEPK10MethodInfoPvPS4_
Ryc:__ZN5physx3Cct13BoxController13setHalfHeightEf
pxd:__ZN5physx3Scb13ObjectTracker5clearEv
Ewg:_List_1_AddRange_m3345533268_gshared
Ree:_UNITY_FT_New_Size
Oec:__Z42ScriptingGetComponentsOfTypeFromGameObjectRK26ScriptingGetComponentsArgs
VAi:_GUI_set_changed_m3199207797
Yzc:__ZL28GeomMTDCallback_PlaneCapsuleRN5physx6PxVec3ERfRKNS_10PxGeometryERKNS_11PxTransformES5_S8_
gAc:__ZL23GeomMTDCallback_BoxMeshRN5physx6PxVec3ERfRKNS_10PxGeometryERKNS_11PxTransformES5_S8_
bxg:_List_1_get_Item_m3157283227_gshared
OFf:__ZN21InterfaceFuncInvoker2Ii38CustomAttributeNamedArgument_t94157543S0_E6InvokeEjP11Il2CppClassP12Il2CppObjectS0_S0_
$ak:__ZL57SphereCollider_t1662511355_CustomAttributesCacheGeneratorP21CustomAttributesCache
j8j:__ZL92AudioSource_t1135106623_CustomAttributesCacheGenerator_AudioSource_get_isPlaying_m1207358099P21CustomAttributesCache
Rqf:_Convert_ToString_m2915777777
aed:__ZNK5physx7NpCloth22getNbCollisionCapsulesEv
DUa:__ZNSt3__27__sort4IRPFbRKNS_4pairIN9ShaderLab16FastPropertyNameEN18UnityPropertySheet11UnityTexEnvEEES8_EPS6_EEjT0_SD_SD_SD_T_
ume:_cf2_hintmap_build
e5j:__ZL54PropertyName_t217228410_CustomAttributesCacheGeneratorP21CustomAttributesCache
oke:_Line_Up
ahg:_MonoType_GetGenericTypeDefinition_m2363776160
Qzc:__ZL28GeomMTDCallback_SphereSphereRN5physx6PxVec3ERfRKNS_10PxGeometryERKNS_11PxTransformES5_S8_
xxg:_Queue_1__ctor_m1845245813_gshared
mWg:_Context_set_SentConnectionEnd_m2641458842
Ie:_emscripten_glBufferSubData
fdf:_Buffer_BlockCopyInternal_m2627156229
stb:__Z18Transfer_BlittableI17RemapPPtrTransferLb1EyEvRK29SerializationCommandArgumentsR31RuntimeSerializationCommandInfo
C1e:_Graphic_set_material_m329335629
$Re:_ExecuteEvents_get_pointerExitHandler_m3250605428
V_c:__ZN5physx6shdfnd5ArrayIPvNS0_15InlineAllocatorILj256ENS0_19ReflectionAllocatorINS_7NpShapeEEEEEE15growAndPushBackERKS2_
NLa:__ZN11HaloManager10UpdateHaloEiR9Transform11ColorRGBA32fjP6Object
Yka:__ZN6prcoreL12RemapGenericI15TexFormatRGB88817TexFormatARGB8888EEvPKNS_9InnerInfoE
Oq:__Z17CalculateGlobalRS23TransformAccessReadOnly
lhd:__ZN5physx22NpParticleBaseTemplateINS_15PxParticleFluidENS_15NpParticleFluidEE7releaseEv
aFk:__Z70RuntimeInvoker_DictionaryEntry_t3048875398_RuntimeObject_RuntimeObjectPFvvEPK10MethodInfoPvPS4_
Jgh:__ZN21InterfaceFuncInvoker1IP12Il2CppObject28StreamingContext_t1417235061E6InvokeEjP11Il2CppClassS1_S2_
sUf:_Kernel_multiByteDivide_m735279869
jFc:__ZNK5physx2Gu29EPASupportMapPairRelativeImplINS0_11ConvexHullVES2_E6getDirEv
l1h:_Dictionary_2_ToTValue_m542772656_gshared
MAe:__ZN23UnityPurchasingSettings10InitializeER6Object
xQi:__ZL25UnresolvedVirtualCall_194P12Il2CppObject6Guid_tS1_PK10MethodInfo
kqh:_Thread_GetNewManagedId_internal_m3211695465
G$c:__ZNK5physx14NpArticulation22computeImpulseResponseEPNS_18PxArticulationLinkERNS_6PxVec3ES4_RKNS_24PxArticulationDriveCacheERKS3_S9_
WSc:__ZN5physx2Sc19ContactReportBuffer23reallocateNotThreadSafeEjRjjj
tVi:_UISystemProfilerApi_EndSample_m3264820872
uia:__ZN17GenericDynamicVBO17DrawChunkInternalERK21DynamicVBOChunkHandle17ShaderChannelMaskS3_P17VertexDeclarationP16DrawBuffersRangeij
nDe:__ZN13RuntimeStaticINSt3__26vectorIN5physx25PxVehicleWheelQueryResultENS0_9allocatorIS3_EEEELb0EE16StaticInitializeEPv
AVc:__ZN5physx2Sc5Actor19registerInteractionEPNS0_11InteractionE
Krb:__ZN14SafeBinaryRead21TransferSTLStyleArrayI13dynamic_arrayI9BoundsIntLj4EEEEvRT_17TransferMetaFlags
Pdb:__ZN22MemoryCacherReadBlocks14LockCacheBlockEjPPhS1_
gcf:_Boolean_System_IConvertible_ToChar_m2637404801_AdjustorThunk
qKk:__Z55RuntimeInvoker_UICharInfo_t3056636800_Int32_t2071877448PFvvEPK10MethodInfoPvPS4_
nMe:_SecurityContext_Capture_m2535194991
kuh:_UInt16_System_IConvertible_ToSByte_m3044765342_AdjustorThunk
_Ah:_DerivedType_IsArrayImpl_m684825803
XFj:__ZL47Byte_t3683104436_CustomAttributesCacheGeneratorP21CustomAttributesCache
AMb:__ZNK9GfxDevice26GetSinglePassStereoEyeMaskEv
Yvj:__ZN4utf88internal15increase_safelyIPKcEENS0_9utf_errorERT_S5_
Qde:__ZN20TextRenderingPrivate8FontImpl16CacheFontForTextEPtiifjPK13dynamic_arrayINS_16TextFormatChangeELj4EE
ibe:__ZN13PhysicsModule19CreateNxHeightFieldEPv
WHk:__Z52RuntimeInvoker_Int32_t2071877448_Vector3_t2243707580PFvvEPK10MethodInfoPvPS4_
JMf:_Array_qsort_TisUIVertex_t1204258818_TisUIVertex_t1204258818_m512606409_gshared
XDe:__Z21ArrayElementTypeCheckP11Il2CppArrayPv
rNc:__ZN5physx3Ext7D6Joint28setProjectionLinearToleranceEf
t1g:_NameValueCollection_AsSingleString_m10599052
q8k:__ZNSt3__212basic_stringIcNS_11char_traitsIcEENS_9allocatorIcEEE6appendEjc
aig:_Object_InternalGetHashCode_m1371384246
MLh:_Navigation_get_defaultNavigation_m2185194207
vjk:__ZL73LayoutElement_t2808691390_CustomAttributesCacheGenerator_m_FlexibleHeightP21CustomAttributesCache
D5f:_Int32_System_IConvertible_ToSByte_m1449623243_AdjustorThunk
q$f:_AccessViolationException__ctor_m1270251537
Bid:__ZN5physx15NpParticleFluid2isENS_11PxActorType4EnumE
Fld:__ZN5physx22NpParticleBaseTemplateINS_16PxParticleSystemENS_16NpParticleSystemEE11setGridSizeEf
Mzi:_X509ExtensionCollection_IndexOf_m3972100651
$pb:__Z14resize_trimmedINSt3__26vectorI8MonoPPtr13stl_allocatorIS2_L18MemLabelIdentifier1ELi16EEEEEvRT_j
qf:_TTF_RenderText_Solid
evh:_UInt32_System_IConvertible_ToInt64_m3091851828
jfg:_MissingMethodException__ctor_m3898429715
Keh:_RemotingConfiguration_RegisterClientProviderTemplate_m514821425
lVh:_Enumerator_System_Collections_IEnumerator_Reset_m3085583937_gshared
E8:__ZN15dense_hashtableINSt3__24pairIKPKcPK4RTTIEES3_N11TypeManager23ConstCharPtrHashFunctorEN14dense_hash_mapIS3_S7_SA_NS9_19ConstCharPtrEqualToE13stl_allocatorIS8_L18MemLabelIdentifier7ELi16EEE9SelectKeyESC_SF_E15insert_noresizeERKS8_
DYf:_RSAManaged_ExportParameters_m2873993187
zFf:_Array_InternalArray__IEnumerable_GetEnumerator_TisVector4_t2243707581_m829381058_gshared
Txg:_Enumerator__ctor_m2816143215_AdjustorThunk
hBe:__ZN11UnityEngine7Connect16PersistentValuesC2Ev
u6g:_X509Chain_FindParent_m404663796
Zsc:__Z18Transfer_BlittableI9JSONWriteLb0E5RectTIiEEvRK29SerializationCommandArgumentsR31RuntimeSerializationCommandInfo
ifg:_MissingMemberException__ctor_m2164043278
MVi:__ZL7log2_32j
zBg:_Collection_1_CopyTo_m2282972507_gshared
IXe:_BaseVertexEffect__ctor_m358261091
$oa:__Z15IsIEEE754Format14GraphicsFormat
Gtb:__Z19TransferField_ArrayI17RemapPPtrTransfer27Converter_UnityEngineObjectEvRK23StaticTransferFieldInfoR31RuntimeSerializationCommandInfoRT0_
c9a:__ZN19StreamedBinaryWriteILb0EE8TransferI13dynamic_arrayI16SplashScreenLogoLj4EEEEvRT_PKc17TransferMetaFlags
esd:__ZNK5physx2Sc7BodySim13isConnectedToERKNS0_8RigidSimERb
dSj:__ZL53HMACSHA384_t3026079344_CustomAttributesCacheGeneratorP21CustomAttributesCache
f7f:_NumberFormatter_InitDecHexDigits_m1612588520
s4d:__ZN14PhysicsManager23VirtualRedirectTransferER17RemapPPtrTransfer
Rca:__ZN13GfxDeviceGLES15UploadTexture2DE9TextureID16TextureDimensionPKhiii14GraphicsFormati18TextureUploadFlags16TextureUsageMode
UNe:_Single_GetHashCode_m3102305584_AdjustorThunk
P9j:__ZL77GUISkin_t1436893342_CustomAttributesCacheGenerator_m_horizontalScrollbarThumbP21CustomAttributesCache
AOf:_Array_swap_TisVector3_t2243707580_m3036634038_gshared
vM:__ZN4FMOD6System9createDSPEP20FMOD_DSP_DESCRIPTIONPPNS_3DSPE
yok:__Z41RuntimeInvoker_TypeAttributes_t2229518203PFvvEPK10MethodInfoPvPS4_
az:__ZN7mecanim9animation26DestroyControllerWorkspaceEPNS0_19ControllerWorkspaceERNS_6memory9AllocatorE
_wi:_UriParser_set_SchemeName_m3624672465
yI:__ZN4FMOD8ChannelI11EndCallbackEv
RJe:_ToBase64Transform_TransformBlock_m2201454137
apc:__ZN8GUIStyle14SetDefaultFontEPN13TextRendering4FontE
XEh:_OpCode_get_StackBehaviourPop_m3787015663_AdjustorThunk
Iri:_PatternCompiler_EmitCount_m3609178511
V_a:__ZN15QualitySettings23VirtualRedirectTransferER24GenerateTypeTreeTransfer
ndk:__ZL89PointerEventData_t1599784723_CustomAttributesCacheGenerator_U3CpositionU3Ek__BackingFieldP21CustomAttributesCache
XLd:__ZN5physx2Gu32PCMConvexVsMeshContactGeneration35generateTriangleFullContactManifoldERNS0_9TriangleVEjPKjhRKNS0_13PolygonalDataEPNS0_16SupportLocalImplIS2_EEPNS0_12SupportLocalEPNS0_21MeshPersistentContactERjRKNS_6shdfnd3aos6FloatVERNSI_5Vec3VE
A7i:__ZN6il2cpp2os10FileHandleC2Ev
vuk:__Z48RuntimeInvoker_SByte_t454417549_SByte_t454417549PFvvEPK10MethodInfoPvPS4_
Tok:__Z65RuntimeInvoker_Void_t1841601450_SByte_t454417549_SByte_t454417549PFvvEPK10MethodInfoPvPS4_
qLk:__Z54RuntimeInvoker_KeyValuePair_2_t888819835_RuntimeObjectPFvvEPK10MethodInfoPvPS4_
nLk:__Z65RuntimeInvoker_DictionaryEntry_t3048875398_IntPtr_t_RuntimeObjectPFvvEPK10MethodInfoPvPS4_
LTj:__ZL84Encoding_t663144255_CustomAttributesCacheGenerator_Encoding_GetByteCount_m4104502544P21CustomAttributesCache
